0000000000000000 7f45             jg 0x47                 
0000000000000002 4c               dec esp                 
0000000000000003 46               inc esi                 
0000000000000004 0201             add al, [ecx]           
0000000000000006 0100             add [eax], eax          
0000000000000008 0000             add [eax], al           
000000000000000a 0000             add [eax], al           
000000000000000c 0000             add [eax], al           
000000000000000e 0000             add [eax], al           
0000000000000010 0200             add al, [eax]           
0000000000000012 3e0001           add [ds:ecx], al        
0000000000000015 0000             add [eax], al           
0000000000000017 00d0             add al, dl              
0000000000000019 034000           add eax, [eax+0x0]      
000000000000001c 0000             add [eax], al           
000000000000001e 0000             add [eax], al           
0000000000000020 40               inc eax                 
0000000000000021 0000             add [eax], al           
0000000000000023 0000             add [eax], al           
0000000000000025 0000             add [eax], al           
0000000000000027 00f8             add al, bh              
0000000000000029 0900             or [eax], eax           
000000000000002b 0000             add [eax], al           
000000000000002d 0000             add [eax], al           
000000000000002f 0000             add [eax], al           
0000000000000031 0000             add [eax], al           
0000000000000033 004000           add [eax+0x0], al       
0000000000000036 3800             cmp [eax], al           
0000000000000038 0800             or [eax], al            
000000000000003a 40               inc eax                 
000000000000003b 001e             add [esi], bl           
000000000000003d 001b             add [ebx], bl           
000000000000003f 0006             add [esi], al           
0000000000000041 0000             add [eax], al           
0000000000000043 000500000040     add [0x40000000], al    
0000000000000049 0000             add [eax], al           
000000000000004b 0000             add [eax], al           
000000000000004d 0000             add [eax], al           
000000000000004f 004000           add [eax+0x0], al       
0000000000000052 40               inc eax                 
0000000000000053 0000             add [eax], al           
0000000000000055 0000             add [eax], al           
0000000000000057 004000           add [eax+0x0], al       
000000000000005a 40               inc eax                 
000000000000005b 0000             add [eax], al           
000000000000005d 0000             add [eax], al           
000000000000005f 00c0             add al, al              
0000000000000061 0100             add [eax], eax          
0000000000000063 0000             add [eax], al           
0000000000000065 0000             add [eax], al           
0000000000000067 00c0             add al, al              
0000000000000069 0100             add [eax], eax          
000000000000006b 0000             add [eax], al           
000000000000006d 0000             add [eax], al           
000000000000006f 0008             add [eax], cl           
0000000000000071 0000             add [eax], al           
0000000000000073 0000             add [eax], al           
0000000000000075 0000             add [eax], al           
0000000000000077 0003             add [ebx], al           
0000000000000079 0000             add [eax], al           
000000000000007b 000400           add [eax+eax], al       
000000000000007e 0000             add [eax], al           
0000000000000080 0002             add [edx], al           
0000000000000082 0000             add [eax], al           
0000000000000084 0000             add [eax], al           
0000000000000086 0000             add [eax], al           
0000000000000088 0002             add [edx], al           
000000000000008a 40               inc eax                 
000000000000008b 0000             add [eax], al           
000000000000008d 0000             add [eax], al           
000000000000008f 0000             add [eax], al           
0000000000000091 024000           add al, [eax+0x0]       
0000000000000094 0000             add [eax], al           
0000000000000096 0000             add [eax], al           
0000000000000098 1c00             sbb al, 0x0             
000000000000009a 0000             add [eax], al           
000000000000009c 0000             add [eax], al           
000000000000009e 0000             add [eax], al           
00000000000000a0 1c00             sbb al, 0x0             
00000000000000a2 0000             add [eax], al           
00000000000000a4 0000             add [eax], al           
00000000000000a6 0000             add [eax], al           
00000000000000a8 0100             add [eax], eax          
00000000000000aa 0000             add [eax], al           
00000000000000ac 0000             add [eax], al           
00000000000000ae 0000             add [eax], al           
00000000000000b0 0100             add [eax], eax          
00000000000000b2 0000             add [eax], al           
00000000000000b4 0500000000       add eax, 0x0            
00000000000000b9 0000             add [eax], al           
00000000000000bb 0000             add [eax], al           
00000000000000bd 0000             add [eax], al           
00000000000000bf 0000             add [eax], al           
00000000000000c1 004000           add [eax+0x0], al       
00000000000000c4 0000             add [eax], al           
00000000000000c6 0000             add [eax], al           
00000000000000c8 0000             add [eax], al           
00000000000000ca 40               inc eax                 
00000000000000cb 0000             add [eax], al           
00000000000000cd 0000             add [eax], al           
00000000000000cf 00a40600000000   add [esi+eax+0x0], ah   
00000000000000d6 0000             add [eax], al           
00000000000000d8 a4               movsb                   
00000000000000d9 06               push es                 
00000000000000da 0000             add [eax], al           
00000000000000dc 0000             add [eax], al           
00000000000000de 0000             add [eax], al           
00000000000000e0 0000             add [eax], al           
00000000000000e2 2000             and [eax], al           
00000000000000e4 0000             add [eax], al           
00000000000000e6 0000             add [eax], al           
00000000000000e8 0100             add [eax], eax          
00000000000000ea 0000             add [eax], al           
00000000000000ec 06               push es                 
00000000000000ed 0000             add [eax], al           
00000000000000ef 00a806000000     add [eax+0x6], ch       
00000000000000f5 0000             add [eax], al           
00000000000000f7 00a806600000     add [eax+0x6006], ch    
00000000000000fd 0000             add [eax], al           
00000000000000ff 00a806600000     add [eax+0x6006], ch    
0000000000000105 0000             add [eax], al           
0000000000000107 001c02           add [edx+eax], bl       
000000000000010a 0000             add [eax], al           
000000000000010c 0000             add [eax], al           
000000000000010e 0000             add [eax], al           
0000000000000110 2002             and [edx], al           
0000000000000112 0000             add [eax], al           
0000000000000114 0000             add [eax], al           
0000000000000116 0000             add [eax], al           
0000000000000118 0000             add [eax], al           
000000000000011a 2000             and [eax], al           
000000000000011c 0000             add [eax], al           
000000000000011e 0000             add [eax], al           
0000000000000120 0200             add al, [eax]           
0000000000000122 0000             add [eax], al           
0000000000000124 06               push es                 
0000000000000125 0000             add [eax], al           
0000000000000127 00c0             add al, al              
0000000000000129 06               push es                 
000000000000012a 0000             add [eax], al           
000000000000012c 0000             add [eax], al           
000000000000012e 0000             add [eax], al           
0000000000000130 c00660           rol byte [esi], 0x60    
0000000000000133 0000             add [eax], al           
0000000000000135 0000             add [eax], al           
0000000000000137 00c0             add al, al              
0000000000000139 06               push es                 
000000000000013a 60               pushad                  
000000000000013b 0000             add [eax], al           
000000000000013d 0000             add [eax], al           
000000000000013f 00d0             add al, dl              
0000000000000141 0100             add [eax], eax          
0000000000000143 0000             add [eax], al           
0000000000000145 0000             add [eax], al           
0000000000000147 00d0             add al, dl              
0000000000000149 0100             add [eax], eax          
000000000000014b 0000             add [eax], al           
000000000000014d 0000             add [eax], al           
000000000000014f 0008             add [eax], cl           
0000000000000151 0000             add [eax], al           
0000000000000153 0000             add [eax], al           
0000000000000155 0000             add [eax], al           
0000000000000157 000400           add [eax+eax], al       
000000000000015a 0000             add [eax], al           
000000000000015c 0400             add al, 0x0             
000000000000015e 0000             add [eax], al           
0000000000000160 1c02             sbb al, 0x2             
0000000000000162 0000             add [eax], al           
0000000000000164 0000             add [eax], al           
0000000000000166 0000             add [eax], al           
0000000000000168 1c02             sbb al, 0x2             
000000000000016a 40               inc eax                 
000000000000016b 0000             add [eax], al           
000000000000016d 0000             add [eax], al           
000000000000016f 001c02           add [edx+eax], bl       
0000000000000172 40               inc eax                 
0000000000000173 0000             add [eax], al           
0000000000000175 0000             add [eax], al           
0000000000000177 00440000         add [eax+eax+0x0], al   
000000000000017b 0000             add [eax], al           
000000000000017d 0000             add [eax], al           
000000000000017f 00440000         add [eax+eax+0x0], al   
0000000000000183 0000             add [eax], al           
0000000000000185 0000             add [eax], al           
0000000000000187 000400           add [eax+eax], al       
000000000000018a 0000             add [eax], al           
000000000000018c 0000             add [eax], al           
000000000000018e 0000             add [eax], al           
0000000000000190 50               push eax                
0000000000000191 e574             in eax, 0x74            
0000000000000193 640400           add al, 0x0             
0000000000000196 0000             add [eax], al           
0000000000000198 d00500000000     rol byte [0x0], 1       
000000000000019e 0000             add [eax], al           
00000000000001a0 d00540000000     rol byte [0x40], 1      
00000000000001a6 0000             add [eax], al           
00000000000001a8 d00540000000     rol byte [0x40], 1      
00000000000001ae 0000             add [eax], al           
00000000000001b0 2c00             sub al, 0x0             
00000000000001b2 0000             add [eax], al           
00000000000001b4 0000             add [eax], al           
00000000000001b6 0000             add [eax], al           
00000000000001b8 2c00             sub al, 0x0             
00000000000001ba 0000             add [eax], al           
00000000000001bc 0000             add [eax], al           
00000000000001be 0000             add [eax], al           
00000000000001c0 0400             add al, 0x0             
00000000000001c2 0000             add [eax], al           
00000000000001c4 0000             add [eax], al           
00000000000001c6 0000             add [eax], al           
00000000000001c8 51               push ecx                
00000000000001c9 e574             in eax, 0x74            
00000000000001cb 6406             push es                 
00000000000001cd 0000             add [eax], al           
00000000000001cf 0000             add [eax], al           
00000000000001d1 0000             add [eax], al           
00000000000001d3 0000             add [eax], al           
00000000000001d5 0000             add [eax], al           
00000000000001d7 0000             add [eax], al           
00000000000001d9 0000             add [eax], al           
00000000000001db 0000             add [eax], al           
00000000000001dd 0000             add [eax], al           
00000000000001df 0000             add [eax], al           
00000000000001e1 0000             add [eax], al           
00000000000001e3 0000             add [eax], al           
00000000000001e5 0000             add [eax], al           
00000000000001e7 0000             add [eax], al           
00000000000001e9 0000             add [eax], al           
00000000000001eb 0000             add [eax], al           
00000000000001ed 0000             add [eax], al           
00000000000001ef 0000             add [eax], al           
00000000000001f1 0000             add [eax], al           
00000000000001f3 0000             add [eax], al           
00000000000001f5 0000             add [eax], al           
00000000000001f7 0008             add [eax], cl           
00000000000001f9 0000             add [eax], al           
00000000000001fb 0000             add [eax], al           
00000000000001fd 0000             add [eax], al           
00000000000001ff 002f             add [edi], ch           
0000000000000201 6c               insb                    
0000000000000202 696236342f6c64   imul esp, [edx+0x36], 0x646c2f34
0000000000000209 2d6c696e75       sub eax, 0x756e696c     
000000000000020e 782d             js 0x23d                
0000000000000210 7838             js 0x24a                
0000000000000212 362d36342e73     sub eax, 0x732e3436     
0000000000000218 6f               outsd                   
0000000000000219 2e3200           xor al, [cs:eax]        
000000000000021c 0400             add al, 0x0             
000000000000021e 0000             add [eax], al           
0000000000000220 1000             adc [eax], al           
0000000000000222 0000             add [eax], al           
0000000000000224 0100             add [eax], eax          
0000000000000226 0000             add [eax], al           
0000000000000228 47               inc edi                 
0000000000000229 4e               dec esi                 
000000000000022a 55               push ebp                
000000000000022b 0000             add [eax], al           
000000000000022d 0000             add [eax], al           
000000000000022f 0002             add [edx], al           
0000000000000231 0000             add [eax], al           
0000000000000233 0006             add [esi], al           
0000000000000235 0000             add [eax], al           
0000000000000237 0020             add [eax], ah           
0000000000000239 0000             add [eax], al           
000000000000023b 000400           add [eax+eax], al       
000000000000023e 0000             add [eax], al           
0000000000000240 1400             adc al, 0x0             
0000000000000242 0000             add [eax], al           
0000000000000244 0300             add eax, [eax]          
0000000000000246 0000             add [eax], al           
0000000000000248 47               inc edi                 
0000000000000249 4e               dec esi                 
000000000000024a 55               push ebp                
000000000000024b 00e9             add cl, ch              
000000000000024d 882e             mov [esi], ch           
000000000000024f ae               scasb                   
0000000000000250 018a6a103106     add [edx+0x631106a], ecx
0000000000000256 e379             jecxz 0x2d1             
0000000000000258 3f               aas                     
0000000000000259 aa               stosb                   
000000000000025a 09fb             or ebx, edi             
000000000000025c 7a5c             jp 0x2ba                
000000000000025e cc               int3                    
000000000000025f c9               leave                   
0000000000000260 0100             add [eax], eax          
0000000000000262 0000             add [eax], al           
0000000000000264 0100             add [eax], eax          
0000000000000266 0000             add [eax], al           
0000000000000268 0100             add [eax], eax          
000000000000026a 0000             add [eax], al           
000000000000026c 0000             add [eax], al           
000000000000026e 0000             add [eax], al           
0000000000000270 0000             add [eax], al           
0000000000000272 0000             add [eax], al           
0000000000000274 0000             add [eax], al           
0000000000000276 0000             add [eax], al           
0000000000000278 0000             add [eax], al           
000000000000027a 0000             add [eax], al           
000000000000027c 0000             add [eax], al           
000000000000027e 0000             add [eax], al           
0000000000000280 0000             add [eax], al           
0000000000000282 0000             add [eax], al           
0000000000000284 0000             add [eax], al           
0000000000000286 0000             add [eax], al           
0000000000000288 0000             add [eax], al           
000000000000028a 0000             add [eax], al           
000000000000028c 0000             add [eax], al           
000000000000028e 0000             add [eax], al           
0000000000000290 0000             add [eax], al           
0000000000000292 0000             add [eax], al           
0000000000000294 0000             add [eax], al           
0000000000000296 0000             add [eax], al           
0000000000000298 1a00             sbb al, [eax]           
000000000000029a 0000             add [eax], al           
000000000000029c 1200             adc al, [eax]           
000000000000029e 0000             add [eax], al           
00000000000002a0 0000             add [eax], al           
00000000000002a2 0000             add [eax], al           
00000000000002a4 0000             add [eax], al           
00000000000002a6 0000             add [eax], al           
00000000000002a8 0000             add [eax], al           
00000000000002aa 0000             add [eax], al           
00000000000002ac 0000             add [eax], al           
00000000000002ae 0000             add [eax], al           
00000000000002b0 2100             and [eax], eax          
00000000000002b2 0000             add [eax], al           
00000000000002b4 1200             adc al, [eax]           
00000000000002b6 0000             add [eax], al           
00000000000002b8 0000             add [eax], al           
00000000000002ba 0000             add [eax], al           
00000000000002bc 0000             add [eax], al           
00000000000002be 0000             add [eax], al           
00000000000002c0 0000             add [eax], al           
00000000000002c2 0000             add [eax], al           
00000000000002c4 0000             add [eax], al           
00000000000002c6 0000             add [eax], al           
00000000000002c8 0100             add [eax], eax          
00000000000002ca 0000             add [eax], al           
00000000000002cc 2000             and [eax], al           
00000000000002ce 0000             add [eax], al           
00000000000002d0 0000             add [eax], al           
00000000000002d2 0000             add [eax], al           
00000000000002d4 0000             add [eax], al           
00000000000002d6 0000             add [eax], al           
00000000000002d8 0000             add [eax], al           
00000000000002da 0000             add [eax], al           
00000000000002dc 0000             add [eax], al           
00000000000002de 0000             add [eax], al           
00000000000002e0 005f5f           add [edi+0x5f], bl      
00000000000002e3 676d             a16 insd                
00000000000002e5 6f               outsd                   
00000000000002e6 6e               outsb                   
00000000000002e7 5f               pop edi                 
00000000000002e8 7374             jae 0x35e               
00000000000002ea 61               popad                   
00000000000002eb 7274             jb 0x361                
00000000000002ed 5f               pop edi                 
00000000000002ee 5f               pop edi                 
00000000000002ef 006c6962         add [ecx+ebp*2+0x62], ch
00000000000002f3 632e             arpl [esi], bp          
00000000000002f5 736f             jae 0x366               
00000000000002f7 2e36007072       add [ss:eax+0x72], dh   
00000000000002fc 696e7466005f5f   imul ebp, [esi+0x74], 0x5f5f0066
0000000000000303 6c               insb                    
0000000000000304 6962635f737461   imul esp, [edx+0x63], 0x6174735f
000000000000030b 7274             jb 0x381                
000000000000030d 5f               pop edi                 
000000000000030e 6d               insd                    
000000000000030f 61               popad                   
0000000000000310 696e00474c4942   imul ebp, [esi+0x0], 0x42494c47
0000000000000317 43               inc ebx                 
0000000000000318 5f               pop edi                 
0000000000000319 322e             xor ch, [esi]           
000000000000031b 322e             xor ch, [esi]           
000000000000031d 3500000000       xor eax, 0x0            
0000000000000322 0200             add al, [eax]           
0000000000000324 0200             add al, [eax]           
0000000000000326 0000             add [eax], al           
0000000000000328 0100             add [eax], eax          
000000000000032a 0100             add [eax], eax          
000000000000032c 1000             adc [eax], al           
000000000000032e 0000             add [eax], al           
0000000000000330 1000             adc [eax], al           
0000000000000332 0000             add [eax], al           
0000000000000334 0000             add [eax], al           
0000000000000336 0000             add [eax], al           
0000000000000338 751a             jnz 0x354               
000000000000033a 690900000200     imul ecx, [ecx], 0x20000
0000000000000340 3300             xor eax, [eax]          
0000000000000342 0000             add [eax], al           
0000000000000344 0000             add [eax], al           
0000000000000346 0000             add [eax], al           
0000000000000348 90               nop                     
0000000000000349 086000           or [eax+0x0], ah        
000000000000034c 0000             add [eax], al           
000000000000034e 0000             add [eax], al           
0000000000000350 06               push es                 
0000000000000351 0000             add [eax], al           
0000000000000353 0003             add [ebx], al           
0000000000000355 0000             add [eax], al           
0000000000000357 0000             add [eax], al           
0000000000000359 0000             add [eax], al           
000000000000035b 0000             add [eax], al           
000000000000035d 0000             add [eax], al           
000000000000035f 00b008600000     add [eax+0x6008], dh    
0000000000000365 0000             add [eax], al           
0000000000000367 0007             add [edi], al           
0000000000000369 0000             add [eax], al           
000000000000036b 0001             add [ecx], al           
000000000000036d 0000             add [eax], al           
000000000000036f 0000             add [eax], al           
0000000000000371 0000             add [eax], al           
0000000000000373 0000             add [eax], al           
0000000000000375 0000             add [eax], al           
0000000000000377 00b808600000     add [eax+0x6008], bh    
000000000000037d 0000             add [eax], al           
000000000000037f 0007             add [edi], al           
0000000000000381 0000             add [eax], al           
0000000000000383 0002             add [edx], al           
0000000000000385 0000             add [eax], al           
0000000000000387 0000             add [eax], al           
0000000000000389 0000             add [eax], al           
000000000000038b 0000             add [eax], al           
000000000000038d 0000             add [eax], al           
000000000000038f 004883           add [eax-0x7d], cl      
0000000000000392 ec               in al, dx               
0000000000000393 08e8             or al, ch               
0000000000000395 6300             arpl [eax], ax          
0000000000000397 0000             add [eax], al           
0000000000000399 48               dec eax                 
000000000000039a 83c408           add esp, 0x8            
000000000000039d c3               ret                     
000000000000039e 0000             add [eax], al           
00000000000003a0 ff35fa042000     push dword [0x2004fa]   
00000000000003a6 ff25fc042000     jmp dword [0x2004fc]    
00000000000003ac 0f1f4000         nop [eax+0x0]           
00000000000003b0 ff25fa042000     jmp dword [0x2004fa]    
00000000000003b6 6800000000       push dword 0x0          
00000000000003bb e9e0ffffff       jmp dword 0x3a0         
00000000000003c0 ff25f2042000     jmp dword [0x2004f2]    
00000000000003c6 6801000000       push dword 0x1          
00000000000003cb e9d0ffffff       jmp dword 0x3a0         
00000000000003d0 31ed             xor ebp, ebp            
00000000000003d2 49               dec ecx                 
00000000000003d3 89d1             mov ecx, edx            
00000000000003d5 5e               pop esi                 
00000000000003d6 48               dec eax                 
00000000000003d7 89e2             mov edx, esp            
00000000000003d9 48               dec eax                 
00000000000003da 83e4f0           and esp, 0xfffffff0     
00000000000003dd 50               push eax                
00000000000003de 54               push esp                
00000000000003df 49               dec ecx                 
00000000000003e0 c7c0a0054000     mov eax, 0x4005a0       
00000000000003e6 48               dec eax                 
00000000000003e7 c7c110054000     mov ecx, 0x400510       
00000000000003ed 48               dec eax                 
00000000000003ee c7c7dc044000     mov edi, 0x4004dc       
00000000000003f4 e8c7ffffff       call dword 0x3c0        
00000000000003f9 f4               hlt                     
00000000000003fa 6690             nop                     
00000000000003fc 48               dec eax                 
00000000000003fd 83ec08           sub esp, 0x8            
0000000000000400 48               dec eax                 
0000000000000401 8b0589042000     mov eax, [0x200489]     
0000000000000407 48               dec eax                 
0000000000000408 85c0             test eax, eax           
000000000000040a 7402             jz 0x40e                
000000000000040c ffd0             call eax                
000000000000040e 48               dec eax                 
000000000000040f 83c408           add esp, 0x8            
0000000000000412 c3               ret                     
0000000000000413 662e0f1f84000000 o16 nop [cs:eax+eax+0x0]
                -0000            
000000000000041d 0f1f00           nop [eax]               
0000000000000420 b8cf086000       mov eax, 0x6008cf       
0000000000000425 55               push ebp                
0000000000000426 48               dec eax                 
0000000000000427 2dc8086000       sub eax, 0x6008c8       
000000000000042c 48               dec eax                 
000000000000042d 83f80e           cmp eax, 0xe            
0000000000000430 48               dec eax                 
0000000000000431 89e5             mov ebp, esp            
0000000000000433 7702             ja 0x437                
0000000000000435 5d               pop ebp                 
0000000000000436 c3               ret                     
0000000000000437 b800000000       mov eax, 0x0            
000000000000043c 48               dec eax                 
000000000000043d 85c0             test eax, eax           
000000000000043f 74f4             jz 0x435                
0000000000000441 5d               pop ebp                 
0000000000000442 bfc8086000       mov edi, 0x6008c8       
0000000000000447 ffe0             jmp eax                 
0000000000000449 0f1f8000000000   nop [eax+0x0]           
0000000000000450 b8c8086000       mov eax, 0x6008c8       
0000000000000455 55               push ebp                
0000000000000456 48               dec eax                 
0000000000000457 2dc8086000       sub eax, 0x6008c8       
000000000000045c 48               dec eax                 
000000000000045d c1f803           sar eax, 0x3            
0000000000000460 48               dec eax                 
0000000000000461 89e5             mov ebp, esp            
0000000000000463 48               dec eax                 
0000000000000464 89c2             mov edx, eax            
0000000000000466 48               dec eax                 
0000000000000467 c1ea3f           shr edx, 0x3f           
000000000000046a 48               dec eax                 
000000000000046b 01d0             add eax, edx            
000000000000046d 48               dec eax                 
000000000000046e 89c6             mov esi, eax            
0000000000000470 48               dec eax                 
0000000000000471 d1fe             sar esi, 1              
0000000000000473 7502             jnz 0x477               
0000000000000475 5d               pop ebp                 
0000000000000476 c3               ret                     
0000000000000477 ba00000000       mov edx, 0x0            
000000000000047c 48               dec eax                 
000000000000047d 85d2             test edx, edx           
000000000000047f 74f4             jz 0x475                
0000000000000481 5d               pop ebp                 
0000000000000482 bfc8086000       mov edi, 0x6008c8       
0000000000000487 ffe2             jmp edx                 
0000000000000489 0f1f8000000000   nop [eax+0x0]           
0000000000000490 803d2d04200000   cmp byte [0x20042d], 0x0
0000000000000497 7511             jnz 0x4aa               
0000000000000499 55               push ebp                
000000000000049a 48               dec eax                 
000000000000049b 89e5             mov ebp, esp            
000000000000049d e87effffff       call dword 0x420        
00000000000004a2 5d               pop ebp                 
00000000000004a3 c6051a04200001   mov byte [0x20041a], 0x1
00000000000004aa f3c3             rep ret                 
00000000000004ac 0f1f4000         nop [eax+0x0]           
00000000000004b0 48               dec eax                 
00000000000004b1 833d0002200000   cmp dword [0x200200], 0x0
00000000000004b8 741b             jz 0x4d5                
00000000000004ba b800000000       mov eax, 0x0            
00000000000004bf 48               dec eax                 
00000000000004c0 85c0             test eax, eax           
00000000000004c2 7411             jz 0x4d5                
00000000000004c4 55               push ebp                
00000000000004c5 bfb8066000       mov edi, 0x6006b8       
00000000000004ca 48               dec eax                 
00000000000004cb 89e5             mov ebp, esp            
00000000000004cd ffd0             call eax                
00000000000004cf 5d               pop ebp                 
00000000000004d0 e97bffffff       jmp dword 0x450         
00000000000004d5 e976ffffff       jmp dword 0x450         
00000000000004da 6690             nop                     
00000000000004dc 55               push ebp                
00000000000004dd 48               dec eax                 
00000000000004de 89e5             mov ebp, esp            
00000000000004e0 48               dec eax                 
00000000000004e1 83ec10           sub esp, 0x10           
00000000000004e4 897dfc           mov [ebp-0x4], edi      
00000000000004e7 48               dec eax                 
00000000000004e8 8975f0           mov [ebp-0x10], esi     
00000000000004eb bfc0054000       mov edi, 0x4005c0       
00000000000004f0 b800000000       mov eax, 0x0            
00000000000004f5 e8b6feffff       call dword 0x3b0        
00000000000004fa b800000000       mov eax, 0x0            
00000000000004ff c9               leave                   
0000000000000500 c3               ret                     
0000000000000501 662e0f1f84000000 o16 nop [cs:eax+eax+0x0]
                -0000            
000000000000050b 0f1f440000       nop [eax+eax+0x0]       
0000000000000510 48               dec eax                 
0000000000000511 896c24d8         mov [esp-0x28], ebp     
0000000000000515 4c               dec esp                 
0000000000000516 896424e0         mov [esp-0x20], esp     
000000000000051a 48               dec eax                 
000000000000051b 8d2d8f012000     lea ebp, [0x20018f]     
0000000000000521 4c               dec esp                 
0000000000000522 8d2580012000     lea esp, [0x200180]     
0000000000000528 48               dec eax                 
0000000000000529 895c24d0         mov [esp-0x30], ebx     
000000000000052d 4c               dec esp                 
000000000000052e 896c24e8         mov [esp-0x18], ebp     
0000000000000532 4c               dec esp                 
0000000000000533 897424f0         mov [esp-0x10], esi     
0000000000000537 4c               dec esp                 
0000000000000538 897c24f8         mov [esp-0x8], edi      
000000000000053c 48               dec eax                 
000000000000053d 83ec38           sub esp, 0x38           
0000000000000540 4c               dec esp                 
0000000000000541 29e5             sub ebp, esp            
0000000000000543 41               inc ecx                 
0000000000000544 89ff             mov edi, edi            
0000000000000546 49               dec ecx                 
0000000000000547 89f6             mov esi, esi            
0000000000000549 48               dec eax                 
000000000000054a c1fd03           sar ebp, 0x3            
000000000000054d 49               dec ecx                 
000000000000054e 89d5             mov ebp, edx            
0000000000000550 31db             xor ebx, ebx            
0000000000000552 e839feffff       call dword 0x390        
0000000000000557 48               dec eax                 
0000000000000558 85ed             test ebp, ebp           
000000000000055a 741a             jz 0x576                
000000000000055c 0f1f4000         nop [eax+0x0]           
0000000000000560 4c               dec esp                 
0000000000000561 89ea             mov edx, ebp            
0000000000000563 4c               dec esp                 
0000000000000564 89f6             mov esi, esi            
0000000000000566 44               inc esp                 
0000000000000567 89ff             mov edi, edi            
0000000000000569 41               inc ecx                 
000000000000056a ff14dc           call dword [esp+ebx*8]  
000000000000056d 48               dec eax                 
000000000000056e 83c301           add ebx, 0x1            
0000000000000571 48               dec eax                 
0000000000000572 39eb             cmp ebx, ebp            
0000000000000574 75ea             jnz 0x560               
0000000000000576 48               dec eax                 
0000000000000577 8b5c2408         mov ebx, [esp+0x8]      
000000000000057b 48               dec eax                 
000000000000057c 8b6c2410         mov ebp, [esp+0x10]     
0000000000000580 4c               dec esp                 
0000000000000581 8b642418         mov esp, [esp+0x18]     
0000000000000585 4c               dec esp                 
0000000000000586 8b6c2420         mov ebp, [esp+0x20]     
000000000000058a 4c               dec esp                 
000000000000058b 8b742428         mov esi, [esp+0x28]     
000000000000058f 4c               dec esp                 
0000000000000590 8b7c2430         mov edi, [esp+0x30]     
0000000000000594 48               dec eax                 
0000000000000595 83c438           add esp, 0x38           
0000000000000598 c3               ret                     
0000000000000599 0f1f8000000000   nop [eax+0x0]           
00000000000005a0 f3c3             rep ret                 
00000000000005a2 6690             nop                     
00000000000005a4 48               dec eax                 
00000000000005a5 83ec08           sub esp, 0x8            
00000000000005a8 48               dec eax                 
00000000000005a9 83c408           add esp, 0x8            
00000000000005ac c3               ret                     
00000000000005ad 0000             add [eax], al           
00000000000005af 0001             add [ecx], al           
00000000000005b1 0002             add [edx], al           
00000000000005b3 0000             add [eax], al           
00000000000005b5 0000             add [eax], al           
00000000000005b7 0000             add [eax], al           
00000000000005b9 0000             add [eax], al           
00000000000005bb 0000             add [eax], al           
00000000000005bd 0000             add [eax], al           
00000000000005bf 004865           add [eax+0x65], cl      
00000000000005c2 6c               insb                    
00000000000005c3 6c               insb                    
00000000000005c4 6f               outsd                   
00000000000005c5 2c20             sub al, 0x20            
00000000000005c7 57               push edi                
00000000000005c8 6f               outsd                   
00000000000005c9 726c             jb 0x637                
00000000000005cb 642100           and [fs:eax], eax       
00000000000005ce 0000             add [eax], al           
00000000000005d0 011b             add [ebx], ebx          
00000000000005d2 033b             add edi, [ebx]          
00000000000005d4 2c00             sub al, 0x0             
00000000000005d6 0000             add [eax], al           
00000000000005d8 0400             add al, 0x0             
00000000000005da 0000             add [eax], al           
00000000000005dc d0fd             sar ch, 1               
00000000000005de ffff             invalid                 
00000000000005e0 48               dec eax                 
00000000000005e1 0000             add [eax], al           
00000000000005e3 000cff           add [edi+edi*8], cl     
00000000000005e6 ffff             invalid                 
00000000000005e8 7000             jo 0x5ea                
00000000000005ea 0000             add [eax], al           
00000000000005ec 40               inc eax                 
00000000000005ed ffff             invalid                 
00000000000005ef ff90000000d0     call dword [eax+0xd0000000]
00000000000005f5 ffff             invalid                 
00000000000005f7 ffb8             invalid                 
00000000000005f9 0000             add [eax], al           
00000000000005fb 0000             add [eax], al           
00000000000005fd 0000             add [eax], al           
00000000000005ff 001400           add [eax+eax], dl       
0000000000000602 0000             add [eax], al           
0000000000000604 0000             add [eax], al           
0000000000000606 0000             add [eax], al           
0000000000000608 017a52           add [edx+0x52], edi     
000000000000060b 0001             add [ecx], al           
000000000000060d 7810             js 0x61f                
000000000000060f 011b             add [ebx], ebx          
0000000000000611 0c07             or al, 0x7              
0000000000000613 089001000024     or [eax+0x24000001], dl 
0000000000000619 0000             add [eax], al           
000000000000061b 001c00           add [eax+eax], bl       
000000000000061e 0000             add [eax], al           
0000000000000620 80fdff           cmp ch, 0xff            
0000000000000623 ff30             push dword [eax]        
0000000000000625 0000             add [eax], al           
0000000000000627 0000             add [eax], al           
0000000000000629 0e               push cs                 
000000000000062a 10460e           adc [esi+0xe], al       
000000000000062d 184a0f           sbb [edx+0xf], cl       
0000000000000630 0b7708           or esi, [edi+0x8]       
0000000000000633 80003f           add byte [eax], 0x3f    
0000000000000636 1a3b             sbb bh, [ebx]           
0000000000000638 2a33             sub dh, [ebx]           
000000000000063a 2422             and al, 0x22            
000000000000063c 0000             add [eax], al           
000000000000063e 0000             add [eax], al           
0000000000000640 1c00             sbb al, 0x0             
0000000000000642 0000             add [eax], al           
0000000000000644 44               inc esp                 
0000000000000645 0000             add [eax], al           
0000000000000647 0094feffff2500   add [esi+edi*8+0x25ffff], dl
000000000000064e 0000             add [eax], al           
0000000000000650 00410e           add [ecx+0xe], al       
0000000000000653 108602430d06     adc [esi+0x60d4302], al 
0000000000000659 60               pushad                  
000000000000065a 0c07             or al, 0x7              
000000000000065c 0800             or [eax], al            
000000000000065e 0000             add [eax], al           
0000000000000660 2400             and al, 0x0             
0000000000000662 0000             add [eax], al           
0000000000000664 640000           add [fs:eax], al        
0000000000000667 00a8feffff89     add [eax+0x89fffffe], ch
000000000000066d 0000             add [eax], al           
000000000000066f 0000             add [eax], al           
0000000000000671 4a               dec edx                 
0000000000000672 8606             xchg [esi], al          
0000000000000674 8c05660e4083     mov [0x83400e66], es    
000000000000067a 07               pop es                  
000000000000067b 8d048e           lea eax, [esi+ecx*4]    
000000000000067e 038f0202580e     add ecx, [edi+0xe580202]
0000000000000684 0800             or [eax], al            
0000000000000686 0000             add [eax], al           
0000000000000688 1400             adc al, 0x0             
000000000000068a 0000             add [eax], al           
000000000000068c 8c00             mov [eax], es           
000000000000068e 0000             add [eax], al           
0000000000000690 10ff             adc bh, bh              
0000000000000692 ffff             invalid                 
0000000000000694 0200             add al, [eax]           
0000000000000696 0000             add [eax], al           
0000000000000698 0000             add [eax], al           
000000000000069a 0000             add [eax], al           
000000000000069c 0000             add [eax], al           
000000000000069e 0000             add [eax], al           
00000000000006a0 0000             add [eax], al           
00000000000006a2 0000             add [eax], al           
00000000000006a4 0000             add [eax], al           
00000000000006a6 0000             add [eax], al           
00000000000006a8 b004             mov al, 0x4             
00000000000006aa 40               inc eax                 
00000000000006ab 0000             add [eax], al           
00000000000006ad 0000             add [eax], al           
00000000000006af 009004400000     add [eax+0x4004], dl    
00000000000006b5 0000             add [eax], al           
00000000000006b7 0000             add [eax], al           
00000000000006b9 0000             add [eax], al           
00000000000006bb 0000             add [eax], al           
00000000000006bd 0000             add [eax], al           
00000000000006bf 0001             add [ecx], al           
00000000000006c1 0000             add [eax], al           
00000000000006c3 0000             add [eax], al           
00000000000006c5 0000             add [eax], al           
00000000000006c7 0010             add [eax], dl           
00000000000006c9 0000             add [eax], al           
00000000000006cb 0000             add [eax], al           
00000000000006cd 0000             add [eax], al           
00000000000006cf 000c00           add [eax+eax], cl       
00000000000006d2 0000             add [eax], al           
00000000000006d4 0000             add [eax], al           
00000000000006d6 0000             add [eax], al           
00000000000006d8 90               nop                     
00000000000006d9 034000           add eax, [eax+0x0]      
00000000000006dc 0000             add [eax], al           
00000000000006de 0000             add [eax], al           
00000000000006e0 0d00000000       or eax, 0x0             
00000000000006e5 0000             add [eax], al           
00000000000006e7 00a40540000000   add [ebp+eax+0x40], ah  
00000000000006ee 0000             add [eax], al           
00000000000006f0 1900             sbb [eax], eax          
00000000000006f2 0000             add [eax], al           
00000000000006f4 0000             add [eax], al           
00000000000006f6 0000             add [eax], al           
00000000000006f8 a806             test al, 0x6            
00000000000006fa 60               pushad                  
00000000000006fb 0000             add [eax], al           
00000000000006fd 0000             add [eax], al           
00000000000006ff 001b             add [ebx], bl           
0000000000000701 0000             add [eax], al           
0000000000000703 0000             add [eax], al           
0000000000000705 0000             add [eax], al           
0000000000000707 0008             add [eax], cl           
0000000000000709 0000             add [eax], al           
000000000000070b 0000             add [eax], al           
000000000000070d 0000             add [eax], al           
000000000000070f 001a             add [edx], bl           
0000000000000711 0000             add [eax], al           
0000000000000713 0000             add [eax], al           
0000000000000715 0000             add [eax], al           
0000000000000717 00b006600000     add [eax+0x6006], dh    
000000000000071d 0000             add [eax], al           
000000000000071f 001c00           add [eax+eax], bl       
0000000000000722 0000             add [eax], al           
0000000000000724 0000             add [eax], al           
0000000000000726 0000             add [eax], al           
0000000000000728 0800             or [eax], al            
000000000000072a 0000             add [eax], al           
000000000000072c 0000             add [eax], al           
000000000000072e 0000             add [eax], al           
0000000000000730 f5               cmc                     
0000000000000731 feff             invalid                 
0000000000000733 6f               outsd                   
0000000000000734 0000             add [eax], al           
0000000000000736 0000             add [eax], al           
0000000000000738 60               pushad                  
0000000000000739 024000           add al, [eax+0x0]       
000000000000073c 0000             add [eax], al           
000000000000073e 0000             add [eax], al           
0000000000000740 0500000000       add eax, 0x0            
0000000000000745 0000             add [eax], al           
0000000000000747 00e0             add al, ah              
0000000000000749 024000           add al, [eax+0x0]       
000000000000074c 0000             add [eax], al           
000000000000074e 0000             add [eax], al           
0000000000000750 06               push es                 
0000000000000751 0000             add [eax], al           
0000000000000753 0000             add [eax], al           
0000000000000755 0000             add [eax], al           
0000000000000757 008002400000     add [eax+0x4002], al    
000000000000075d 0000             add [eax], al           
000000000000075f 000a             add [edx], cl           
0000000000000761 0000             add [eax], al           
0000000000000763 0000             add [eax], al           
0000000000000765 0000             add [eax], al           
0000000000000767 003f             add [edi], bh           
0000000000000769 0000             add [eax], al           
000000000000076b 0000             add [eax], al           
000000000000076d 0000             add [eax], al           
000000000000076f 000b             add [ebx], cl           
0000000000000771 0000             add [eax], al           
0000000000000773 0000             add [eax], al           
0000000000000775 0000             add [eax], al           
0000000000000777 0018             add [eax], bl           
0000000000000779 0000             add [eax], al           
000000000000077b 0000             add [eax], al           
000000000000077d 0000             add [eax], al           
000000000000077f 001500000000     add [0x0], dl           
0000000000000785 0000             add [eax], al           
0000000000000787 0000             add [eax], al           
0000000000000789 0000             add [eax], al           
000000000000078b 0000             add [eax], al           
000000000000078d 0000             add [eax], al           
000000000000078f 0003             add [ebx], al           
0000000000000791 0000             add [eax], al           
0000000000000793 0000             add [eax], al           
0000000000000795 0000             add [eax], al           
0000000000000797 009808600000     add [eax+0x6008], bl    
000000000000079d 0000             add [eax], al           
000000000000079f 0002             add [edx], al           
00000000000007a1 0000             add [eax], al           
00000000000007a3 0000             add [eax], al           
00000000000007a5 0000             add [eax], al           
00000000000007a7 0030             add [eax], dh           
00000000000007a9 0000             add [eax], al           
00000000000007ab 0000             add [eax], al           
00000000000007ad 0000             add [eax], al           
00000000000007af 001400           add [eax+eax], dl       
00000000000007b2 0000             add [eax], al           
00000000000007b4 0000             add [eax], al           
00000000000007b6 0000             add [eax], al           
00000000000007b8 07               pop es                  
00000000000007b9 0000             add [eax], al           
00000000000007bb 0000             add [eax], al           
00000000000007bd 0000             add [eax], al           
00000000000007bf 0017             add [edi], dl           
00000000000007c1 0000             add [eax], al           
00000000000007c3 0000             add [eax], al           
00000000000007c5 0000             add [eax], al           
00000000000007c7 006003           add [eax+0x3], ah       
00000000000007ca 40               inc eax                 
00000000000007cb 0000             add [eax], al           
00000000000007cd 0000             add [eax], al           
00000000000007cf 0007             add [edi], al           
00000000000007d1 0000             add [eax], al           
00000000000007d3 0000             add [eax], al           
00000000000007d5 0000             add [eax], al           
00000000000007d7 004803           add [eax+0x3], cl       
00000000000007da 40               inc eax                 
00000000000007db 0000             add [eax], al           
00000000000007dd 0000             add [eax], al           
00000000000007df 0008             add [eax], cl           
00000000000007e1 0000             add [eax], al           
00000000000007e3 0000             add [eax], al           
00000000000007e5 0000             add [eax], al           
00000000000007e7 0018             add [eax], bl           
00000000000007e9 0000             add [eax], al           
00000000000007eb 0000             add [eax], al           
00000000000007ed 0000             add [eax], al           
00000000000007ef 0009             add [ecx], cl           
00000000000007f1 0000             add [eax], al           
00000000000007f3 0000             add [eax], al           
00000000000007f5 0000             add [eax], al           
00000000000007f7 0018             add [eax], bl           
00000000000007f9 0000             add [eax], al           
00000000000007fb 0000             add [eax], al           
00000000000007fd 0000             add [eax], al           
00000000000007ff 00fe             add dh, bh              
0000000000000801 ffff             invalid                 
0000000000000803 6f               outsd                   
0000000000000804 0000             add [eax], al           
0000000000000806 0000             add [eax], al           
0000000000000808 2803             sub [ebx], al           
000000000000080a 40               inc eax                 
000000000000080b 0000             add [eax], al           
000000000000080d 0000             add [eax], al           
000000000000080f 00ff             add bh, bh              
0000000000000811 ffff             invalid                 
0000000000000813 6f               outsd                   
0000000000000814 0000             add [eax], al           
0000000000000816 0000             add [eax], al           
0000000000000818 0100             add [eax], eax          
000000000000081a 0000             add [eax], al           
000000000000081c 0000             add [eax], al           
000000000000081e 0000             add [eax], al           
0000000000000820 f0ffff           lock invalid            
0000000000000823 6f               outsd                   
0000000000000824 0000             add [eax], al           
0000000000000826 0000             add [eax], al           
0000000000000828 2003             and [ebx], al           
000000000000082a 40               inc eax                 
000000000000082b 0000             add [eax], al           
000000000000082d 0000             add [eax], al           
000000000000082f 0000             add [eax], al           
0000000000000831 0000             add [eax], al           
0000000000000833 0000             add [eax], al           
0000000000000835 0000             add [eax], al           
0000000000000837 0000             add [eax], al           
0000000000000839 0000             add [eax], al           
000000000000083b 0000             add [eax], al           
000000000000083d 0000             add [eax], al           
000000000000083f 0000             add [eax], al           
0000000000000841 0000             add [eax], al           
0000000000000843 0000             add [eax], al           
0000000000000845 0000             add [eax], al           
0000000000000847 0000             add [eax], al           
0000000000000849 0000             add [eax], al           
000000000000084b 0000             add [eax], al           
000000000000084d 0000             add [eax], al           
000000000000084f 0000             add [eax], al           
0000000000000851 0000             add [eax], al           
0000000000000853 0000             add [eax], al           
0000000000000855 0000             add [eax], al           
0000000000000857 0000             add [eax], al           
0000000000000859 0000             add [eax], al           
000000000000085b 0000             add [eax], al           
000000000000085d 0000             add [eax], al           
000000000000085f 0000             add [eax], al           
0000000000000861 0000             add [eax], al           
0000000000000863 0000             add [eax], al           
0000000000000865 0000             add [eax], al           
0000000000000867 0000             add [eax], al           
0000000000000869 0000             add [eax], al           
000000000000086b 0000             add [eax], al           
000000000000086d 0000             add [eax], al           
000000000000086f 0000             add [eax], al           
0000000000000871 0000             add [eax], al           
0000000000000873 0000             add [eax], al           
0000000000000875 0000             add [eax], al           
0000000000000877 0000             add [eax], al           
0000000000000879 0000             add [eax], al           
000000000000087b 0000             add [eax], al           
000000000000087d 0000             add [eax], al           
000000000000087f 0000             add [eax], al           
0000000000000881 0000             add [eax], al           
0000000000000883 0000             add [eax], al           
0000000000000885 0000             add [eax], al           
0000000000000887 0000             add [eax], al           
0000000000000889 0000             add [eax], al           
000000000000088b 0000             add [eax], al           
000000000000088d 0000             add [eax], al           
000000000000088f 0000             add [eax], al           
0000000000000891 0000             add [eax], al           
0000000000000893 0000             add [eax], al           
0000000000000895 0000             add [eax], al           
0000000000000897 00c0             add al, al              
0000000000000899 06               push es                 
000000000000089a 60               pushad                  
000000000000089b 0000             add [eax], al           
000000000000089d 0000             add [eax], al           
000000000000089f 0000             add [eax], al           
00000000000008a1 0000             add [eax], al           
00000000000008a3 0000             add [eax], al           
00000000000008a5 0000             add [eax], al           
00000000000008a7 0000             add [eax], al           
00000000000008a9 0000             add [eax], al           
00000000000008ab 0000             add [eax], al           
00000000000008ad 0000             add [eax], al           
00000000000008af 00b603400000     add [esi+0x4003], dh    
00000000000008b5 0000             add [eax], al           
00000000000008b7 00c6             add dh, al              
00000000000008b9 034000           add eax, [eax+0x0]      
00000000000008bc 0000             add [eax], al           
00000000000008be 0000             add [eax], al           
00000000000008c0 0000             add [eax], al           
00000000000008c2 0000             add [eax], al           
00000000000008c4 47               inc edi                 
00000000000008c5 43               inc ebx                 
00000000000008c6 43               inc ebx                 
00000000000008c7 3a20             cmp ah, [eax]           
00000000000008c9 28474e           sub [edi+0x4e], al      
00000000000008cc 55               push ebp                
00000000000008cd 2920             sub [eax], esp          
00000000000008cf 342e             xor al, 0x2e            
00000000000008d1 37               aaa                     
00000000000008d2 2e3220           xor ah, [cs:eax]        
00000000000008d5 3230             xor dh, [eax]           
00000000000008d7 3132             xor [edx], esi          
00000000000008d9 3039             xor [ecx], bh           
00000000000008db 3231             xor dh, [ecx]           
00000000000008dd 2028             and [eax], ch           
00000000000008df 52               push edx                
00000000000008e0 6564204861       and [fs:eax+0x61], cl   
00000000000008e5 7420             jz 0x907                
00000000000008e7 342e             xor al, 0x2e            
00000000000008e9 37               aaa                     
00000000000008ea 2e322d32290000   xor ch, [cs:0x2932]     
00000000000008f1 2e7379           jae 0x96d               
00000000000008f4 6d               insd                    
00000000000008f5 7461             jz 0x958                
00000000000008f7 6200             bound eax, [eax]        
00000000000008f9 2e7374           jae 0x970               
00000000000008fc 7274             jb 0x972                
00000000000008fe 61               popad                   
00000000000008ff 6200             bound eax, [eax]        
0000000000000901 2e7368           jae 0x96c               
0000000000000904 7374             jae 0x97a               
0000000000000906 7274             jb 0x97c                
0000000000000908 61               popad                   
0000000000000909 6200             bound eax, [eax]        
000000000000090b 2e696e7465727000 imul ebp, [cs:esi+0x74], 0x707265
0000000000000913 2e6e             outsb                   
0000000000000915 6f               outsd                   
0000000000000916 7465             jz 0x97d                
0000000000000918 2e41             inc ecx                 
000000000000091a 42               inc edx                 
000000000000091b 49               dec ecx                 
000000000000091c 2d74616700       sub eax, 0x676174       
0000000000000921 2e6e             outsb                   
0000000000000923 6f               outsd                   
0000000000000924 7465             jz 0x98b                
0000000000000926 2e676e           a16 outsb               
0000000000000929 752e             jnz 0x959               
000000000000092b 627569           bound esi, [ebp+0x69]   
000000000000092e 6c               insb                    
000000000000092f 642d6964002e     sub eax, 0x2e006469     
0000000000000935 676e             a16 outsb               
0000000000000937 752e             jnz 0x967               
0000000000000939 6861736800       push dword 0x687361     
000000000000093e 2e64796e         jns 0x9b0               
0000000000000942 7379             jae 0x9bd               
0000000000000944 6d               insd                    
0000000000000945 002e             add [esi], ch           
0000000000000947 64796e           jns 0x9b8               
000000000000094a 7374             jae 0x9c0               
000000000000094c 7200             jb 0x94e                
000000000000094e 2e676e           a16 outsb               
0000000000000951 752e             jnz 0x981               
0000000000000953 7665             jbe 0x9ba               
0000000000000955 7273             jb 0x9ca                
0000000000000957 696f6e002e676e   imul ebp, [edi+0x6e], 0x6e672e00
000000000000095e 752e             jnz 0x98e               
0000000000000960 7665             jbe 0x9c7               
0000000000000962 7273             jb 0x9d7                
0000000000000964 696f6e5f72002e   imul ebp, [edi+0x6e], 0x2e00725f
000000000000096b 7265             jb 0x9d2                
000000000000096d 6c               insb                    
000000000000096e 61               popad                   
000000000000096f 2e64796e         jns 0x9e1               
0000000000000973 002e             add [esi], ch           
0000000000000975 7265             jb 0x9dc                
0000000000000977 6c               insb                    
0000000000000978 61               popad                   
0000000000000979 2e706c           jo 0x9e8                
000000000000097c 7400             jz 0x97e                
000000000000097e 2e696e6974002e74 imul ebp, [cs:esi+0x69], 0x742e0074
0000000000000986 657874           js 0x9fd                
0000000000000989 002e             add [esi], ch           
000000000000098b 66696e69002e     imul bp, [esi+0x69], 0x2e00
0000000000000991 726f             jb 0xa02                
0000000000000993 6461             popad                   
0000000000000995 7461             jz 0x9f8                
0000000000000997 002e             add [esi], ch           
0000000000000999 65685f667261     push dword 0x6172665f   
000000000000099f 6d               insd                    
00000000000009a0 655f             pop edi                 
00000000000009a2 686472002e       push dword 0x2e007264   
00000000000009a7 65685f667261     push dword 0x6172665f   
00000000000009ad 6d               insd                    
00000000000009ae 65002e           add [gs:esi], ch        
00000000000009b1 696e69745f6172   imul ebp, [esi+0x69], 0x72615f74
00000000000009b8 7261             jb 0xa1b                
00000000000009ba 7900             jns 0x9bc               
00000000000009bc 2e66696e695f61   imul bp, [cs:esi+0x69], 0x615f
00000000000009c3 7272             jb 0xa37                
00000000000009c5 61               popad                   
00000000000009c6 7900             jns 0x9c8               
00000000000009c8 2e6a63           push 0x63               
00000000000009cb 7200             jb 0x9cd                
00000000000009cd 2e64796e         jns 0xa3f               
00000000000009d1 61               popad                   
00000000000009d2 6d               insd                    
00000000000009d3 6963002e676f74   imul esp, [ebx+0x0], 0x746f672e
00000000000009da 002e             add [esi], ch           
00000000000009dc 676f             a16 outsd               
00000000000009de 742e             jz 0xa0e                
00000000000009e0 706c             jo 0xa4e                
00000000000009e2 7400             jz 0x9e4                
00000000000009e4 2e6461           popad                   
00000000000009e7 7461             jz 0xa4a                
00000000000009e9 002e             add [esi], ch           
00000000000009eb 627373           bound esi, [ebx+0x73]   
00000000000009ee 002e             add [esi], ch           
00000000000009f0 636f6d           arpl [edi+0x6d], bp     
00000000000009f3 6d               insd                    
00000000000009f4 656e             outsb                   
00000000000009f6 7400             jz 0x9f8                
00000000000009f8 0000             add [eax], al           
00000000000009fa 0000             add [eax], al           
00000000000009fc 0000             add [eax], al           
00000000000009fe 0000             add [eax], al           
0000000000000a00 0000             add [eax], al           
0000000000000a02 0000             add [eax], al           
0000000000000a04 0000             add [eax], al           
0000000000000a06 0000             add [eax], al           
0000000000000a08 0000             add [eax], al           
0000000000000a0a 0000             add [eax], al           
0000000000000a0c 0000             add [eax], al           
0000000000000a0e 0000             add [eax], al           
0000000000000a10 0000             add [eax], al           
0000000000000a12 0000             add [eax], al           
0000000000000a14 0000             add [eax], al           
0000000000000a16 0000             add [eax], al           
0000000000000a18 0000             add [eax], al           
0000000000000a1a 0000             add [eax], al           
0000000000000a1c 0000             add [eax], al           
0000000000000a1e 0000             add [eax], al           
0000000000000a20 0000             add [eax], al           
0000000000000a22 0000             add [eax], al           
0000000000000a24 0000             add [eax], al           
0000000000000a26 0000             add [eax], al           
0000000000000a28 0000             add [eax], al           
0000000000000a2a 0000             add [eax], al           
0000000000000a2c 0000             add [eax], al           
0000000000000a2e 0000             add [eax], al           
0000000000000a30 0000             add [eax], al           
0000000000000a32 0000             add [eax], al           
0000000000000a34 0000             add [eax], al           
0000000000000a36 0000             add [eax], al           
0000000000000a38 1b00             sbb eax, [eax]          
0000000000000a3a 0000             add [eax], al           
0000000000000a3c 0100             add [eax], eax          
0000000000000a3e 0000             add [eax], al           
0000000000000a40 0200             add al, [eax]           
0000000000000a42 0000             add [eax], al           
0000000000000a44 0000             add [eax], al           
0000000000000a46 0000             add [eax], al           
0000000000000a48 0002             add [edx], al           
0000000000000a4a 40               inc eax                 
0000000000000a4b 0000             add [eax], al           
0000000000000a4d 0000             add [eax], al           
0000000000000a4f 0000             add [eax], al           
0000000000000a51 0200             add al, [eax]           
0000000000000a53 0000             add [eax], al           
0000000000000a55 0000             add [eax], al           
0000000000000a57 001c00           add [eax+eax], bl       
0000000000000a5a 0000             add [eax], al           
0000000000000a5c 0000             add [eax], al           
0000000000000a5e 0000             add [eax], al           
0000000000000a60 0000             add [eax], al           
0000000000000a62 0000             add [eax], al           
0000000000000a64 0000             add [eax], al           
0000000000000a66 0000             add [eax], al           
0000000000000a68 0100             add [eax], eax          
0000000000000a6a 0000             add [eax], al           
0000000000000a6c 0000             add [eax], al           
0000000000000a6e 0000             add [eax], al           
0000000000000a70 0000             add [eax], al           
0000000000000a72 0000             add [eax], al           
0000000000000a74 0000             add [eax], al           
0000000000000a76 0000             add [eax], al           
0000000000000a78 2300             and eax, [eax]          
0000000000000a7a 0000             add [eax], al           
0000000000000a7c 07               pop es                  
0000000000000a7d 0000             add [eax], al           
0000000000000a7f 0002             add [edx], al           
0000000000000a81 0000             add [eax], al           
0000000000000a83 0000             add [eax], al           
0000000000000a85 0000             add [eax], al           
0000000000000a87 001c02           add [edx+eax], bl       
0000000000000a8a 40               inc eax                 
0000000000000a8b 0000             add [eax], al           
0000000000000a8d 0000             add [eax], al           
0000000000000a8f 001c02           add [edx+eax], bl       
0000000000000a92 0000             add [eax], al           
0000000000000a94 0000             add [eax], al           
0000000000000a96 0000             add [eax], al           
0000000000000a98 2000             and [eax], al           
0000000000000a9a 0000             add [eax], al           
0000000000000a9c 0000             add [eax], al           
0000000000000a9e 0000             add [eax], al           
0000000000000aa0 0000             add [eax], al           
0000000000000aa2 0000             add [eax], al           
0000000000000aa4 0000             add [eax], al           
0000000000000aa6 0000             add [eax], al           
0000000000000aa8 0400             add al, 0x0             
0000000000000aaa 0000             add [eax], al           
0000000000000aac 0000             add [eax], al           
0000000000000aae 0000             add [eax], al           
0000000000000ab0 0000             add [eax], al           
0000000000000ab2 0000             add [eax], al           
0000000000000ab4 0000             add [eax], al           
0000000000000ab6 0000             add [eax], al           
0000000000000ab8 3100             xor [eax], eax          
0000000000000aba 0000             add [eax], al           
0000000000000abc 07               pop es                  
0000000000000abd 0000             add [eax], al           
0000000000000abf 0002             add [edx], al           
0000000000000ac1 0000             add [eax], al           
0000000000000ac3 0000             add [eax], al           
0000000000000ac5 0000             add [eax], al           
0000000000000ac7 003c02           add [edx+eax], bh       
0000000000000aca 40               inc eax                 
0000000000000acb 0000             add [eax], al           
0000000000000acd 0000             add [eax], al           
0000000000000acf 003c02           add [edx+eax], bh       
0000000000000ad2 0000             add [eax], al           
0000000000000ad4 0000             add [eax], al           
0000000000000ad6 0000             add [eax], al           
0000000000000ad8 2400             and al, 0x0             
0000000000000ada 0000             add [eax], al           
0000000000000adc 0000             add [eax], al           
0000000000000ade 0000             add [eax], al           
0000000000000ae0 0000             add [eax], al           
0000000000000ae2 0000             add [eax], al           
0000000000000ae4 0000             add [eax], al           
0000000000000ae6 0000             add [eax], al           
0000000000000ae8 0400             add al, 0x0             
0000000000000aea 0000             add [eax], al           
0000000000000aec 0000             add [eax], al           
0000000000000aee 0000             add [eax], al           
0000000000000af0 0000             add [eax], al           
0000000000000af2 0000             add [eax], al           
0000000000000af4 0000             add [eax], al           
0000000000000af6 0000             add [eax], al           
0000000000000af8 44               inc esp                 
0000000000000af9 0000             add [eax], al           
0000000000000afb 00f6             add dh, dh              
0000000000000afd ffff             invalid                 
0000000000000aff 6f               outsd                   
0000000000000b00 0200             add al, [eax]           
0000000000000b02 0000             add [eax], al           
0000000000000b04 0000             add [eax], al           
0000000000000b06 0000             add [eax], al           
0000000000000b08 60               pushad                  
0000000000000b09 024000           add al, [eax+0x0]       
0000000000000b0c 0000             add [eax], al           
0000000000000b0e 0000             add [eax], al           
0000000000000b10 60               pushad                  
0000000000000b11 0200             add al, [eax]           
0000000000000b13 0000             add [eax], al           
0000000000000b15 0000             add [eax], al           
0000000000000b17 001c00           add [eax+eax], bl       
0000000000000b1a 0000             add [eax], al           
0000000000000b1c 0000             add [eax], al           
0000000000000b1e 0000             add [eax], al           
0000000000000b20 0500000000       add eax, 0x0            
0000000000000b25 0000             add [eax], al           
0000000000000b27 0008             add [eax], cl           
0000000000000b29 0000             add [eax], al           
0000000000000b2b 0000             add [eax], al           
0000000000000b2d 0000             add [eax], al           
0000000000000b2f 0000             add [eax], al           
0000000000000b31 0000             add [eax], al           
0000000000000b33 0000             add [eax], al           
0000000000000b35 0000             add [eax], al           
0000000000000b37 004e00           add [esi+0x0], cl       
0000000000000b3a 0000             add [eax], al           
0000000000000b3c 0b00             or eax, [eax]           
0000000000000b3e 0000             add [eax], al           
0000000000000b40 0200             add al, [eax]           
0000000000000b42 0000             add [eax], al           
0000000000000b44 0000             add [eax], al           
0000000000000b46 0000             add [eax], al           
0000000000000b48 800240           add byte [edx], 0x40    
0000000000000b4b 0000             add [eax], al           
0000000000000b4d 0000             add [eax], al           
0000000000000b4f 008002000000     add [eax+0x2], al       
0000000000000b55 0000             add [eax], al           
0000000000000b57 006000           add [eax+0x0], ah       
0000000000000b5a 0000             add [eax], al           
0000000000000b5c 0000             add [eax], al           
0000000000000b5e 0000             add [eax], al           
0000000000000b60 06               push es                 
0000000000000b61 0000             add [eax], al           
0000000000000b63 0001             add [ecx], al           
0000000000000b65 0000             add [eax], al           
0000000000000b67 0008             add [eax], cl           
0000000000000b69 0000             add [eax], al           
0000000000000b6b 0000             add [eax], al           
0000000000000b6d 0000             add [eax], al           
0000000000000b6f 0018             add [eax], bl           
0000000000000b71 0000             add [eax], al           
0000000000000b73 0000             add [eax], al           
0000000000000b75 0000             add [eax], al           
0000000000000b77 005600           add [esi+0x0], dl       
0000000000000b7a 0000             add [eax], al           
0000000000000b7c 0300             add eax, [eax]          
0000000000000b7e 0000             add [eax], al           
0000000000000b80 0200             add al, [eax]           
0000000000000b82 0000             add [eax], al           
0000000000000b84 0000             add [eax], al           
0000000000000b86 0000             add [eax], al           
0000000000000b88 e002             loopnz 0xb8c            
0000000000000b8a 40               inc eax                 
0000000000000b8b 0000             add [eax], al           
0000000000000b8d 0000             add [eax], al           
0000000000000b8f 00e0             add al, ah              
0000000000000b91 0200             add al, [eax]           
0000000000000b93 0000             add [eax], al           
0000000000000b95 0000             add [eax], al           
0000000000000b97 003f             add [edi], bh           
0000000000000b99 0000             add [eax], al           
0000000000000b9b 0000             add [eax], al           
0000000000000b9d 0000             add [eax], al           
0000000000000b9f 0000             add [eax], al           
0000000000000ba1 0000             add [eax], al           
0000000000000ba3 0000             add [eax], al           
0000000000000ba5 0000             add [eax], al           
0000000000000ba7 0001             add [ecx], al           
0000000000000ba9 0000             add [eax], al           
0000000000000bab 0000             add [eax], al           
0000000000000bad 0000             add [eax], al           
0000000000000baf 0000             add [eax], al           
0000000000000bb1 0000             add [eax], al           
0000000000000bb3 0000             add [eax], al           
0000000000000bb5 0000             add [eax], al           
0000000000000bb7 005e00           add [esi+0x0], bl       
0000000000000bba 0000             add [eax], al           
0000000000000bbc ffff             invalid                 
0000000000000bbe ff6f02           jmp dword far [edi+0x2] 
0000000000000bc1 0000             add [eax], al           
0000000000000bc3 0000             add [eax], al           
0000000000000bc5 0000             add [eax], al           
0000000000000bc7 0020             add [eax], ah           
0000000000000bc9 034000           add eax, [eax+0x0]      
0000000000000bcc 0000             add [eax], al           
0000000000000bce 0000             add [eax], al           
0000000000000bd0 2003             and [ebx], al           
0000000000000bd2 0000             add [eax], al           
0000000000000bd4 0000             add [eax], al           
0000000000000bd6 0000             add [eax], al           
0000000000000bd8 0800             or [eax], al            
0000000000000bda 0000             add [eax], al           
0000000000000bdc 0000             add [eax], al           
0000000000000bde 0000             add [eax], al           
0000000000000be0 0500000000       add eax, 0x0            
0000000000000be5 0000             add [eax], al           
0000000000000be7 0002             add [edx], al           
0000000000000be9 0000             add [eax], al           
0000000000000beb 0000             add [eax], al           
0000000000000bed 0000             add [eax], al           
0000000000000bef 0002             add [edx], al           
0000000000000bf1 0000             add [eax], al           
0000000000000bf3 0000             add [eax], al           
0000000000000bf5 0000             add [eax], al           
0000000000000bf7 006b00           add [ebx+0x0], ch       
0000000000000bfa 0000             add [eax], al           
0000000000000bfc feff             invalid                 
0000000000000bfe ff6f02           jmp dword far [edi+0x2] 
0000000000000c01 0000             add [eax], al           
0000000000000c03 0000             add [eax], al           
0000000000000c05 0000             add [eax], al           
0000000000000c07 0028             add [eax], ch           
0000000000000c09 034000           add eax, [eax+0x0]      
0000000000000c0c 0000             add [eax], al           
0000000000000c0e 0000             add [eax], al           
0000000000000c10 2803             sub [ebx], al           
0000000000000c12 0000             add [eax], al           
0000000000000c14 0000             add [eax], al           
0000000000000c16 0000             add [eax], al           
0000000000000c18 2000             and [eax], al           
0000000000000c1a 0000             add [eax], al           
0000000000000c1c 0000             add [eax], al           
0000000000000c1e 0000             add [eax], al           
0000000000000c20 06               push es                 
0000000000000c21 0000             add [eax], al           
0000000000000c23 0001             add [ecx], al           
0000000000000c25 0000             add [eax], al           
0000000000000c27 0008             add [eax], cl           
0000000000000c29 0000             add [eax], al           
0000000000000c2b 0000             add [eax], al           
0000000000000c2d 0000             add [eax], al           
0000000000000c2f 0000             add [eax], al           
0000000000000c31 0000             add [eax], al           
0000000000000c33 0000             add [eax], al           
0000000000000c35 0000             add [eax], al           
0000000000000c37 007a00           add [edx+0x0], bh       
0000000000000c3a 0000             add [eax], al           
0000000000000c3c 0400             add al, 0x0             
0000000000000c3e 0000             add [eax], al           
0000000000000c40 0200             add al, [eax]           
0000000000000c42 0000             add [eax], al           
0000000000000c44 0000             add [eax], al           
0000000000000c46 0000             add [eax], al           
0000000000000c48 48               dec eax                 
0000000000000c49 034000           add eax, [eax+0x0]      
0000000000000c4c 0000             add [eax], al           
0000000000000c4e 0000             add [eax], al           
0000000000000c50 48               dec eax                 
0000000000000c51 0300             add eax, [eax]          
0000000000000c53 0000             add [eax], al           
0000000000000c55 0000             add [eax], al           
0000000000000c57 0018             add [eax], bl           
0000000000000c59 0000             add [eax], al           
0000000000000c5b 0000             add [eax], al           
0000000000000c5d 0000             add [eax], al           
0000000000000c5f 000500000000     add [0x0], al           
0000000000000c65 0000             add [eax], al           
0000000000000c67 0008             add [eax], cl           
0000000000000c69 0000             add [eax], al           
0000000000000c6b 0000             add [eax], al           
0000000000000c6d 0000             add [eax], al           
0000000000000c6f 0018             add [eax], bl           
0000000000000c71 0000             add [eax], al           
0000000000000c73 0000             add [eax], al           
0000000000000c75 0000             add [eax], al           
0000000000000c77 00840000000400   add [eax+eax+0x40000], al
0000000000000c7e 0000             add [eax], al           
0000000000000c80 0200             add al, [eax]           
0000000000000c82 0000             add [eax], al           
0000000000000c84 0000             add [eax], al           
0000000000000c86 0000             add [eax], al           
0000000000000c88 60               pushad                  
0000000000000c89 034000           add eax, [eax+0x0]      
0000000000000c8c 0000             add [eax], al           
0000000000000c8e 0000             add [eax], al           
0000000000000c90 60               pushad                  
0000000000000c91 0300             add eax, [eax]          
0000000000000c93 0000             add [eax], al           
0000000000000c95 0000             add [eax], al           
0000000000000c97 0030             add [eax], dh           
0000000000000c99 0000             add [eax], al           
0000000000000c9b 0000             add [eax], al           
0000000000000c9d 0000             add [eax], al           
0000000000000c9f 00050000000c     add [0xc000000], al     
0000000000000ca5 0000             add [eax], al           
0000000000000ca7 0008             add [eax], cl           
0000000000000ca9 0000             add [eax], al           
0000000000000cab 0000             add [eax], al           
0000000000000cad 0000             add [eax], al           
0000000000000caf 0018             add [eax], bl           
0000000000000cb1 0000             add [eax], al           
0000000000000cb3 0000             add [eax], al           
0000000000000cb5 0000             add [eax], al           
0000000000000cb7 008e00000001     add [esi+0x1000000], cl 
0000000000000cbd 0000             add [eax], al           
0000000000000cbf 0006             add [esi], al           
0000000000000cc1 0000             add [eax], al           
0000000000000cc3 0000             add [eax], al           
0000000000000cc5 0000             add [eax], al           
0000000000000cc7 009003400000     add [eax+0x4003], dl    
0000000000000ccd 0000             add [eax], al           
0000000000000ccf 009003000000     add [eax+0x3], dl       
0000000000000cd5 0000             add [eax], al           
0000000000000cd7 000e             add [esi], cl           
0000000000000cd9 0000             add [eax], al           
0000000000000cdb 0000             add [eax], al           
0000000000000cdd 0000             add [eax], al           
0000000000000cdf 0000             add [eax], al           
0000000000000ce1 0000             add [eax], al           
0000000000000ce3 0000             add [eax], al           
0000000000000ce5 0000             add [eax], al           
0000000000000ce7 000400           add [eax+eax], al       
0000000000000cea 0000             add [eax], al           
0000000000000cec 0000             add [eax], al           
0000000000000cee 0000             add [eax], al           
0000000000000cf0 0000             add [eax], al           
0000000000000cf2 0000             add [eax], al           
0000000000000cf4 0000             add [eax], al           
0000000000000cf6 0000             add [eax], al           
0000000000000cf8 8900             mov [eax], eax          
0000000000000cfa 0000             add [eax], al           
0000000000000cfc 0100             add [eax], eax          
0000000000000cfe 0000             add [eax], al           
0000000000000d00 06               push es                 
0000000000000d01 0000             add [eax], al           
0000000000000d03 0000             add [eax], al           
0000000000000d05 0000             add [eax], al           
0000000000000d07 00a003400000     add [eax+0x4003], ah    
0000000000000d0d 0000             add [eax], al           
0000000000000d0f 00a003000000     add [eax+0x3], ah       
0000000000000d15 0000             add [eax], al           
0000000000000d17 0030             add [eax], dh           
0000000000000d19 0000             add [eax], al           
0000000000000d1b 0000             add [eax], al           
0000000000000d1d 0000             add [eax], al           
0000000000000d1f 0000             add [eax], al           
0000000000000d21 0000             add [eax], al           
0000000000000d23 0000             add [eax], al           
0000000000000d25 0000             add [eax], al           
0000000000000d27 0010             add [eax], dl           
0000000000000d29 0000             add [eax], al           
0000000000000d2b 0000             add [eax], al           
0000000000000d2d 0000             add [eax], al           
0000000000000d2f 0010             add [eax], dl           
0000000000000d31 0000             add [eax], al           
0000000000000d33 0000             add [eax], al           
0000000000000d35 0000             add [eax], al           
0000000000000d37 00940000000100   add [eax+eax+0x10000], dl
0000000000000d3e 0000             add [eax], al           
0000000000000d40 06               push es                 
0000000000000d41 0000             add [eax], al           
0000000000000d43 0000             add [eax], al           
0000000000000d45 0000             add [eax], al           
0000000000000d47 00d0             add al, dl              
0000000000000d49 034000           add eax, [eax+0x0]      
0000000000000d4c 0000             add [eax], al           
0000000000000d4e 0000             add [eax], al           
0000000000000d50 d003             rol byte [ebx], 1       
0000000000000d52 0000             add [eax], al           
0000000000000d54 0000             add [eax], al           
0000000000000d56 0000             add [eax], al           
0000000000000d58 d401             aam 0x1                 
0000000000000d5a 0000             add [eax], al           
0000000000000d5c 0000             add [eax], al           
0000000000000d5e 0000             add [eax], al           
0000000000000d60 0000             add [eax], al           
0000000000000d62 0000             add [eax], al           
0000000000000d64 0000             add [eax], al           
0000000000000d66 0000             add [eax], al           
0000000000000d68 1000             adc [eax], al           
0000000000000d6a 0000             add [eax], al           
0000000000000d6c 0000             add [eax], al           
0000000000000d6e 0000             add [eax], al           
0000000000000d70 0000             add [eax], al           
0000000000000d72 0000             add [eax], al           
0000000000000d74 0000             add [eax], al           
0000000000000d76 0000             add [eax], al           
0000000000000d78 9a000000010000   call dword 0x0:0x1000000
0000000000000d7f 0006             add [esi], al           
0000000000000d81 0000             add [eax], al           
0000000000000d83 0000             add [eax], al           
0000000000000d85 0000             add [eax], al           
0000000000000d87 00a40540000000   add [ebp+eax+0x40], ah  
0000000000000d8e 0000             add [eax], al           
0000000000000d90 a4               movsb                   
0000000000000d91 0500000000       add eax, 0x0            
0000000000000d96 0000             add [eax], al           
0000000000000d98 0900             or [eax], eax           
0000000000000d9a 0000             add [eax], al           
0000000000000d9c 0000             add [eax], al           
0000000000000d9e 0000             add [eax], al           
0000000000000da0 0000             add [eax], al           
0000000000000da2 0000             add [eax], al           
0000000000000da4 0000             add [eax], al           
0000000000000da6 0000             add [eax], al           
0000000000000da8 0400             add al, 0x0             
0000000000000daa 0000             add [eax], al           
0000000000000dac 0000             add [eax], al           
0000000000000dae 0000             add [eax], al           
0000000000000db0 0000             add [eax], al           
0000000000000db2 0000             add [eax], al           
0000000000000db4 0000             add [eax], al           
0000000000000db6 0000             add [eax], al           
0000000000000db8 a000000001       mov al, [0x1000000]     
0000000000000dbd 0000             add [eax], al           
0000000000000dbf 0002             add [edx], al           
0000000000000dc1 0000             add [eax], al           
0000000000000dc3 0000             add [eax], al           
0000000000000dc5 0000             add [eax], al           
0000000000000dc7 00b005400000     add [eax+0x4005], dh    
0000000000000dcd 0000             add [eax], al           
0000000000000dcf 00b005000000     add [eax+0x5], dh       
0000000000000dd5 0000             add [eax], al           
0000000000000dd7 001e             add [esi], bl           
0000000000000dd9 0000             add [eax], al           
0000000000000ddb 0000             add [eax], al           
0000000000000ddd 0000             add [eax], al           
0000000000000ddf 0000             add [eax], al           
0000000000000de1 0000             add [eax], al           
0000000000000de3 0000             add [eax], al           
0000000000000de5 0000             add [eax], al           
0000000000000de7 0008             add [eax], cl           
0000000000000de9 0000             add [eax], al           
0000000000000deb 0000             add [eax], al           
0000000000000ded 0000             add [eax], al           
0000000000000def 0000             add [eax], al           
0000000000000df1 0000             add [eax], al           
0000000000000df3 0000             add [eax], al           
0000000000000df5 0000             add [eax], al           
0000000000000df7 00a800000001     add [eax+0x1000000], ch 
0000000000000dfd 0000             add [eax], al           
0000000000000dff 0002             add [edx], al           
0000000000000e01 0000             add [eax], al           
0000000000000e03 0000             add [eax], al           
0000000000000e05 0000             add [eax], al           
0000000000000e07 00d0             add al, dl              
0000000000000e09 0540000000       add eax, 0x40           
0000000000000e0e 0000             add [eax], al           
0000000000000e10 d00500000000     rol byte [0x0], 1       
0000000000000e16 0000             add [eax], al           
0000000000000e18 2c00             sub al, 0x0             
0000000000000e1a 0000             add [eax], al           
0000000000000e1c 0000             add [eax], al           
0000000000000e1e 0000             add [eax], al           
0000000000000e20 0000             add [eax], al           
0000000000000e22 0000             add [eax], al           
0000000000000e24 0000             add [eax], al           
0000000000000e26 0000             add [eax], al           
0000000000000e28 0400             add al, 0x0             
0000000000000e2a 0000             add [eax], al           
0000000000000e2c 0000             add [eax], al           
0000000000000e2e 0000             add [eax], al           
0000000000000e30 0000             add [eax], al           
0000000000000e32 0000             add [eax], al           
0000000000000e34 0000             add [eax], al           
0000000000000e36 0000             add [eax], al           
0000000000000e38 b600             mov dh, 0x0             
0000000000000e3a 0000             add [eax], al           
0000000000000e3c 0100             add [eax], eax          
0000000000000e3e 0000             add [eax], al           
0000000000000e40 0200             add al, [eax]           
0000000000000e42 0000             add [eax], al           
0000000000000e44 0000             add [eax], al           
0000000000000e46 0000             add [eax], al           
0000000000000e48 0006             add [esi], al           
0000000000000e4a 40               inc eax                 
0000000000000e4b 0000             add [eax], al           
0000000000000e4d 0000             add [eax], al           
0000000000000e4f 0000             add [eax], al           
0000000000000e51 06               push es                 
0000000000000e52 0000             add [eax], al           
0000000000000e54 0000             add [eax], al           
0000000000000e56 0000             add [eax], al           
0000000000000e58 a4               movsb                   
0000000000000e59 0000             add [eax], al           
0000000000000e5b 0000             add [eax], al           
0000000000000e5d 0000             add [eax], al           
0000000000000e5f 0000             add [eax], al           
0000000000000e61 0000             add [eax], al           
0000000000000e63 0000             add [eax], al           
0000000000000e65 0000             add [eax], al           
0000000000000e67 0008             add [eax], cl           
0000000000000e69 0000             add [eax], al           
0000000000000e6b 0000             add [eax], al           
0000000000000e6d 0000             add [eax], al           
0000000000000e6f 0000             add [eax], al           
0000000000000e71 0000             add [eax], al           
0000000000000e73 0000             add [eax], al           
0000000000000e75 0000             add [eax], al           
0000000000000e77 00c0             add al, al              
0000000000000e79 0000             add [eax], al           
0000000000000e7b 000e             add [esi], cl           
0000000000000e7d 0000             add [eax], al           
0000000000000e7f 0003             add [ebx], al           
0000000000000e81 0000             add [eax], al           
0000000000000e83 0000             add [eax], al           
0000000000000e85 0000             add [eax], al           
0000000000000e87 00a806600000     add [eax+0x6006], ch    
0000000000000e8d 0000             add [eax], al           
0000000000000e8f 00a806000000     add [eax+0x6], ch       
0000000000000e95 0000             add [eax], al           
0000000000000e97 0008             add [eax], cl           
0000000000000e99 0000             add [eax], al           
0000000000000e9b 0000             add [eax], al           
0000000000000e9d 0000             add [eax], al           
0000000000000e9f 0000             add [eax], al           
0000000000000ea1 0000             add [eax], al           
0000000000000ea3 0000             add [eax], al           
0000000000000ea5 0000             add [eax], al           
0000000000000ea7 0008             add [eax], cl           
0000000000000ea9 0000             add [eax], al           
0000000000000eab 0000             add [eax], al           
0000000000000ead 0000             add [eax], al           
0000000000000eaf 0000             add [eax], al           
0000000000000eb1 0000             add [eax], al           
0000000000000eb3 0000             add [eax], al           
0000000000000eb5 0000             add [eax], al           
0000000000000eb7 00cc             add ah, cl              
0000000000000eb9 0000             add [eax], al           
0000000000000ebb 000f             add [edi], cl           
0000000000000ebd 0000             add [eax], al           
0000000000000ebf 0003             add [ebx], al           
0000000000000ec1 0000             add [eax], al           
0000000000000ec3 0000             add [eax], al           
0000000000000ec5 0000             add [eax], al           
0000000000000ec7 00b006600000     add [eax+0x6006], dh    
0000000000000ecd 0000             add [eax], al           
0000000000000ecf 00b006000000     add [eax+0x6], dh       
0000000000000ed5 0000             add [eax], al           
0000000000000ed7 0008             add [eax], cl           
0000000000000ed9 0000             add [eax], al           
0000000000000edb 0000             add [eax], al           
0000000000000edd 0000             add [eax], al           
0000000000000edf 0000             add [eax], al           
0000000000000ee1 0000             add [eax], al           
0000000000000ee3 0000             add [eax], al           
0000000000000ee5 0000             add [eax], al           
0000000000000ee7 0008             add [eax], cl           
0000000000000ee9 0000             add [eax], al           
0000000000000eeb 0000             add [eax], al           
0000000000000eed 0000             add [eax], al           
0000000000000eef 0000             add [eax], al           
0000000000000ef1 0000             add [eax], al           
0000000000000ef3 0000             add [eax], al           
0000000000000ef5 0000             add [eax], al           
0000000000000ef7 00d8             add al, bl              
0000000000000ef9 0000             add [eax], al           
0000000000000efb 0001             add [ecx], al           
0000000000000efd 0000             add [eax], al           
0000000000000eff 0003             add [ebx], al           
0000000000000f01 0000             add [eax], al           
0000000000000f03 0000             add [eax], al           
0000000000000f05 0000             add [eax], al           
0000000000000f07 00b806600000     add [eax+0x6006], bh    
0000000000000f0d 0000             add [eax], al           
0000000000000f0f 00b806000000     add [eax+0x6], bh       
0000000000000f15 0000             add [eax], al           
0000000000000f17 0008             add [eax], cl           
0000000000000f19 0000             add [eax], al           
0000000000000f1b 0000             add [eax], al           
0000000000000f1d 0000             add [eax], al           
0000000000000f1f 0000             add [eax], al           
0000000000000f21 0000             add [eax], al           
0000000000000f23 0000             add [eax], al           
0000000000000f25 0000             add [eax], al           
0000000000000f27 0008             add [eax], cl           
0000000000000f29 0000             add [eax], al           
0000000000000f2b 0000             add [eax], al           
0000000000000f2d 0000             add [eax], al           
0000000000000f2f 0000             add [eax], al           
0000000000000f31 0000             add [eax], al           
0000000000000f33 0000             add [eax], al           
0000000000000f35 0000             add [eax], al           
0000000000000f37 00dd             add ch, bl              
0000000000000f39 0000             add [eax], al           
0000000000000f3b 0006             add [esi], al           
0000000000000f3d 0000             add [eax], al           
0000000000000f3f 0003             add [ebx], al           
0000000000000f41 0000             add [eax], al           
0000000000000f43 0000             add [eax], al           
0000000000000f45 0000             add [eax], al           
0000000000000f47 00c0             add al, al              
0000000000000f49 06               push es                 
0000000000000f4a 60               pushad                  
0000000000000f4b 0000             add [eax], al           
0000000000000f4d 0000             add [eax], al           
0000000000000f4f 00c0             add al, al              
0000000000000f51 06               push es                 
0000000000000f52 0000             add [eax], al           
0000000000000f54 0000             add [eax], al           
0000000000000f56 0000             add [eax], al           
0000000000000f58 d001             rol byte [ecx], 1       
0000000000000f5a 0000             add [eax], al           
0000000000000f5c 0000             add [eax], al           
0000000000000f5e 0000             add [eax], al           
0000000000000f60 06               push es                 
0000000000000f61 0000             add [eax], al           
0000000000000f63 0000             add [eax], al           
0000000000000f65 0000             add [eax], al           
0000000000000f67 0008             add [eax], cl           
0000000000000f69 0000             add [eax], al           
0000000000000f6b 0000             add [eax], al           
0000000000000f6d 0000             add [eax], al           
0000000000000f6f 0010             add [eax], dl           
0000000000000f71 0000             add [eax], al           
0000000000000f73 0000             add [eax], al           
0000000000000f75 0000             add [eax], al           
0000000000000f77 00e6             add dh, ah              
0000000000000f79 0000             add [eax], al           
0000000000000f7b 0001             add [ecx], al           
0000000000000f7d 0000             add [eax], al           
0000000000000f7f 0003             add [ebx], al           
0000000000000f81 0000             add [eax], al           
0000000000000f83 0000             add [eax], al           
0000000000000f85 0000             add [eax], al           
0000000000000f87 009008600000     add [eax+0x6008], dl    
0000000000000f8d 0000             add [eax], al           
0000000000000f8f 009008000000     add [eax+0x8], dl       
0000000000000f95 0000             add [eax], al           
0000000000000f97 0008             add [eax], cl           
0000000000000f99 0000             add [eax], al           
0000000000000f9b 0000             add [eax], al           
0000000000000f9d 0000             add [eax], al           
0000000000000f9f 0000             add [eax], al           
0000000000000fa1 0000             add [eax], al           
0000000000000fa3 0000             add [eax], al           
0000000000000fa5 0000             add [eax], al           
0000000000000fa7 0008             add [eax], cl           
0000000000000fa9 0000             add [eax], al           
0000000000000fab 0000             add [eax], al           
0000000000000fad 0000             add [eax], al           
0000000000000faf 0008             add [eax], cl           
0000000000000fb1 0000             add [eax], al           
0000000000000fb3 0000             add [eax], al           
0000000000000fb5 0000             add [eax], al           
0000000000000fb7 00eb             add bl, ch              
0000000000000fb9 0000             add [eax], al           
0000000000000fbb 0001             add [ecx], al           
0000000000000fbd 0000             add [eax], al           
0000000000000fbf 0003             add [ebx], al           
0000000000000fc1 0000             add [eax], al           
0000000000000fc3 0000             add [eax], al           
0000000000000fc5 0000             add [eax], al           
0000000000000fc7 009808600000     add [eax+0x6008], bl    
0000000000000fcd 0000             add [eax], al           
0000000000000fcf 009808000000     add [eax+0x8], bl       
0000000000000fd5 0000             add [eax], al           
0000000000000fd7 0028             add [eax], ch           
0000000000000fd9 0000             add [eax], al           
0000000000000fdb 0000             add [eax], al           
0000000000000fdd 0000             add [eax], al           
0000000000000fdf 0000             add [eax], al           
0000000000000fe1 0000             add [eax], al           
0000000000000fe3 0000             add [eax], al           
0000000000000fe5 0000             add [eax], al           
0000000000000fe7 0008             add [eax], cl           
0000000000000fe9 0000             add [eax], al           
0000000000000feb 0000             add [eax], al           
0000000000000fed 0000             add [eax], al           
0000000000000fef 0008             add [eax], cl           
0000000000000ff1 0000             add [eax], al           
0000000000000ff3 0000             add [eax], al           
0000000000000ff5 0000             add [eax], al           
0000000000000ff7 00f4             add ah, dh              
0000000000000ff9 0000             add [eax], al           
0000000000000ffb 0001             add [ecx], al           
0000000000000ffd 0000             add [eax], al           
0000000000000fff 0003             add [ebx], al           
0000000000001001 0000             add [eax], al           
0000000000001003 0000             add [eax], al           
0000000000001005 0000             add [eax], al           
0000000000001007 00c0             add al, al              
0000000000001009 086000           or [eax+0x0], ah        
000000000000100c 0000             add [eax], al           
000000000000100e 0000             add [eax], al           
0000000000001010 c00800           ror byte [eax], 0x0     
0000000000001013 0000             add [eax], al           
0000000000001015 0000             add [eax], al           
0000000000001017 000400           add [eax+eax], al       
000000000000101a 0000             add [eax], al           
000000000000101c 0000             add [eax], al           
000000000000101e 0000             add [eax], al           
0000000000001020 0000             add [eax], al           
0000000000001022 0000             add [eax], al           
0000000000001024 0000             add [eax], al           
0000000000001026 0000             add [eax], al           
0000000000001028 0400             add al, 0x0             
000000000000102a 0000             add [eax], al           
000000000000102c 0000             add [eax], al           
000000000000102e 0000             add [eax], al           
0000000000001030 0000             add [eax], al           
0000000000001032 0000             add [eax], al           
0000000000001034 0000             add [eax], al           
0000000000001036 0000             add [eax], al           
0000000000001038 fa               cli                     
0000000000001039 0000             add [eax], al           
000000000000103b 0008             add [eax], cl           
000000000000103d 0000             add [eax], al           
000000000000103f 0003             add [ebx], al           
0000000000001041 0000             add [eax], al           
0000000000001043 0000             add [eax], al           
0000000000001045 0000             add [eax], al           
0000000000001047 00c4             add ah, al              
0000000000001049 086000           or [eax+0x0], ah        
000000000000104c 0000             add [eax], al           
000000000000104e 0000             add [eax], al           
0000000000001050 c408             les ecx, [eax]          
0000000000001052 0000             add [eax], al           
0000000000001054 0000             add [eax], al           
0000000000001056 0000             add [eax], al           
0000000000001058 0400             add al, 0x0             
000000000000105a 0000             add [eax], al           
000000000000105c 0000             add [eax], al           
000000000000105e 0000             add [eax], al           
0000000000001060 0000             add [eax], al           
0000000000001062 0000             add [eax], al           
0000000000001064 0000             add [eax], al           
0000000000001066 0000             add [eax], al           
0000000000001068 0400             add al, 0x0             
000000000000106a 0000             add [eax], al           
000000000000106c 0000             add [eax], al           
000000000000106e 0000             add [eax], al           
0000000000001070 0000             add [eax], al           
0000000000001072 0000             add [eax], al           
0000000000001074 0000             add [eax], al           
0000000000001076 0000             add [eax], al           
0000000000001078 ff00             inc dword [eax]         
000000000000107a 0000             add [eax], al           
000000000000107c 0100             add [eax], eax          
000000000000107e 0000             add [eax], al           
0000000000001080 3000             xor [eax], al           
0000000000001082 0000             add [eax], al           
0000000000001084 0000             add [eax], al           
0000000000001086 0000             add [eax], al           
0000000000001088 0000             add [eax], al           
000000000000108a 0000             add [eax], al           
000000000000108c 0000             add [eax], al           
000000000000108e 0000             add [eax], al           
0000000000001090 c408             les ecx, [eax]          
0000000000001092 0000             add [eax], al           
0000000000001094 0000             add [eax], al           
0000000000001096 0000             add [eax], al           
0000000000001098 2c00             sub al, 0x0             
000000000000109a 0000             add [eax], al           
000000000000109c 0000             add [eax], al           
000000000000109e 0000             add [eax], al           
00000000000010a0 0000             add [eax], al           
00000000000010a2 0000             add [eax], al           
00000000000010a4 0000             add [eax], al           
00000000000010a6 0000             add [eax], al           
00000000000010a8 0100             add [eax], eax          
00000000000010aa 0000             add [eax], al           
00000000000010ac 0000             add [eax], al           
00000000000010ae 0000             add [eax], al           
00000000000010b0 0100             add [eax], eax          
00000000000010b2 0000             add [eax], al           
00000000000010b4 0000             add [eax], al           
00000000000010b6 0000             add [eax], al           
00000000000010b8 1100             adc [eax], eax          
00000000000010ba 0000             add [eax], al           
00000000000010bc 0300             add eax, [eax]          
00000000000010be 0000             add [eax], al           
00000000000010c0 0000             add [eax], al           
00000000000010c2 0000             add [eax], al           
00000000000010c4 0000             add [eax], al           
00000000000010c6 0000             add [eax], al           
00000000000010c8 0000             add [eax], al           
00000000000010ca 0000             add [eax], al           
00000000000010cc 0000             add [eax], al           
00000000000010ce 0000             add [eax], al           
00000000000010d0 f00800           lock or [eax], al       
00000000000010d3 0000             add [eax], al           
00000000000010d5 0000             add [eax], al           
00000000000010d7 0008             add [eax], cl           
00000000000010d9 0100             add [eax], eax          
00000000000010db 0000             add [eax], al           
00000000000010dd 0000             add [eax], al           
00000000000010df 0000             add [eax], al           
00000000000010e1 0000             add [eax], al           
00000000000010e3 0000             add [eax], al           
00000000000010e5 0000             add [eax], al           
00000000000010e7 0001             add [ecx], al           
00000000000010e9 0000             add [eax], al           
00000000000010eb 0000             add [eax], al           
00000000000010ed 0000             add [eax], al           
00000000000010ef 0000             add [eax], al           
00000000000010f1 0000             add [eax], al           
00000000000010f3 0000             add [eax], al           
00000000000010f5 0000             add [eax], al           
00000000000010f7 0001             add [ecx], al           
00000000000010f9 0000             add [eax], al           
00000000000010fb 0002             add [edx], al           
00000000000010fd 0000             add [eax], al           
00000000000010ff 0000             add [eax], al           
0000000000001101 0000             add [eax], al           
0000000000001103 0000             add [eax], al           
0000000000001105 0000             add [eax], al           
0000000000001107 0000             add [eax], al           
0000000000001109 0000             add [eax], al           
000000000000110b 0000             add [eax], al           
000000000000110d 0000             add [eax], al           
000000000000110f 007811           add [eax+0x11], bh      
0000000000001112 0000             add [eax], al           
0000000000001114 0000             add [eax], al           
0000000000001116 0000             add [eax], al           
0000000000001118 1806             sbb [esi], al           
000000000000111a 0000             add [eax], al           
000000000000111c 0000             add [eax], al           
000000000000111e 0000             add [eax], al           
0000000000001120 1d0000002d       sbb eax, 0x2d000000     
0000000000001125 0000             add [eax], al           
0000000000001127 0008             add [eax], cl           
0000000000001129 0000             add [eax], al           
000000000000112b 0000             add [eax], al           
000000000000112d 0000             add [eax], al           
000000000000112f 0018             add [eax], bl           
0000000000001131 0000             add [eax], al           
0000000000001133 0000             add [eax], al           
0000000000001135 0000             add [eax], al           
0000000000001137 0009             add [ecx], cl           
0000000000001139 0000             add [eax], al           
000000000000113b 0003             add [ebx], al           
000000000000113d 0000             add [eax], al           
000000000000113f 0000             add [eax], al           
0000000000001141 0000             add [eax], al           
0000000000001143 0000             add [eax], al           
0000000000001145 0000             add [eax], al           
0000000000001147 0000             add [eax], al           
0000000000001149 0000             add [eax], al           
000000000000114b 0000             add [eax], al           
000000000000114d 0000             add [eax], al           
000000000000114f 009017000000     add [eax+0x17], dl      
0000000000001155 0000             add [eax], al           
0000000000001157 004902           add [ecx+0x2], cl       
000000000000115a 0000             add [eax], al           
000000000000115c 0000             add [eax], al           
000000000000115e 0000             add [eax], al           
0000000000001160 0000             add [eax], al           
0000000000001162 0000             add [eax], al           
0000000000001164 0000             add [eax], al           
0000000000001166 0000             add [eax], al           
0000000000001168 0100             add [eax], eax          
000000000000116a 0000             add [eax], al           
000000000000116c 0000             add [eax], al           
000000000000116e 0000             add [eax], al           
0000000000001170 0000             add [eax], al           
0000000000001172 0000             add [eax], al           
0000000000001174 0000             add [eax], al           
0000000000001176 0000             add [eax], al           
0000000000001178 0000             add [eax], al           
000000000000117a 0000             add [eax], al           
000000000000117c 0000             add [eax], al           
000000000000117e 0000             add [eax], al           
0000000000001180 0000             add [eax], al           
0000000000001182 0000             add [eax], al           
0000000000001184 0000             add [eax], al           
0000000000001186 0000             add [eax], al           
0000000000001188 0000             add [eax], al           
000000000000118a 0000             add [eax], al           
000000000000118c 0000             add [eax], al           
000000000000118e 0000             add [eax], al           
0000000000001190 0000             add [eax], al           
0000000000001192 0000             add [eax], al           
0000000000001194 0300             add eax, [eax]          
0000000000001196 0100             add [eax], eax          
0000000000001198 0002             add [edx], al           
000000000000119a 40               inc eax                 
000000000000119b 0000             add [eax], al           
000000000000119d 0000             add [eax], al           
000000000000119f 0000             add [eax], al           
00000000000011a1 0000             add [eax], al           
00000000000011a3 0000             add [eax], al           
00000000000011a5 0000             add [eax], al           
00000000000011a7 0000             add [eax], al           
00000000000011a9 0000             add [eax], al           
00000000000011ab 0003             add [ebx], al           
00000000000011ad 0002             add [edx], al           
00000000000011af 001c02           add [edx+eax], bl       
00000000000011b2 40               inc eax                 
00000000000011b3 0000             add [eax], al           
00000000000011b5 0000             add [eax], al           
00000000000011b7 0000             add [eax], al           
00000000000011b9 0000             add [eax], al           
00000000000011bb 0000             add [eax], al           
00000000000011bd 0000             add [eax], al           
00000000000011bf 0000             add [eax], al           
00000000000011c1 0000             add [eax], al           
00000000000011c3 0003             add [ebx], al           
00000000000011c5 0003             add [ebx], al           
00000000000011c7 003c02           add [edx+eax], bh       
00000000000011ca 40               inc eax                 
00000000000011cb 0000             add [eax], al           
00000000000011cd 0000             add [eax], al           
00000000000011cf 0000             add [eax], al           
00000000000011d1 0000             add [eax], al           
00000000000011d3 0000             add [eax], al           
00000000000011d5 0000             add [eax], al           
00000000000011d7 0000             add [eax], al           
00000000000011d9 0000             add [eax], al           
00000000000011db 0003             add [ebx], al           
00000000000011dd 000400           add [eax+eax], al       
00000000000011e0 60               pushad                  
00000000000011e1 024000           add al, [eax+0x0]       
00000000000011e4 0000             add [eax], al           
00000000000011e6 0000             add [eax], al           
00000000000011e8 0000             add [eax], al           
00000000000011ea 0000             add [eax], al           
00000000000011ec 0000             add [eax], al           
00000000000011ee 0000             add [eax], al           
00000000000011f0 0000             add [eax], al           
00000000000011f2 0000             add [eax], al           
00000000000011f4 0300             add eax, [eax]          
00000000000011f6 0500800240       add eax, 0x40028000     
00000000000011fb 0000             add [eax], al           
00000000000011fd 0000             add [eax], al           
00000000000011ff 0000             add [eax], al           
0000000000001201 0000             add [eax], al           
0000000000001203 0000             add [eax], al           
0000000000001205 0000             add [eax], al           
0000000000001207 0000             add [eax], al           
0000000000001209 0000             add [eax], al           
000000000000120b 0003             add [ebx], al           
000000000000120d 0006             add [esi], al           
000000000000120f 00e0             add al, ah              
0000000000001211 024000           add al, [eax+0x0]       
0000000000001214 0000             add [eax], al           
0000000000001216 0000             add [eax], al           
0000000000001218 0000             add [eax], al           
000000000000121a 0000             add [eax], al           
000000000000121c 0000             add [eax], al           
000000000000121e 0000             add [eax], al           
0000000000001220 0000             add [eax], al           
0000000000001222 0000             add [eax], al           
0000000000001224 0300             add eax, [eax]          
0000000000001226 07               pop es                  
0000000000001227 0020             add [eax], ah           
0000000000001229 034000           add eax, [eax+0x0]      
000000000000122c 0000             add [eax], al           
000000000000122e 0000             add [eax], al           
0000000000001230 0000             add [eax], al           
0000000000001232 0000             add [eax], al           
0000000000001234 0000             add [eax], al           
0000000000001236 0000             add [eax], al           
0000000000001238 0000             add [eax], al           
000000000000123a 0000             add [eax], al           
000000000000123c 0300             add eax, [eax]          
000000000000123e 0800             or [eax], al            
0000000000001240 2803             sub [ebx], al           
0000000000001242 40               inc eax                 
0000000000001243 0000             add [eax], al           
0000000000001245 0000             add [eax], al           
0000000000001247 0000             add [eax], al           
0000000000001249 0000             add [eax], al           
000000000000124b 0000             add [eax], al           
000000000000124d 0000             add [eax], al           
000000000000124f 0000             add [eax], al           
0000000000001251 0000             add [eax], al           
0000000000001253 0003             add [ebx], al           
0000000000001255 0009             add [ecx], cl           
0000000000001257 004803           add [eax+0x3], cl       
000000000000125a 40               inc eax                 
000000000000125b 0000             add [eax], al           
000000000000125d 0000             add [eax], al           
000000000000125f 0000             add [eax], al           
0000000000001261 0000             add [eax], al           
0000000000001263 0000             add [eax], al           
0000000000001265 0000             add [eax], al           
0000000000001267 0000             add [eax], al           
0000000000001269 0000             add [eax], al           
000000000000126b 0003             add [ebx], al           
000000000000126d 000a             add [edx], cl           
000000000000126f 006003           add [eax+0x3], ah       
0000000000001272 40               inc eax                 
0000000000001273 0000             add [eax], al           
0000000000001275 0000             add [eax], al           
0000000000001277 0000             add [eax], al           
0000000000001279 0000             add [eax], al           
000000000000127b 0000             add [eax], al           
000000000000127d 0000             add [eax], al           
000000000000127f 0000             add [eax], al           
0000000000001281 0000             add [eax], al           
0000000000001283 0003             add [ebx], al           
0000000000001285 000b             add [ebx], cl           
0000000000001287 009003400000     add [eax+0x4003], dl    
000000000000128d 0000             add [eax], al           
000000000000128f 0000             add [eax], al           
0000000000001291 0000             add [eax], al           
0000000000001293 0000             add [eax], al           
0000000000001295 0000             add [eax], al           
0000000000001297 0000             add [eax], al           
0000000000001299 0000             add [eax], al           
000000000000129b 0003             add [ebx], al           
000000000000129d 000c00           add [eax+eax], cl       
00000000000012a0 a003400000       mov al, [0x4003]        
00000000000012a5 0000             add [eax], al           
00000000000012a7 0000             add [eax], al           
00000000000012a9 0000             add [eax], al           
00000000000012ab 0000             add [eax], al           
00000000000012ad 0000             add [eax], al           
00000000000012af 0000             add [eax], al           
00000000000012b1 0000             add [eax], al           
00000000000012b3 0003             add [ebx], al           
00000000000012b5 000d00d00340     add [0x4003d000], cl    
00000000000012bb 0000             add [eax], al           
00000000000012bd 0000             add [eax], al           
00000000000012bf 0000             add [eax], al           
00000000000012c1 0000             add [eax], al           
00000000000012c3 0000             add [eax], al           
00000000000012c5 0000             add [eax], al           
00000000000012c7 0000             add [eax], al           
00000000000012c9 0000             add [eax], al           
00000000000012cb 0003             add [ebx], al           
00000000000012cd 000e             add [esi], cl           
00000000000012cf 00a40540000000   add [ebp+eax+0x40], ah  
00000000000012d6 0000             add [eax], al           
00000000000012d8 0000             add [eax], al           
00000000000012da 0000             add [eax], al           
00000000000012dc 0000             add [eax], al           
00000000000012de 0000             add [eax], al           
00000000000012e0 0000             add [eax], al           
00000000000012e2 0000             add [eax], al           
00000000000012e4 0300             add eax, [eax]          
00000000000012e6 0f00b0           invalid                 
00000000000012e9 0540000000       add eax, 0x40           
00000000000012ee 0000             add [eax], al           
00000000000012f0 0000             add [eax], al           
00000000000012f2 0000             add [eax], al           
00000000000012f4 0000             add [eax], al           
00000000000012f6 0000             add [eax], al           
00000000000012f8 0000             add [eax], al           
00000000000012fa 0000             add [eax], al           
00000000000012fc 0300             add eax, [eax]          
00000000000012fe 1000             adc [eax], al           
0000000000001300 d00540000000     rol byte [0x40], 1      
0000000000001306 0000             add [eax], al           
0000000000001308 0000             add [eax], al           
000000000000130a 0000             add [eax], al           
000000000000130c 0000             add [eax], al           
000000000000130e 0000             add [eax], al           
0000000000001310 0000             add [eax], al           
0000000000001312 0000             add [eax], al           
0000000000001314 0300             add eax, [eax]          
0000000000001316 1100             adc [eax], eax          
0000000000001318 0006             add [esi], al           
000000000000131a 40               inc eax                 
000000000000131b 0000             add [eax], al           
000000000000131d 0000             add [eax], al           
000000000000131f 0000             add [eax], al           
0000000000001321 0000             add [eax], al           
0000000000001323 0000             add [eax], al           
0000000000001325 0000             add [eax], al           
0000000000001327 0000             add [eax], al           
0000000000001329 0000             add [eax], al           
000000000000132b 0003             add [ebx], al           
000000000000132d 0012             add [edx], dl           
000000000000132f 00a806600000     add [eax+0x6006], ch    
0000000000001335 0000             add [eax], al           
0000000000001337 0000             add [eax], al           
0000000000001339 0000             add [eax], al           
000000000000133b 0000             add [eax], al           
000000000000133d 0000             add [eax], al           
000000000000133f 0000             add [eax], al           
0000000000001341 0000             add [eax], al           
0000000000001343 0003             add [ebx], al           
0000000000001345 0013             add [ebx], dl           
0000000000001347 00b006600000     add [eax+0x6006], dh    
000000000000134d 0000             add [eax], al           
000000000000134f 0000             add [eax], al           
0000000000001351 0000             add [eax], al           
0000000000001353 0000             add [eax], al           
0000000000001355 0000             add [eax], al           
0000000000001357 0000             add [eax], al           
0000000000001359 0000             add [eax], al           
000000000000135b 0003             add [ebx], al           
000000000000135d 001400           add [eax+eax], dl       
0000000000001360 b806600000       mov eax, 0x6006         
0000000000001365 0000             add [eax], al           
0000000000001367 0000             add [eax], al           
0000000000001369 0000             add [eax], al           
000000000000136b 0000             add [eax], al           
000000000000136d 0000             add [eax], al           
000000000000136f 0000             add [eax], al           
0000000000001371 0000             add [eax], al           
0000000000001373 0003             add [ebx], al           
0000000000001375 001500c00660     add [0x6006c000], dl    
000000000000137b 0000             add [eax], al           
000000000000137d 0000             add [eax], al           
000000000000137f 0000             add [eax], al           
0000000000001381 0000             add [eax], al           
0000000000001383 0000             add [eax], al           
0000000000001385 0000             add [eax], al           
0000000000001387 0000             add [eax], al           
0000000000001389 0000             add [eax], al           
000000000000138b 0003             add [ebx], al           
000000000000138d 0016             add [esi], dl           
000000000000138f 009008600000     add [eax+0x6008], dl    
0000000000001395 0000             add [eax], al           
0000000000001397 0000             add [eax], al           
0000000000001399 0000             add [eax], al           
000000000000139b 0000             add [eax], al           
000000000000139d 0000             add [eax], al           
000000000000139f 0000             add [eax], al           
00000000000013a1 0000             add [eax], al           
00000000000013a3 0003             add [ebx], al           
00000000000013a5 0017             add [edi], dl           
00000000000013a7 009808600000     add [eax+0x6008], bl    
00000000000013ad 0000             add [eax], al           
00000000000013af 0000             add [eax], al           
00000000000013b1 0000             add [eax], al           
00000000000013b3 0000             add [eax], al           
00000000000013b5 0000             add [eax], al           
00000000000013b7 0000             add [eax], al           
00000000000013b9 0000             add [eax], al           
00000000000013bb 0003             add [ebx], al           
00000000000013bd 0018             add [eax], bl           
00000000000013bf 00c0             add al, al              
00000000000013c1 086000           or [eax+0x0], ah        
00000000000013c4 0000             add [eax], al           
00000000000013c6 0000             add [eax], al           
00000000000013c8 0000             add [eax], al           
00000000000013ca 0000             add [eax], al           
00000000000013cc 0000             add [eax], al           
00000000000013ce 0000             add [eax], al           
00000000000013d0 0000             add [eax], al           
00000000000013d2 0000             add [eax], al           
00000000000013d4 0300             add eax, [eax]          
00000000000013d6 1900             sbb [eax], eax          
00000000000013d8 c408             les ecx, [eax]          
00000000000013da 60               pushad                  
00000000000013db 0000             add [eax], al           
00000000000013dd 0000             add [eax], al           
00000000000013df 0000             add [eax], al           
00000000000013e1 0000             add [eax], al           
00000000000013e3 0000             add [eax], al           
00000000000013e5 0000             add [eax], al           
00000000000013e7 0000             add [eax], al           
00000000000013e9 0000             add [eax], al           
00000000000013eb 0003             add [ebx], al           
00000000000013ed 001a             add [edx], bl           
00000000000013ef 0000             add [eax], al           
00000000000013f1 0000             add [eax], al           
00000000000013f3 0000             add [eax], al           
00000000000013f5 0000             add [eax], al           
00000000000013f7 0000             add [eax], al           
00000000000013f9 0000             add [eax], al           
00000000000013fb 0000             add [eax], al           
00000000000013fd 0000             add [eax], al           
00000000000013ff 0001             add [ecx], al           
0000000000001401 0000             add [eax], al           
0000000000001403 0002             add [edx], al           
0000000000001405 000d00fc0340     add [0x4003fc00], cl    
000000000000140b 0000             add [eax], al           
000000000000140d 0000             add [eax], al           
000000000000140f 0000             add [eax], al           
0000000000001411 0000             add [eax], al           
0000000000001413 0000             add [eax], al           
0000000000001415 0000             add [eax], al           
0000000000001417 0011             add [ecx], dl           
0000000000001419 0000             add [eax], al           
000000000000141b 000400           add [eax+eax], al       
000000000000141e f1               int1                    
000000000000141f ff00             inc dword [eax]         
0000000000001421 0000             add [eax], al           
0000000000001423 0000             add [eax], al           
0000000000001425 0000             add [eax], al           
0000000000001427 0000             add [eax], al           
0000000000001429 0000             add [eax], al           
000000000000142b 0000             add [eax], al           
000000000000142d 0000             add [eax], al           
000000000000142f 001c00           add [eax+eax], bl       
0000000000001432 0000             add [eax], al           
0000000000001434 0100             add [eax], eax          
0000000000001436 1400             adc al, 0x0             
0000000000001438 b806600000       mov eax, 0x6006         
000000000000143d 0000             add [eax], al           
000000000000143f 0000             add [eax], al           
0000000000001441 0000             add [eax], al           
0000000000001443 0000             add [eax], al           
0000000000001445 0000             add [eax], al           
0000000000001447 0029             add [ecx], ch           
0000000000001449 0000             add [eax], al           
000000000000144b 0002             add [edx], al           
000000000000144d 000d00200440     add [0x40042000], cl    
0000000000001453 0000             add [eax], al           
0000000000001455 0000             add [eax], al           
0000000000001457 0000             add [eax], al           
0000000000001459 0000             add [eax], al           
000000000000145b 0000             add [eax], al           
000000000000145d 0000             add [eax], al           
000000000000145f 003e             add [esi], bh           
0000000000001461 0000             add [eax], al           
0000000000001463 0002             add [edx], al           
0000000000001465 000d00500440     add [0x40045000], cl    
000000000000146b 0000             add [eax], al           
000000000000146d 0000             add [eax], al           
000000000000146f 0000             add [eax], al           
0000000000001471 0000             add [eax], al           
0000000000001473 0000             add [eax], al           
0000000000001475 0000             add [eax], al           
0000000000001477 005100           add [ecx+0x0], dl       
000000000000147a 0000             add [eax], al           
000000000000147c 0200             add al, [eax]           
000000000000147e 0d00900440       or eax, 0x40049000      
0000000000001483 0000             add [eax], al           
0000000000001485 0000             add [eax], al           
0000000000001487 0000             add [eax], al           
0000000000001489 0000             add [eax], al           
000000000000148b 0000             add [eax], al           
000000000000148d 0000             add [eax], al           
000000000000148f 006700           add [edi+0x0], ah       
0000000000001492 0000             add [eax], al           
0000000000001494 0100             add [eax], eax          
0000000000001496 1900             sbb [eax], eax          
0000000000001498 c408             les ecx, [eax]          
000000000000149a 60               pushad                  
000000000000149b 0000             add [eax], al           
000000000000149d 0000             add [eax], al           
000000000000149f 0001             add [ecx], al           
00000000000014a1 0000             add [eax], al           
00000000000014a3 0000             add [eax], al           
00000000000014a5 0000             add [eax], al           
00000000000014a7 007600           add [esi+0x0], dh       
00000000000014aa 0000             add [eax], al           
00000000000014ac 0100             add [eax], eax          
00000000000014ae 1300             adc eax, [eax]          
00000000000014b0 b006             mov al, 0x6             
00000000000014b2 60               pushad                  
00000000000014b3 0000             add [eax], al           
00000000000014b5 0000             add [eax], al           
00000000000014b7 0000             add [eax], al           
00000000000014b9 0000             add [eax], al           
00000000000014bb 0000             add [eax], al           
00000000000014bd 0000             add [eax], al           
00000000000014bf 009d00000002     add [ebp+0x2000000], bl 
00000000000014c5 000d00b00440     add [0x4004b000], cl    
00000000000014cb 0000             add [eax], al           
00000000000014cd 0000             add [eax], al           
00000000000014cf 0000             add [eax], al           
00000000000014d1 0000             add [eax], al           
00000000000014d3 0000             add [eax], al           
00000000000014d5 0000             add [eax], al           
00000000000014d7 00a900000001     add [ecx+0x1000000], ch 
00000000000014dd 0012             add [edx], dl           
00000000000014df 00a806600000     add [eax+0x6006], ch    
00000000000014e5 0000             add [eax], al           
00000000000014e7 0000             add [eax], al           
00000000000014e9 0000             add [eax], al           
00000000000014eb 0000             add [eax], al           
00000000000014ed 0000             add [eax], al           
00000000000014ef 00c8             add al, cl              
00000000000014f1 0000             add [eax], al           
00000000000014f3 000400           add [eax+eax], al       
00000000000014f6 f1               int1                    
00000000000014f7 ff00             inc dword [eax]         
00000000000014f9 0000             add [eax], al           
00000000000014fb 0000             add [eax], al           
00000000000014fd 0000             add [eax], al           
00000000000014ff 0000             add [eax], al           
0000000000001501 0000             add [eax], al           
0000000000001503 0000             add [eax], al           
0000000000001505 0000             add [eax], al           
0000000000001507 0011             add [ecx], dl           
0000000000001509 0000             add [eax], al           
000000000000150b 000400           add [eax+eax], al       
000000000000150e f1               int1                    
000000000000150f ff00             inc dword [eax]         
0000000000001511 0000             add [eax], al           
0000000000001513 0000             add [eax], al           
0000000000001515 0000             add [eax], al           
0000000000001517 0000             add [eax], al           
0000000000001519 0000             add [eax], al           
000000000000151b 0000             add [eax], al           
000000000000151d 0000             add [eax], al           
000000000000151f 00d0             add al, dl              
0000000000001521 0000             add [eax], al           
0000000000001523 0001             add [ecx], al           
0000000000001525 0011             add [ecx], dl           
0000000000001527 00a006400000     add [eax+0x4006], ah    
000000000000152d 0000             add [eax], al           
000000000000152f 0000             add [eax], al           
0000000000001531 0000             add [eax], al           
0000000000001533 0000             add [eax], al           
0000000000001535 0000             add [eax], al           
0000000000001537 00de             add dh, bl              
0000000000001539 0000             add [eax], al           
000000000000153b 0001             add [ecx], al           
000000000000153d 001400           add [eax+eax], dl       
0000000000001540 b806600000       mov eax, 0x6006         
0000000000001545 0000             add [eax], al           
0000000000001547 0000             add [eax], al           
0000000000001549 0000             add [eax], al           
000000000000154b 0000             add [eax], al           
000000000000154d 0000             add [eax], al           
000000000000154f 00ea             add dl, ch              
0000000000001551 0000             add [eax], al           
0000000000001553 0000             add [eax], al           
0000000000001555 0012             add [edx], dl           
0000000000001557 00b006600000     add [eax+0x6006], dh    
000000000000155d 0000             add [eax], al           
000000000000155f 0000             add [eax], al           
0000000000001561 0000             add [eax], al           
0000000000001563 0000             add [eax], al           
0000000000001565 0000             add [eax], al           
0000000000001567 00fb             add bl, bh              
0000000000001569 0000             add [eax], al           
000000000000156b 0001             add [ecx], al           
000000000000156d 001500c00660     add [0x6006c000], dl    
0000000000001573 0000             add [eax], al           
0000000000001575 0000             add [eax], al           
0000000000001577 0000             add [eax], al           
0000000000001579 0000             add [eax], al           
000000000000157b 0000             add [eax], al           
000000000000157d 0000             add [eax], al           
000000000000157f 000401           add [ecx+eax], al       
0000000000001582 0000             add [eax], al           
0000000000001584 0000             add [eax], al           
0000000000001586 1200             adc al, [eax]           
0000000000001588 a806             test al, 0x6            
000000000000158a 60               pushad                  
000000000000158b 0000             add [eax], al           
000000000000158d 0000             add [eax], al           
000000000000158f 0000             add [eax], al           
0000000000001591 0000             add [eax], al           
0000000000001593 0000             add [eax], al           
0000000000001595 0000             add [eax], al           
0000000000001597 0017             add [edi], dl           
0000000000001599 0100             add [eax], eax          
000000000000159b 0001             add [ecx], al           
000000000000159d 0017             add [edi], dl           
000000000000159f 009808600000     add [eax+0x6008], bl    
00000000000015a5 0000             add [eax], al           
00000000000015a7 0000             add [eax], al           
00000000000015a9 0000             add [eax], al           
00000000000015ab 0000             add [eax], al           
00000000000015ad 0000             add [eax], al           
00000000000015af 002d01000012     add [0x12000001], ch    
00000000000015b5 000d00a00540     add [0x4005a000], cl    
00000000000015bb 0000             add [eax], al           
00000000000015bd 0000             add [eax], al           
00000000000015bf 0002             add [edx], al           
00000000000015c1 0000             add [eax], al           
00000000000015c3 0000             add [eax], al           
00000000000015c5 0000             add [eax], al           
00000000000015c7 003d01000020     add [0x20000001], bh    
00000000000015cd 0000             add [eax], al           
00000000000015cf 0000             add [eax], al           
00000000000015d1 0000             add [eax], al           
00000000000015d3 0000             add [eax], al           
00000000000015d5 0000             add [eax], al           
00000000000015d7 0000             add [eax], al           
00000000000015d9 0000             add [eax], al           
00000000000015db 0000             add [eax], al           
00000000000015dd 0000             add [eax], al           
00000000000015df 005901           add [ecx+0x1], bl       
00000000000015e2 0000             add [eax], al           
00000000000015e4 2000             and [eax], al           
00000000000015e6 1800             sbb [eax], al           
00000000000015e8 c00860           ror byte [eax], 0x60    
00000000000015eb 0000             add [eax], al           
00000000000015ed 0000             add [eax], al           
00000000000015ef 0000             add [eax], al           
00000000000015f1 0000             add [eax], al           
00000000000015f3 0000             add [eax], al           
00000000000015f5 0000             add [eax], al           
00000000000015f7 00640100         add [ecx+eax+0x0], ah   
00000000000015fb 0010             add [eax], dl           
00000000000015fd 00f1             add cl, dh              
00000000000015ff ffc4             inc esp                 
0000000000001601 086000           or [eax+0x0], ah        
0000000000001604 0000             add [eax], al           
0000000000001606 0000             add [eax], al           
0000000000001608 0000             add [eax], al           
000000000000160a 0000             add [eax], al           
000000000000160c 0000             add [eax], al           
000000000000160e 0000             add [eax], al           
0000000000001610 6b0100           imul eax, [ecx], 0x0    
0000000000001613 0012             add [edx], dl           
0000000000001615 000e             add [esi], cl           
0000000000001617 00a40540000000   add [ebp+eax+0x40], ah  
000000000000161e 0000             add [eax], al           
0000000000001620 0000             add [eax], al           
0000000000001622 0000             add [eax], al           
0000000000001624 0000             add [eax], al           
0000000000001626 0000             add [eax], al           
0000000000001628 7101             jno 0x162b              
000000000000162a 0000             add [eax], al           
000000000000162c 1200             adc al, [eax]           
000000000000162e 0000             add [eax], al           
0000000000001630 0000             add [eax], al           
0000000000001632 0000             add [eax], al           
0000000000001634 0000             add [eax], al           
0000000000001636 0000             add [eax], al           
0000000000001638 0000             add [eax], al           
000000000000163a 0000             add [eax], al           
000000000000163c 0000             add [eax], al           
000000000000163e 0000             add [eax], al           
0000000000001640 8501             test [ecx], eax         
0000000000001642 0000             add [eax], al           
0000000000001644 1200             adc al, [eax]           
0000000000001646 0000             add [eax], al           
0000000000001648 0000             add [eax], al           
000000000000164a 0000             add [eax], al           
000000000000164c 0000             add [eax], al           
000000000000164e 0000             add [eax], al           
0000000000001650 0000             add [eax], al           
0000000000001652 0000             add [eax], al           
0000000000001654 0000             add [eax], al           
0000000000001656 0000             add [eax], al           
0000000000001658 a4               movsb                   
0000000000001659 0100             add [eax], eax          
000000000000165b 0010             add [eax], dl           
000000000000165d 0018             add [eax], bl           
000000000000165f 00c0             add al, al              
0000000000001661 086000           or [eax+0x0], ah        
0000000000001664 0000             add [eax], al           
0000000000001666 0000             add [eax], al           
0000000000001668 0000             add [eax], al           
000000000000166a 0000             add [eax], al           
000000000000166c 0000             add [eax], al           
000000000000166e 0000             add [eax], al           
0000000000001670 b101             mov cl, 0x1             
0000000000001672 0000             add [eax], al           
0000000000001674 2000             and [eax], al           
0000000000001676 0000             add [eax], al           
0000000000001678 0000             add [eax], al           
000000000000167a 0000             add [eax], al           
000000000000167c 0000             add [eax], al           
000000000000167e 0000             add [eax], al           
0000000000001680 0000             add [eax], al           
0000000000001682 0000             add [eax], al           
0000000000001684 0000             add [eax], al           
0000000000001686 0000             add [eax], al           
0000000000001688 c00100           rol byte [ecx], 0x0     
000000000000168b 0011             add [ecx], dl           
000000000000168d 020f             add cl, [edi]           
000000000000168f 00b805400000     add [eax+0x4005], bh    
0000000000001695 0000             add [eax], al           
0000000000001697 0000             add [eax], al           
0000000000001699 0000             add [eax], al           
000000000000169b 0000             add [eax], al           
000000000000169d 0000             add [eax], al           
000000000000169f 00cd             add ch, cl              
00000000000016a1 0100             add [eax], eax          
00000000000016a3 0011             add [ecx], dl           
00000000000016a5 000f             add [edi], cl           
00000000000016a7 00b005400000     add [eax+0x4005], dh    
00000000000016ad 0000             add [eax], al           
00000000000016af 000400           add [eax+eax], al       
00000000000016b2 0000             add [eax], al           
00000000000016b4 0000             add [eax], al           
00000000000016b6 0000             add [eax], al           
00000000000016b8 dc01             fadd qword [ecx]        
00000000000016ba 0000             add [eax], al           
00000000000016bc 1200             adc al, [eax]           
00000000000016be 0d00100540       or eax, 0x40051000      
00000000000016c3 0000             add [eax], al           
00000000000016c5 0000             add [eax], al           
00000000000016c7 008900000000     add [ecx+0x0], cl       
00000000000016cd 0000             add [eax], al           
00000000000016cf 00ec             add ah, ch              
00000000000016d1 0100             add [eax], eax          
00000000000016d3 0010             add [eax], dl           
00000000000016d5 00f1             add cl, dh              
00000000000016d7 ffc8             dec eax                 
00000000000016d9 086000           or [eax+0x0], ah        
00000000000016dc 0000             add [eax], al           
00000000000016de 0000             add [eax], al           
00000000000016e0 0000             add [eax], al           
00000000000016e2 0000             add [eax], al           
00000000000016e4 0000             add [eax], al           
00000000000016e6 0000             add [eax], al           
00000000000016e8 f1               int1                    
00000000000016e9 0100             add [eax], eax          
00000000000016eb 0012             add [edx], dl           
00000000000016ed 000d00d00340     add [0x4003d000], cl    
00000000000016f3 0000             add [eax], al           
00000000000016f5 0000             add [eax], al           
00000000000016f7 0000             add [eax], al           
00000000000016f9 0000             add [eax], al           
00000000000016fb 0000             add [eax], al           
00000000000016fd 0000             add [eax], al           
00000000000016ff 00f8             add al, bh              
0000000000001701 0100             add [eax], eax          
0000000000001703 0010             add [eax], dl           
0000000000001705 00f1             add cl, dh              
0000000000001707 ffc4             inc esp                 
0000000000001709 086000           or [eax+0x0], ah        
000000000000170c 0000             add [eax], al           
000000000000170e 0000             add [eax], al           
0000000000001710 0000             add [eax], al           
0000000000001712 0000             add [eax], al           
0000000000001714 0000             add [eax], al           
0000000000001716 0000             add [eax], al           
0000000000001718 0402             add al, 0x2             
000000000000171a 0000             add [eax], al           
000000000000171c 1200             adc al, [eax]           
000000000000171e 0d00dc0440       or eax, 0x4004dc00      
0000000000001723 0000             add [eax], al           
0000000000001725 0000             add [eax], al           
0000000000001727 002500000000     add [0x0], ah           
000000000000172d 0000             add [eax], al           
000000000000172f 0009             add [ecx], cl           
0000000000001731 0200             add al, [eax]           
0000000000001733 0020             add [eax], ah           
0000000000001735 0000             add [eax], al           
0000000000001737 0000             add [eax], al           
0000000000001739 0000             add [eax], al           
000000000000173b 0000             add [eax], al           
000000000000173d 0000             add [eax], al           
000000000000173f 0000             add [eax], al           
0000000000001741 0000             add [eax], al           
0000000000001743 0000             add [eax], al           
0000000000001745 0000             add [eax], al           
0000000000001747 001d02000011     add [0x11000002], bl    
000000000000174d 02f1             add dh, cl              
000000000000174f ffc8             dec eax                 
0000000000001751 086000           or [eax+0x0], ah        
0000000000001754 0000             add [eax], al           
0000000000001756 0000             add [eax], al           
0000000000001758 0000             add [eax], al           
000000000000175a 0000             add [eax], al           
000000000000175c 0000             add [eax], al           
000000000000175e 0000             add [eax], al           
0000000000001760 2902             sub [edx], eax          
0000000000001762 0000             add [eax], al           
0000000000001764 2000             and [eax], al           
0000000000001766 0000             add [eax], al           
0000000000001768 0000             add [eax], al           
000000000000176a 0000             add [eax], al           
000000000000176c 0000             add [eax], al           
000000000000176e 0000             add [eax], al           
0000000000001770 0000             add [eax], al           
0000000000001772 0000             add [eax], al           
0000000000001774 0000             add [eax], al           
0000000000001776 0000             add [eax], al           
0000000000001778 43               inc ebx                 
0000000000001779 0200             add al, [eax]           
000000000000177b 0012             add [edx], dl           
000000000000177d 000b             add [ebx], cl           
000000000000177f 009003400000     add [eax+0x4003], dl    
0000000000001785 0000             add [eax], al           
0000000000001787 0000             add [eax], al           
0000000000001789 0000             add [eax], al           
000000000000178b 0000             add [eax], al           
000000000000178d 0000             add [eax], al           
000000000000178f 0000             add [eax], al           
0000000000001791 63616c           arpl [ecx+0x6c], sp     
0000000000001794 6c               insb                    
0000000000001795 5f               pop edi                 
0000000000001796 676d             a16 insd                
0000000000001798 6f               outsd                   
0000000000001799 6e               outsb                   
000000000000179a 5f               pop edi                 
000000000000179b 7374             jae 0x1811              
000000000000179d 61               popad                   
000000000000179e 7274             jb 0x1814               
00000000000017a0 006372           add [ebx+0x72], ah      
00000000000017a3 7473             jz 0x1818               
00000000000017a5 7475             jz 0x181c               
00000000000017a7 66662e6300       o16 arpl [cs:eax], ax   
00000000000017ac 5f               pop edi                 
00000000000017ad 5f               pop edi                 
00000000000017ae 4a               dec edx                 
00000000000017af 43               inc ebx                 
00000000000017b0 52               push edx                
00000000000017b1 5f               pop edi                 
00000000000017b2 4c               dec esp                 
00000000000017b3 49               dec ecx                 
00000000000017b4 53               push ebx                
00000000000017b5 54               push esp                
00000000000017b6 5f               pop edi                 
00000000000017b7 5f               pop edi                 
00000000000017b8 00646572         add [ebp+0x72], ah      
00000000000017bc 656769737465725f imul esi, [gs:bp+di+0x74], 0x745f7265
                -74              
00000000000017c5 6d               insd                    
00000000000017c6 5f               pop edi                 
00000000000017c7 636c6f6e         arpl [edi+ebp*2+0x6e], bp
00000000000017cb 657300           jae 0x17ce              
00000000000017ce 7265             jb 0x1835               
00000000000017d0 6769737465725f74 imul esi, [bp+di+0x74], 0x745f7265
00000000000017d8 6d               insd                    
00000000000017d9 5f               pop edi                 
00000000000017da 636c6f6e         arpl [edi+ebp*2+0x6e], bp
00000000000017de 657300           jae 0x17e1              
00000000000017e1 5f               pop edi                 
00000000000017e2 5f               pop edi                 
00000000000017e3 646f             outsd                   
00000000000017e5 5f               pop edi                 
00000000000017e6 676c             a16 insb                
00000000000017e8 6f               outsd                   
00000000000017e9 62616c           bound esp, [ecx+0x6c]   
00000000000017ec 5f               pop edi                 
00000000000017ed 64746f           jz 0x185f               
00000000000017f0 7273             jb 0x1865               
00000000000017f2 5f               pop edi                 
00000000000017f3 61               popad                   
00000000000017f4 7578             jnz 0x186e              
00000000000017f6 00636f           add [ebx+0x6f], ah      
00000000000017f9 6d               insd                    
00000000000017fa 706c             jo 0x1868               
00000000000017fc 657465           jz 0x1864               
00000000000017ff 642e363130       xor [ss:eax], esi       
0000000000001804 3800             cmp [eax], al           
0000000000001806 5f               pop edi                 
0000000000001807 5f               pop edi                 
0000000000001808 646f             outsd                   
000000000000180a 5f               pop edi                 
000000000000180b 676c             a16 insb                
000000000000180d 6f               outsd                   
000000000000180e 62616c           bound esp, [ecx+0x6c]   
0000000000001811 5f               pop edi                 
0000000000001812 64746f           jz 0x1884               
0000000000001815 7273             jb 0x188a               
0000000000001817 5f               pop edi                 
0000000000001818 61               popad                   
0000000000001819 7578             jnz 0x1893              
000000000000181b 5f               pop edi                 
000000000000181c 66696e695f61     imul bp, [esi+0x69], 0x615f
0000000000001822 7272             jb 0x1896               
0000000000001824 61               popad                   
0000000000001825 795f             jns 0x1886              
0000000000001827 656e             outsb                   
0000000000001829 7472             jz 0x189d               
000000000000182b 7900             jns 0x182d              
000000000000182d 667261           o16 jb 0x1891           
0000000000001830 6d               insd                    
0000000000001831 655f             pop edi                 
0000000000001833 64756d           jnz 0x18a3              
0000000000001836 6d               insd                    
0000000000001837 7900             jns 0x1839              
0000000000001839 5f               pop edi                 
000000000000183a 5f               pop edi                 
000000000000183b 667261           o16 jb 0x189f           
000000000000183e 6d               insd                    
000000000000183f 655f             pop edi                 
0000000000001841 64756d           jnz 0x18b1              
0000000000001844 6d               insd                    
0000000000001845 795f             jns 0x18a6              
0000000000001847 696e69745f6172   imul ebp, [esi+0x69], 0x72615f74
000000000000184e 7261             jb 0x18b1               
0000000000001850 795f             jns 0x18b1              
0000000000001852 656e             outsb                   
0000000000001854 7472             jz 0x18c8               
0000000000001856 7900             jns 0x1858              
0000000000001858 68656c6c6f       push dword 0x6f6c6c65   
000000000000185d 2e6300           arpl [cs:eax], ax       
0000000000001860 5f               pop edi                 
0000000000001861 5f               pop edi                 
0000000000001862 46               inc esi                 
0000000000001863 52               push edx                
0000000000001864 41               inc ecx                 
0000000000001865 4d               dec ebp                 
0000000000001866 45               inc ebp                 
0000000000001867 5f               pop edi                 
0000000000001868 45               inc ebp                 
0000000000001869 4e               dec esi                 
000000000000186a 44               inc esp                 
000000000000186b 5f               pop edi                 
000000000000186c 5f               pop edi                 
000000000000186d 005f5f           add [edi+0x5f], bl      
0000000000001870 4a               dec edx                 
0000000000001871 43               inc ebx                 
0000000000001872 52               push edx                
0000000000001873 5f               pop edi                 
0000000000001874 45               inc ebp                 
0000000000001875 4e               dec esi                 
0000000000001876 44               inc esp                 
0000000000001877 5f               pop edi                 
0000000000001878 5f               pop edi                 
0000000000001879 005f5f           add [edi+0x5f], bl      
000000000000187c 696e69745f6172   imul ebp, [esi+0x69], 0x72615f74
0000000000001883 7261             jb 0x18e6               
0000000000001885 795f             jns 0x18e6              
0000000000001887 656e             outsb                   
0000000000001889 64005f44         add [fs:edi+0x44], bl   
000000000000188d 59               pop ecx                 
000000000000188e 4e               dec esi                 
000000000000188f 41               inc ecx                 
0000000000001890 4d               dec ebp                 
0000000000001891 49               dec ecx                 
0000000000001892 43               inc ebx                 
0000000000001893 005f5f           add [edi+0x5f], bl      
0000000000001896 696e69745f6172   imul ebp, [esi+0x69], 0x72615f74
000000000000189d 7261             jb 0x1900               
000000000000189f 795f             jns 0x1900              
00000000000018a1 7374             jae 0x1917              
00000000000018a3 61               popad                   
00000000000018a4 7274             jb 0x191a               
00000000000018a6 005f47           add [edi+0x47], bl      
00000000000018a9 4c               dec esp                 
00000000000018aa 4f               dec edi                 
00000000000018ab 42               inc edx                 
00000000000018ac 41               inc ecx                 
00000000000018ad 4c               dec esp                 
00000000000018ae 5f               pop edi                 
00000000000018af 4f               dec edi                 
00000000000018b0 46               inc esi                 
00000000000018b1 46               inc esi                 
00000000000018b2 53               push ebx                
00000000000018b3 45               inc ebp                 
00000000000018b4 54               push esp                
00000000000018b5 5f               pop edi                 
00000000000018b6 54               push esp                
00000000000018b7 41               inc ecx                 
00000000000018b8 42               inc edx                 
00000000000018b9 4c               dec esp                 
00000000000018ba 45               inc ebp                 
00000000000018bb 5f               pop edi                 
00000000000018bc 005f5f           add [edi+0x5f], bl      
00000000000018bf 6c               insb                    
00000000000018c0 6962635f637375   imul esp, [edx+0x63], 0x7573635f
00000000000018c7 5f               pop edi                 
00000000000018c8 66696e69005f     imul bp, [esi+0x69], 0x5f00
00000000000018ce 49               dec ecx                 
00000000000018cf 54               push esp                
00000000000018d0 4d               dec ebp                 
00000000000018d1 5f               pop edi                 
00000000000018d2 64657265         jb 0x193b               
00000000000018d6 676973746572544d imul esi, [bp+di+0x74], 0x4d547265
00000000000018de 43               inc ebx                 
00000000000018df 6c               insb                    
00000000000018e0 6f               outsd                   
00000000000018e1 6e               outsb                   
00000000000018e2 6554             push esp                
00000000000018e4 61               popad                   
00000000000018e5 626c6500         bound ebp, [ebp+0x0]    
00000000000018e9 6461             popad                   
00000000000018eb 7461             jz 0x194e               
00000000000018ed 5f               pop edi                 
00000000000018ee 7374             jae 0x1964              
00000000000018f0 61               popad                   
00000000000018f1 7274             jb 0x1967               
00000000000018f3 005f65           add [edi+0x65], bl      
00000000000018f6 6461             popad                   
00000000000018f8 7461             jz 0x195b               
00000000000018fa 005f66           add [edi+0x66], bl      
00000000000018fd 696e6900707269   imul ebp, [esi+0x69], 0x69727000
0000000000001904 6e               outsb                   
0000000000001905 7466             jz 0x196d               
0000000000001907 40               inc eax                 
0000000000001908 40               inc eax                 
0000000000001909 47               inc edi                 
000000000000190a 4c               dec esp                 
000000000000190b 49               dec ecx                 
000000000000190c 42               inc edx                 
000000000000190d 43               inc ebx                 
000000000000190e 5f               pop edi                 
000000000000190f 322e             xor ch, [esi]           
0000000000001911 322e             xor ch, [esi]           
0000000000001913 35005f5f6c       xor eax, 0x6c5f5f00     
0000000000001918 6962635f737461   imul esp, [edx+0x63], 0x6174735f
000000000000191f 7274             jb 0x1995               
0000000000001921 5f               pop edi                 
0000000000001922 6d               insd                    
0000000000001923 61               popad                   
0000000000001924 696e4040474c49   imul ebp, [esi+0x40], 0x494c4740
000000000000192b 42               inc edx                 
000000000000192c 43               inc ebx                 
000000000000192d 5f               pop edi                 
000000000000192e 322e             xor ch, [esi]           
0000000000001930 322e             xor ch, [esi]           
0000000000001932 35005f5f64       xor eax, 0x645f5f00     
0000000000001937 61               popad                   
0000000000001938 7461             jz 0x199b               
000000000000193a 5f               pop edi                 
000000000000193b 7374             jae 0x19b1              
000000000000193d 61               popad                   
000000000000193e 7274             jb 0x19b4               
0000000000001940 005f5f           add [edi+0x5f], bl      
0000000000001943 676d             a16 insd                
0000000000001945 6f               outsd                   
0000000000001946 6e               outsb                   
0000000000001947 5f               pop edi                 
0000000000001948 7374             jae 0x19be              
000000000000194a 61               popad                   
000000000000194b 7274             jb 0x19c1               
000000000000194d 5f               pop edi                 
000000000000194e 5f               pop edi                 
000000000000194f 005f5f           add [edi+0x5f], bl      
0000000000001952 64736f           jae 0x19c4              
0000000000001955 5f               pop edi                 
0000000000001956 68616e646c       push dword 0x6c646e61   
000000000000195b 65005f49         add [gs:edi+0x49], bl   
000000000000195f 4f               dec edi                 
0000000000001960 5f               pop edi                 
0000000000001961 7374             jae 0x19d7              
0000000000001963 64696e5f75736564 imul ebp, [fs:esi+0x5f], 0x64657375
000000000000196b 005f5f           add [edi+0x5f], bl      
000000000000196e 6c               insb                    
000000000000196f 6962635f637375   imul esp, [edx+0x63], 0x7573635f
0000000000001976 5f               pop edi                 
0000000000001977 696e6974005f65   imul ebp, [esi+0x69], 0x655f0074
000000000000197e 6e               outsb                   
000000000000197f 64005f73         add [fs:edi+0x73], bl   
0000000000001983 7461             jz 0x19e6               
0000000000001985 7274             jb 0x19fb               
0000000000001987 005f5f           add [edi+0x5f], bl      
000000000000198a 627373           bound esi, [ebx+0x73]   
000000000000198d 5f               pop edi                 
000000000000198e 7374             jae 0x1a04              
0000000000001990 61               popad                   
0000000000001991 7274             jb 0x1a07               
0000000000001993 006d61           add [ebp+0x61], ch      
0000000000001996 696e005f4a765f   imul ebp, [esi+0x0], 0x5f764a5f
000000000000199d 52               push edx                
000000000000199e 6567697374657243 imul esi, [gs:bp+di+0x74], 0x6c437265
                -6c              
00000000000019a7 61               popad                   
00000000000019a8 7373             jae 0x1a1d              
00000000000019aa 657300           jae 0x19ad              
00000000000019ad 5f               pop edi                 
00000000000019ae 5f               pop edi                 
00000000000019af 54               push esp                
00000000000019b0 4d               dec ebp                 
00000000000019b1 43               inc ebx                 
00000000000019b2 5f               pop edi                 
00000000000019b3 45               inc ebp                 
00000000000019b4 4e               dec esi                 
00000000000019b5 44               inc esp                 
00000000000019b6 5f               pop edi                 
00000000000019b7 5f               pop edi                 
00000000000019b8 005f49           add [edi+0x49], bl      
00000000000019bb 54               push esp                
00000000000019bc 4d               dec ebp                 
00000000000019bd 5f               pop edi                 
00000000000019be 7265             jb 0x1a25               
00000000000019c0 676973746572544d imul esi, [bp+di+0x74], 0x4d547265
00000000000019c8 43               inc ebx                 
00000000000019c9 6c               insb                    
00000000000019ca 6f               outsd                   
00000000000019cb 6e               outsb                   
00000000000019cc 6554             push esp                
00000000000019ce 61               popad                   
00000000000019cf 626c6500         bound ebp, [ebp+0x0]    
00000000000019d3 5f               pop edi                 
00000000000019d4 696e697400       invalid                 
