	.file	"postprocess.c"
# GNU C (GCC) version 4.9.2 20141224 (prerelease) (x86_64-unknown-linux-gnu)
#	compiled by GNU C version 4.9.2 20141224 (prerelease), GMP version 6.0.0, MPFR version 3.1.2-p11, MPC version 1.0.2
# GGC heuristics: --param ggc-min-expand=100 --param ggc-min-heapsize=131072
# options passed:  -I /home/tucker/Repo/ffmpeg/libpostproc/.. postprocess.c
# -mtune=generic -march=x86-64 -auxbase-strip postprocess_asm.s -O1
# -fverbose-asm
# options enabled:  -faggressive-loop-optimizations
# -fasynchronous-unwind-tables -fauto-inc-dec -fbranch-count-reg
# -fcombine-stack-adjustments -fcommon -fcompare-elim -fcprop-registers
# -fdefer-pop -fdelete-null-pointer-checks -fdwarf2-cfi-asm
# -fearly-inlining -feliminate-unused-debug-types -fforward-propagate
# -ffunction-cse -fgcse-lm -fgnu-runtime -fgnu-unique
# -fguess-branch-probability -fident -fif-conversion -fif-conversion2
# -finline -finline-atomics -finline-functions-called-once -fipa-profile
# -fipa-pure-const -fipa-reference -fira-hoist-pressure
# -fira-share-save-slots -fira-share-spill-slots -fivopts
# -fkeep-static-consts -fleading-underscore -fmath-errno -fmerge-constants
# -fmerge-debug-strings -fmove-loop-invariants -fomit-frame-pointer
# -fpeephole -fprefetch-loop-arrays -freg-struct-return
# -fsched-critical-path-heuristic -fsched-dep-count-heuristic
# -fsched-group-heuristic -fsched-interblock -fsched-last-insn-heuristic
# -fsched-rank-heuristic -fsched-spec -fsched-spec-insn-heuristic
# -fsched-stalled-insns-dep -fshow-column -fshrink-wrap -fsigned-zeros
# -fsplit-ivs-in-unroller -fsplit-wide-types -fstrict-volatile-bitfields
# -fsync-libcalls -ftoplevel-reorder -ftrapping-math -ftree-bit-ccp
# -ftree-ccp -ftree-ch -ftree-coalesce-vars -ftree-copy-prop
# -ftree-copyrename -ftree-cselim -ftree-dce -ftree-dominator-opts
# -ftree-dse -ftree-forwprop -ftree-fre -ftree-loop-if-convert
# -ftree-loop-im -ftree-loop-ivcanon -ftree-loop-optimize
# -ftree-parallelize-loops= -ftree-phiprop -ftree-pta -ftree-reassoc
# -ftree-scev-cprop -ftree-sink -ftree-slsr -ftree-sra -ftree-ter
# -funit-at-a-time -funwind-tables -fverbose-asm -fzero-initialized-in-bss
# -m128bit-long-double -m64 -m80387 -malign-stringops
# -mavx256-split-unaligned-load -mavx256-split-unaligned-store
# -mfancy-math-387 -mfp-ret-in-387 -mfxsr -mglibc -mieee-fp
# -mlong-double-80 -mmmx -mno-sse4 -mpush-args -mred-zone -msse -msse2
# -mtls-direct-seg-refs

	.text
	.type	deInterlaceInterpolateCubic_C, @function
deInterlaceInterpolateCubic_C:
.LFB95:
	.cfi_startproc
	pushq	%r15	#
	.cfi_def_cfa_offset 16
	.cfi_offset 15, -16
	pushq	%r14	#
	.cfi_def_cfa_offset 24
	.cfi_offset 14, -24
	pushq	%r13	#
	.cfi_def_cfa_offset 32
	.cfi_offset 13, -32
	pushq	%r12	#
	.cfi_def_cfa_offset 40
	.cfi_offset 12, -40
	pushq	%rbp	#
	.cfi_def_cfa_offset 48
	.cfi_offset 6, -48
	pushq	%rbx	#
	.cfi_def_cfa_offset 56
	.cfi_offset 3, -56
	leal	(%rsi,%rsi), %ebx	#, tmp249
	leal	(%rbx,%rsi), %ebp	#, D.12911
	movslq	%ebp, %r14	# D.12911, D.12912
	addq	%r14, %rdi	# D.12912, src
	movslq	%ebx, %rbx	# tmp249, D.12912
	leal	0(,%rsi,4), %r9d	#, D.12911
	movslq	%r9d, %r11	# D.12911, D.12912
	leal	(%rbp,%rbp), %r12d	#, tmp256
	movslq	%r12d, %r12	# tmp256, D.12912
	addl	%esi, %r9d	# stride, D.12911
	movslq	%r9d, %r15	# D.12911, D.12912
	leal	0(,%rsi,8), %eax	#, D.12911
	movslq	%eax, %r10	# D.12911, D.12912
	movl	%eax, %r13d	# D.12911, D.12911
	subl	%esi, %r13d	# stride, D.12911
	movslq	%r13d, %r13	# D.12911, D.12912
	addl	%r9d, %r9d	# tmp267
	movslq	%r9d, %r9	# tmp267, D.12912
	addl	%eax, %esi	# D.12911, D.12911
	movslq	%esi, %rsi	# D.12911, D.12912
	sall	$2, %ebp	#, tmp274
	movslq	%ebp, %rbp	# tmp274, D.12912
	leaq	(%rdi,%r12), %r8	#, ivtmp.257
	leaq	8(%rdi,%r12), %rax	#, D.12917
	movq	%rax, -16(%rsp)	# D.12917, %sfp
	movq	%r12, %rax	# D.12912, D.12912
	negq	%rax	# D.12912
	movq	%rax, -8(%rsp)	# D.12912, %sfp
.L10:
	movq	%r8, %rax	# ivtmp.257, D.12916
	subq	%r12, %rax	# D.12912, D.12916
	movq	%r8, %rcx	# ivtmp.257, D.12916
	movzbl	(%rax,%rbx), %edx	# MEM[base: _133, index: _12, offset: 0B], D.12911
	leal	(%rdx,%rdx,8), %edx	#, D.12911
	movq	-8(%rsp), %rdi	# %sfp, D.12912
	movzbl	(%r8,%rdi), %edi	# MEM[base: _135, index: _137, offset: 0B], D.12911
	subl	%edi, %edx	# D.12911, D.12911
	movzbl	(%rax,%r11), %edi	# MEM[base: _133, index: _21, offset: 0B], D.12911
	leal	(%rdi,%rdi,8), %edi	#, D.12911
	addl	%edi, %edx	# D.12911, D.12911
	movzbl	(%r8), %edi	# MEM[base: _135, offset: 0B], D.12911
	subl	%edi, %edx	# D.12911, D.12911
	sarl	$4, %edx	#, D.12911
	movl	%edx, %edi	# D.12911, D.12914
	testl	$-256, %edx	#, D.12911
	je	.L3	#,
	negl	%edx	# D.12911
	sarl	$31, %edx	#, tmp358
	movl	%edx, %edi	# tmp358, D.12914
.L3:
	movb	%dil, (%rax,%r14)	# D.12914, MEM[base: _133, index: _6, offset: 0B]
	movzbl	(%rax,%r11), %edx	# MEM[base: _133, index: _21, offset: 0B], D.12911
	leal	(%rdx,%rdx,8), %edx	#, D.12911
	movzbl	(%rax,%rbx), %edi	# MEM[base: _133, index: _12, offset: 0B], D.12911
	subl	%edi, %edx	# D.12911, D.12911
	movzbl	(%rcx), %edi	# MEM[base: _135, offset: 0B], D.12911
	leal	(%rdi,%rdi,8), %edi	#, D.12911
	addl	%edi, %edx	# D.12911, D.12911
	movzbl	(%rax,%r10), %edi	# MEM[base: _133, index: _49, offset: 0B], D.12911
	subl	%edi, %edx	# D.12911, D.12911
	sarl	$4, %edx	#, D.12911
	movl	%edx, %edi	# D.12911, D.12914
	testl	$-256, %edx	#, D.12911
	je	.L5	#,
	negl	%edx	# D.12911
	sarl	$31, %edx	#, tmp359
	movl	%edx, %edi	# tmp359, D.12914
.L5:
	movb	%dil, (%rax,%r15)	# D.12914, MEM[base: _133, index: _36, offset: 0B]
	movzbl	(%rcx), %edx	# MEM[base: _135, offset: 0B], D.12911
	leal	(%rdx,%rdx,8), %edx	#, D.12911
	movzbl	(%rax,%r11), %edi	# MEM[base: _133, index: _21, offset: 0B], D.12911
	subl	%edi, %edx	# D.12911, D.12911
	movzbl	(%rax,%r10), %edi	# MEM[base: _133, index: _49, offset: 0B], D.12911
	leal	(%rdi,%rdi,8), %edi	#, D.12911
	addl	%edi, %edx	# D.12911, D.12911
	movzbl	(%rax,%r9), %edi	# MEM[base: _133, index: _70, offset: 0B], D.12911
	subl	%edi, %edx	# D.12911, D.12911
	sarl	$4, %edx	#, D.12911
	movl	%edx, %edi	# D.12911, D.12914
	testl	$-256, %edx	#, D.12911
	je	.L7	#,
	negl	%edx	# D.12911
	sarl	$31, %edx	#, tmp360
	movl	%edx, %edi	# tmp360, D.12914
.L7:
	movb	%dil, (%rax,%r13)	# D.12914, MEM[base: _133, index: _57, offset: 0B]
	movzbl	(%rax,%r10), %edx	# MEM[base: _133, index: _49, offset: 0B], D.12911
	leal	(%rdx,%rdx,8), %edx	#, D.12911
	movzbl	(%rcx), %ecx	# MEM[base: _135, offset: 0B], D.12911
	subl	%ecx, %edx	# D.12911, D.12911
	movzbl	(%rax,%r9), %ecx	# MEM[base: _133, index: _70, offset: 0B], D.12911
	leal	(%rcx,%rcx,8), %ecx	#, D.12911
	addl	%ecx, %edx	# D.12911, D.12911
	movzbl	(%rax,%rbp), %ecx	# MEM[base: _133, index: _91, offset: 0B], D.12911
	subl	%ecx, %edx	# D.12911, D.12911
	sarl	$4, %edx	#, D.12911
	movl	%edx, %ecx	# D.12911, D.12914
	testl	$-256, %edx	#, D.12911
	je	.L9	#,
	negl	%edx	# D.12911
	sarl	$31, %edx	#, tmp361
	movl	%edx, %ecx	# tmp361, D.12914
.L9:
	movb	%cl, (%rax,%rsi)	# D.12914, MEM[base: _133, index: _78, offset: 0B]
	addq	$1, %r8	#, ivtmp.257
	cmpq	-16(%rsp), %r8	# %sfp, ivtmp.257
	jne	.L10	#,
	popq	%rbx	#
	.cfi_def_cfa_offset 48
	popq	%rbp	#
	.cfi_def_cfa_offset 40
	popq	%r12	#
	.cfi_def_cfa_offset 32
	popq	%r13	#
	.cfi_def_cfa_offset 24
	popq	%r14	#
	.cfi_def_cfa_offset 16
	popq	%r15	#
	.cfi_def_cfa_offset 8
	ret
	.cfi_endproc
.LFE95:
	.size	deInterlaceInterpolateCubic_C, .-deInterlaceInterpolateCubic_C
	.type	deInterlaceFF_C, @function
deInterlaceFF_C:
.LFB96:
	.cfi_startproc
	pushq	%r15	#
	.cfi_def_cfa_offset 16
	.cfi_offset 15, -16
	pushq	%r14	#
	.cfi_def_cfa_offset 24
	.cfi_offset 14, -24
	pushq	%r13	#
	.cfi_def_cfa_offset 32
	.cfi_offset 13, -32
	pushq	%r12	#
	.cfi_def_cfa_offset 40
	.cfi_offset 12, -40
	pushq	%rbp	#
	.cfi_def_cfa_offset 48
	.cfi_offset 6, -48
	pushq	%rbx	#
	.cfi_def_cfa_offset 56
	.cfi_offset 3, -56
	leal	0(,%rsi,4), %r9d	#, D.12947
	movslq	%r9d, %rbp	# D.12947, D.12948
	addq	%rbp, %rdi	# D.12948, src
	leal	(%rsi,%rsi), %r8d	#, D.12947
	movslq	%r8d, %r10	# D.12947, D.12948
	addl	%esi, %r8d	# stride, D.12947
	movslq	%r8d, %rcx	# D.12947, D.12948
	addl	%esi, %r9d	# stride, D.12947
	movslq	%r9d, %r9	# D.12947, D.12948
	addl	%r8d, %r8d	# tmp254
	movslq	%r8d, %r8	# tmp254, D.12948
	leal	0(,%rsi,8), %r13d	#, tmp256
	movl	%r13d, %ebx	# tmp256, D.12947
	subl	%esi, %ebx	# stride, D.12947
	movslq	%ebx, %rbx	# D.12947, D.12948
	movslq	%r13d, %r15	# tmp256, D.12948
	addl	%esi, %r13d	# stride, D.12947
	movslq	%r13d, %r13	# D.12947, D.12948
	movl	$0, %eax	#, ivtmp.268
	movslq	%esi, %rsi	# stride, D.12948
	leaq	(%rdi,%rsi), %r12	#, D.12951
	leaq	(%r12,%rsi), %r14	#, D.12951
	addq	%r14, %rsi	# D.12951, D.12951
	movq	%rsi, -24(%rsp)	# D.12951, %sfp
	addq	%rdi, %rbp	# src, D.12951
	addq	%rdi, %r9	# src, D.12951
	leaq	(%rdi,%r10), %rsi	#, D.12951
	movq	%rsi, -16(%rsp)	# D.12951, %sfp
	leaq	(%rdi,%rcx), %rsi	#, D.12951
	movq	%rsi, -8(%rsp)	# D.12951, %sfp
	addq	%rdi, %r8	# src, D.12951
	addq	%rdi, %rbx	# src, D.12951
.L22:
	movzbl	(%r12,%rax), %esi	# MEM[base: _133, index: ivtmp.268_2, offset: 0B], t2
	movzbl	(%rdi,%rax), %ecx	# MEM[base: src_8, index: ivtmp.268_2, offset: 0B], D.12947
	sall	$2, %ecx	#, D.12947
	movzbl	(%rdx,%rax), %r10d	# MEM[base: tmp_11(D), index: ivtmp.268_2, offset: 0B], t1
	subl	%r10d, %ecx	# t1, D.12947
	leal	(%rcx,%rsi,2), %ecx	#, D.12947
	movzbl	(%r14,%rax), %r10d	# MEM[base: _139, index: ivtmp.268_2, offset: 0B], D.12947
	leal	(%rcx,%r10,4), %ecx	#, D.12947
	movq	-24(%rsp), %r11	# %sfp, D.12951
	movzbl	(%r11,%rax), %r10d	# MEM[base: _141, index: ivtmp.268_2, offset: 0B], D.12947
	subl	%r10d, %ecx	# D.12947, D.12947
	addl	$4, %ecx	#, D.12947
	sarl	$3, %ecx	#, D.12947
	movl	%ecx, %r10d	# D.12947, D.12950
	testl	$-256, %ecx	#, D.12947
	je	.L15	#,
	negl	%ecx	# D.12947
	sarl	$31, %ecx	#, tmp347
	movl	%ecx, %r10d	# tmp347, D.12950
.L15:
	movb	%r10b, (%r12,%rax)	# D.12950, MEM[base: _133, index: ivtmp.268_2, offset: 0B]
	movzbl	0(%rbp,%rax), %r10d	# MEM[base: _163, index: ivtmp.268_2, offset: 0B], t1
	movq	-16(%rsp), %rcx	# %sfp, D.12951
	movzbl	(%rcx,%rax), %ecx	# MEM[base: _165, index: ivtmp.268_2, offset: 0B], D.12947
	sall	$2, %ecx	#, D.12947
	subl	%esi, %ecx	# t2, D.12947
	leal	(%rcx,%r10,2), %ecx	#, D.12947
	leal	(%rcx,%r10,4), %ecx	#, D.12947
	movzbl	(%r9,%rax), %esi	# MEM[base: _167, index: ivtmp.268_2, offset: 0B], D.12947
	subl	%esi, %ecx	# D.12947, D.12947
	addl	$4, %ecx	#, D.12947
	sarl	$3, %ecx	#, D.12947
	movl	%ecx, %esi	# D.12947, D.12950
	testl	$-256, %ecx	#, D.12947
	je	.L17	#,
	negl	%ecx	# D.12947
	sarl	$31, %ecx	#, tmp349
	movl	%ecx, %esi	# tmp349, D.12950
.L17:
	movq	-8(%rsp), %rcx	# %sfp, D.12951
	movb	%sil, (%rcx,%rax)	# D.12950, MEM[base: _153, index: ivtmp.268_2, offset: 0B]
	movzbl	(%r8,%rax), %esi	# MEM[base: _155, index: ivtmp.268_2, offset: 0B], t2
	movzbl	0(%rbp,%rax), %ecx	# MEM[base: _163, index: ivtmp.268_2, offset: 0B], D.12947
	sall	$2, %ecx	#, D.12947
	subl	%r10d, %ecx	# t1, D.12947
	leal	(%rcx,%rsi,2), %ecx	#, D.12947
	leal	(%rcx,%rsi,4), %ecx	#, D.12947
	movzbl	(%rbx,%rax), %r10d	# MEM[base: _159, index: ivtmp.268_2, offset: 0B], D.12947
	subl	%r10d, %ecx	# D.12947, D.12947
	addl	$4, %ecx	#, D.12947
	sarl	$3, %ecx	#, D.12947
	movl	%ecx, %r10d	# D.12947, D.12950
	testl	$-256, %ecx	#, D.12947
	je	.L19	#,
	negl	%ecx	# D.12947
	sarl	$31, %ecx	#, tmp351
	movl	%ecx, %r10d	# tmp351, D.12950
.L19:
	movb	%r10b, (%r9,%rax)	# D.12950, MEM[base: _167, index: ivtmp.268_2, offset: 0B]
	leaq	(%rdi,%r15), %rcx	#, D.12951
	movzbl	(%rcx,%rax), %r10d	# MEM[base: _147, index: ivtmp.268_2, offset: 0B], D.12949
	movzbl	%r10b, %r11d	# D.12949, t1
	movzbl	(%r8,%rax), %ecx	# MEM[base: _155, index: ivtmp.268_2, offset: 0B], D.12947
	sall	$2, %ecx	#, D.12947
	subl	%esi, %ecx	# t2, D.12947
	leal	(%rcx,%r11,2), %ecx	#, D.12947
	leal	(%rcx,%r11,4), %ecx	#, D.12947
	leaq	(%rdi,%r13), %rsi	#, D.12951
	movzbl	(%rsi,%rax), %esi	# MEM[base: _151, index: ivtmp.268_2, offset: 0B], D.12947
	subl	%esi, %ecx	# D.12947, D.12947
	addl	$4, %ecx	#, D.12947
	sarl	$3, %ecx	#, D.12947
	movl	%ecx, %esi	# D.12947, D.12950
	testl	$-256, %ecx	#, D.12947
	je	.L21	#,
	negl	%ecx	# D.12947
	sarl	$31, %ecx	#, tmp352
	movl	%ecx, %esi	# tmp352, D.12950
.L21:
	movb	%sil, (%rbx,%rax)	# D.12950, MEM[base: _159, index: ivtmp.268_2, offset: 0B]
	movb	%r10b, (%rdx,%rax)	# D.12949, MEM[base: tmp_11(D), index: ivtmp.268_2, offset: 0B]
	addq	$1, %rax	#, ivtmp.268
	cmpq	$8, %rax	#, ivtmp.268
	jne	.L22	#,
	popq	%rbx	#
	.cfi_def_cfa_offset 48
	popq	%rbp	#
	.cfi_def_cfa_offset 40
	popq	%r12	#
	.cfi_def_cfa_offset 32
	popq	%r13	#
	.cfi_def_cfa_offset 24
	popq	%r14	#
	.cfi_def_cfa_offset 16
	popq	%r15	#
	.cfi_def_cfa_offset 8
	ret
	.cfi_endproc
.LFE96:
	.size	deInterlaceFF_C, .-deInterlaceFF_C
	.type	deInterlaceL5_C, @function
deInterlaceL5_C:
.LFB97:
	.cfi_startproc
	pushq	%r15	#
	.cfi_def_cfa_offset 16
	.cfi_offset 15, -16
	pushq	%r14	#
	.cfi_def_cfa_offset 24
	.cfi_offset 14, -24
	pushq	%r13	#
	.cfi_def_cfa_offset 32
	.cfi_offset 13, -32
	pushq	%r12	#
	.cfi_def_cfa_offset 40
	.cfi_offset 12, -40
	pushq	%rbp	#
	.cfi_def_cfa_offset 48
	.cfi_offset 6, -48
	pushq	%rbx	#
	.cfi_def_cfa_offset 56
	.cfi_offset 3, -56
	leal	0(,%rsi,4), %r9d	#, D.12972
	movslq	%r9d, %rax	# D.12972, D.12973
	movq	%rax, -72(%rsp)	# D.12973, %sfp
	addq	%rax, %rdi	# D.12973, src
	leal	(%rsi,%rsi), %eax	#, D.12972
	movslq	%eax, %r8	# D.12972, D.12973
	addl	%esi, %eax	# stride, D.12972
	movslq	%eax, %r13	# D.12972, D.12973
	addl	%esi, %r9d	# stride, D.12972
	movslq	%r9d, %rbx	# D.12972, D.12973
	movq	%rbx, -64(%rsp)	# D.12973, %sfp
	addl	%eax, %eax	# tmp335
	cltq
	movq	%rax, -56(%rsp)	# D.12973, %sfp
	leal	0(,%rsi,8), %eax	#, tmp337
	subl	%esi, %eax	# stride, D.12972
	cltq
	movq	%rax, -48(%rsp)	# D.12973, %sfp
	movl	$0, %eax	#, ivtmp.287
	movslq	%esi, %rsi	# stride, D.12973
	leaq	(%rdi,%rsi), %rbp	#, D.12976
	leaq	0(%rbp,%rsi), %rbx	#, D.12976
	leaq	(%rbx,%rsi), %r14	#, D.12976
	leaq	(%r14,%rsi), %r15	#, D.12976
	movq	%r15, -40(%rsp)	# D.12976, %sfp
	leaq	(%rdi,%r8), %r15	#, D.12976
	movq	%r15, -32(%rsp)	# D.12976, %sfp
	addq	%rsi, %r15	# D.12973, D.12976
	movq	%r15, -24(%rsp)	# D.12976, %sfp
	addq	%rsi, %r15	# D.12973, D.12976
	movq	%r15, -16(%rsp)	# D.12976, %sfp
	addq	%rsi, %r15	# D.12973, D.12976
	movq	%r15, -8(%rsp)	# D.12976, %sfp
	addq	%rdi, %r13	# src, D.12976
.L42:
	movzbl	(%rcx,%rax), %r9d	# MEM[base: tmp2_15(D), index: ivtmp.287_2, offset: 0B], t2
	movzbl	(%rdi,%rax), %r10d	# MEM[base: src_8, index: ivtmp.287_2, offset: 0B], t3
	movzbl	0(%rbp,%rax), %r8d	# MEM[base: _216, index: ivtmp.287_2, offset: 0B], D.12972
	addl	%r9d, %r8d	# t2, D.12972
	addl	%r8d, %r8d	# D.12972
	movzbl	(%rbx,%rax), %r12d	# MEM[base: _222, index: ivtmp.287_2, offset: 0B], D.12972
	movzbl	(%rdx,%rax), %r11d	# MEM[base: tmp_11(D), index: ivtmp.287_2, offset: 0B], t1
	addl	%r12d, %r11d	# D.12972, D.12972
	subl	%r11d, %r8d	# D.12972, D.12972
	leal	(%r10,%r10,2), %r11d	#, D.12972
	leal	4(%r8,%r11,2), %r8d	#, D.12972
	sarl	$3, %r8d	#, D.12972
	movl	%r8d, %r11d	# D.12972, D.12975
	testl	$-256, %r8d	#, D.12972
	je	.L27	#,
	negl	%r8d	# D.12972
	sarl	$31, %r8d	#, tmp500
	movl	%r8d, %r11d	# tmp500, D.12975
.L27:
	movb	%r11b, (%rdi,%rax)	# D.12975, MEM[base: src_8, index: ivtmp.287_2, offset: 0B]
	movzbl	0(%rbp,%rax), %r11d	# MEM[base: _216, index: ivtmp.287_2, offset: 0B], t1
	movzbl	(%rbx,%rax), %r8d	# MEM[base: _222, index: ivtmp.287_2, offset: 0B], D.12972
	addl	%r10d, %r8d	# t3, D.12972
	addl	%r8d, %r8d	# D.12972
	movzbl	(%r14,%rax), %r12d	# MEM[base: _278, index: ivtmp.287_2, offset: 0B], D.12972
	addl	%r12d, %r9d	# D.12972, D.12972
	subl	%r9d, %r8d	# D.12972, D.12972
	leal	(%r11,%r11,2), %r9d	#, D.12972
	leal	4(%r8,%r9,2), %r8d	#, D.12972
	sarl	$3, %r8d	#, D.12972
	movl	%r8d, %r9d	# D.12972, D.12975
	testl	$-256, %r8d	#, D.12972
	je	.L29	#,
	negl	%r8d	# D.12972
	sarl	$31, %r8d	#, tmp501
	movl	%r8d, %r9d	# tmp501, D.12975
.L29:
	movb	%r9b, 0(%rbp,%rax)	# D.12975, MEM[base: _216, index: ivtmp.287_2, offset: 0B]
	movzbl	(%rbx,%rax), %r9d	# MEM[base: _222, index: ivtmp.287_2, offset: 0B], t2
	movzbl	(%r14,%rax), %r8d	# MEM[base: _278, index: ivtmp.287_2, offset: 0B], D.12972
	addl	%r11d, %r8d	# t1, D.12972
	addl	%r8d, %r8d	# D.12972
	movq	-40(%rsp), %r15	# %sfp, D.12976
	movzbl	(%r15,%rax), %r12d	# MEM[base: _272, index: ivtmp.287_2, offset: 0B], D.12972
	addl	%r12d, %r10d	# D.12972, D.12972
	subl	%r10d, %r8d	# D.12972, D.12972
	leal	(%r9,%r9,2), %r10d	#, D.12972
	leal	4(%r8,%r10,2), %r8d	#, D.12972
	sarl	$3, %r8d	#, D.12972
	movl	%r8d, %r10d	# D.12972, D.12975
	testl	$-256, %r8d	#, D.12972
	je	.L31	#,
	negl	%r8d	# D.12972
	sarl	$31, %r8d	#, tmp503
	movl	%r8d, %r10d	# tmp503, D.12975
.L31:
	movq	-32(%rsp), %r15	# %sfp, D.12976
	movb	%r10b, (%r15,%rax)	# D.12975, MEM[base: _258, index: ivtmp.287_2, offset: 0B]
	movq	-24(%rsp), %r15	# %sfp, D.12976
	movzbl	(%r15,%rax), %r10d	# MEM[base: _260, index: ivtmp.287_2, offset: 0B], t3
	movq	-16(%rsp), %r15	# %sfp, D.12976
	movzbl	(%r15,%rax), %r8d	# MEM[base: _262, index: ivtmp.287_2, offset: 0B], D.12972
	addl	%r9d, %r8d	# t2, D.12972
	addl	%r8d, %r8d	# D.12972
	movq	-8(%rsp), %r15	# %sfp, D.12976
	movzbl	(%r15,%rax), %r12d	# MEM[base: _264, index: ivtmp.287_2, offset: 0B], D.12972
	addl	%r12d, %r11d	# D.12972, D.12972
	subl	%r11d, %r8d	# D.12972, D.12972
	leal	(%r10,%r10,2), %r11d	#, D.12972
	leal	4(%r8,%r11,2), %r8d	#, D.12972
	sarl	$3, %r8d	#, D.12972
	movl	%r8d, %r11d	# D.12972, D.12975
	testl	$-256, %r8d	#, D.12972
	je	.L33	#,
	negl	%r8d	# D.12972
	sarl	$31, %r8d	#, tmp508
	movl	%r8d, %r11d	# tmp508, D.12975
.L33:
	movb	%r11b, 0(%r13,%rax)	# D.12975, MEM[base: _250, index: ivtmp.287_2, offset: 0B]
	leaq	0(%r13,%rsi), %r8	#, D.12976
	movzbl	(%r8,%rax), %r15d	# MEM[base: _252, index: ivtmp.287_2, offset: 0B], t1
	addq	%rsi, %r8	# D.12973, D.12976
	movzbl	(%r8,%rax), %r11d	# MEM[base: _254, index: ivtmp.287_2, offset: 0B], D.12972
	addl	%r10d, %r11d	# t3, D.12972
	addl	%r11d, %r11d	# D.12972
	addq	%rsi, %r8	# D.12973, D.12976
	movzbl	(%r8,%rax), %r8d	# MEM[base: _256, index: ivtmp.287_2, offset: 0B], D.12972
	addl	%r8d, %r9d	# D.12972, D.12972
	subl	%r9d, %r11d	# D.12972, D.12972
	leal	(%r15,%r15,2), %r8d	#, D.12972
	leal	4(%r11,%r8,2), %r8d	#, D.12972
	sarl	$3, %r8d	#, D.12972
	movl	%r8d, %r9d	# D.12972, D.12975
	testl	$-256, %r8d	#, D.12972
	je	.L35	#,
	negl	%r8d	# D.12972
	sarl	$31, %r8d	#, tmp509
	movl	%r8d, %r9d	# tmp509, D.12975
.L35:
	movq	-72(%rsp), %r11	# %sfp, D.12973
	leaq	(%rdi,%r11), %r8	#, D.12976
	movb	%r9b, (%r8,%rax)	# D.12975, MEM[base: _242, index: ivtmp.287_2, offset: 0B]
	addq	%rsi, %r8	# D.12973, D.12976
	movzbl	(%r8,%rax), %r11d	# MEM[base: _244, index: ivtmp.287_2, offset: 0B], t2
	addq	%rsi, %r8	# D.12973, D.12976
	movzbl	(%r8,%rax), %r9d	# MEM[base: _246, index: ivtmp.287_2, offset: 0B], D.12972
	addl	%r15d, %r9d	# t1, D.12972
	addl	%r9d, %r9d	# D.12972
	addq	%rsi, %r8	# D.12973, D.12976
	movzbl	(%r8,%rax), %r8d	# MEM[base: _248, index: ivtmp.287_2, offset: 0B], D.12972
	addl	%r8d, %r10d	# D.12972, D.12972
	subl	%r10d, %r9d	# D.12972, D.12972
	leal	(%r11,%r11,2), %r8d	#, D.12972
	leal	4(%r9,%r8,2), %r8d	#, D.12972
	sarl	$3, %r8d	#, D.12972
	movl	%r8d, %r9d	# D.12972, D.12975
	testl	$-256, %r8d	#, D.12972
	je	.L37	#,
	negl	%r8d	# D.12972
	sarl	$31, %r8d	#, tmp511
	movl	%r8d, %r9d	# tmp511, D.12975
.L37:
	movq	-64(%rsp), %r10	# %sfp, D.12973
	leaq	(%rdi,%r10), %r8	#, D.12976
	movb	%r9b, (%r8,%rax)	# D.12975, MEM[base: _234, index: ivtmp.287_2, offset: 0B]
	addq	%rsi, %r8	# D.12973, D.12976
	movzbl	(%r8,%rax), %r12d	# MEM[base: _236, index: ivtmp.287_2, offset: 0B], D.12974
	movzbl	%r12b, %r9d	# D.12974, t3
	addq	%rsi, %r8	# D.12973, D.12976
	movzbl	(%r8,%rax), %r10d	# MEM[base: _238, index: ivtmp.287_2, offset: 0B], D.12972
	addl	%r11d, %r10d	# t2, D.12972
	addl	%r10d, %r10d	# D.12972
	addq	%rsi, %r8	# D.12973, D.12976
	movzbl	(%r8,%rax), %r8d	# MEM[base: _240, index: ivtmp.287_2, offset: 0B], D.12972
	addl	%r8d, %r15d	# D.12972, D.12972
	subl	%r15d, %r10d	# D.12972, D.12972
	leal	(%r9,%r9,2), %r8d	#, D.12972
	leal	4(%r10,%r8,2), %r8d	#, D.12972
	sarl	$3, %r8d	#, D.12972
	movl	%r8d, %r10d	# D.12972, D.12975
	testl	$-256, %r8d	#, D.12972
	je	.L39	#,
	negl	%r8d	# D.12972
	sarl	$31, %r8d	#, tmp513
	movl	%r8d, %r10d	# tmp513, D.12975
.L39:
	movq	-56(%rsp), %r15	# %sfp, D.12973
	leaq	(%rdi,%r15), %r8	#, D.12976
	movb	%r10b, (%r8,%rax)	# D.12975, MEM[base: _226, index: ivtmp.287_2, offset: 0B]
	addq	%rsi, %r8	# D.12973, D.12976
	movzbl	(%r8,%rax), %r10d	# MEM[base: _228, index: ivtmp.287_2, offset: 0B], D.12974
	addq	%rsi, %r8	# D.12973, D.12976
	movzbl	(%r8,%rax), %r15d	# MEM[base: _230, index: ivtmp.287_2, offset: 0B], D.12972
	addl	%r15d, %r9d	# D.12972, D.12972
	addl	%r9d, %r9d	# D.12972
	addq	%rsi, %r8	# D.12973, D.12976
	movzbl	(%r8,%rax), %r8d	# MEM[base: _232, index: ivtmp.287_2, offset: 0B], D.12972
	addl	%r8d, %r11d	# D.12972, D.12972
	subl	%r11d, %r9d	# D.12972, D.12972
	movzbl	%r10b, %r8d	# D.12974, t1
	leal	(%r8,%r8,2), %r8d	#, D.12972
	leal	4(%r9,%r8,2), %r8d	#, D.12972
	sarl	$3, %r8d	#, D.12972
	movl	%r8d, %r9d	# D.12972, D.12975
	testl	$-256, %r8d	#, D.12972
	je	.L41	#,
	negl	%r8d	# D.12972
	sarl	$31, %r8d	#, tmp515
	movl	%r8d, %r9d	# tmp515, D.12975
.L41:
	movq	-48(%rsp), %r15	# %sfp, D.12973
	leaq	(%rdi,%r15), %r8	#, D.12976
	movb	%r9b, (%r8,%rax)	# D.12975, MEM[base: _224, index: ivtmp.287_2, offset: 0B]
	movb	%r12b, (%rdx,%rax)	# D.12974, MEM[base: tmp_11(D), index: ivtmp.287_2, offset: 0B]
	movb	%r10b, (%rcx,%rax)	# D.12974, MEM[base: tmp2_15(D), index: ivtmp.287_2, offset: 0B]
	addq	$1, %rax	#, ivtmp.287
	cmpq	$8, %rax	#, ivtmp.287
	jne	.L42	#,
	popq	%rbx	#
	.cfi_def_cfa_offset 48
	popq	%rbp	#
	.cfi_def_cfa_offset 40
	popq	%r12	#
	.cfi_def_cfa_offset 32
	popq	%r13	#
	.cfi_def_cfa_offset 24
	popq	%r14	#
	.cfi_def_cfa_offset 16
	popq	%r15	#
	.cfi_def_cfa_offset 8
	ret
	.cfi_endproc
.LFE97:
	.size	deInterlaceL5_C, .-deInterlaceL5_C
	.type	deInterlaceBlendLinear_C, @function
deInterlaceBlendLinear_C:
.LFB98:
	.cfi_startproc
	pushq	%r15	#
	.cfi_def_cfa_offset 16
	.cfi_offset 15, -16
	pushq	%r14	#
	.cfi_def_cfa_offset 24
	.cfi_offset 14, -24
	pushq	%r13	#
	.cfi_def_cfa_offset 32
	.cfi_offset 13, -32
	pushq	%r12	#
	.cfi_def_cfa_offset 40
	.cfi_offset 12, -40
	pushq	%rbp	#
	.cfi_def_cfa_offset 48
	.cfi_offset 6, -48
	pushq	%rbx	#
	.cfi_def_cfa_offset 56
	.cfi_offset 3, -56
	leal	0(,%rsi,4), %r9d	#, D.13007
	movslq	%r9d, %rbp	# D.13007, D.13008
	addq	%rbp, %rdi	# D.13008, src
	leal	(%rsi,%rsi), %ecx	#, D.13007
	movslq	%ecx, %r13	# D.13007, D.13008
	addl	%esi, %ecx	# stride, D.13007
	movslq	%ecx, %r12	# D.13007, D.13008
	addl	%esi, %r9d	# stride, D.13007
	movslq	%r9d, %r9	# D.13007, D.13008
	addl	%ecx, %ecx	# tmp284
	movslq	%ecx, %rcx	# tmp284, D.13008
	leal	0(,%rsi,8), %ebx	#, tmp286
	movl	%ebx, %r11d	# tmp286, D.13007
	subl	%esi, %r11d	# stride, D.13007
	movslq	%r11d, %r11	# D.13007, D.13008
	movslq	%ebx, %rbx	# tmp286, D.13008
	leaq	8(%rdi), %r14	#, D.13012
	movslq	%esi, %rsi	# stride, D.13008
.L46:
	movl	(%rdi), %r8d	# MEM[base: src_205, offset: 0B], b
	movl	(%rdi,%rsi), %eax	# MEM[base: src_205, index: _16, offset: 0B], c
	movl	%eax, %r10d	# c, D.13007
	xorl	(%rdx), %r10d	# MEM[base: tmp_206, offset: 0B], D.13007
	andl	$-16843010, %r10d	#, D.13011
	movq	%r10, %r15	# D.13011, D.13011
	shrq	%r15	# D.13011
	movl	%eax, %r10d	# c, D.13007
	andl	(%rdx), %r10d	# MEM[base: tmp_206, offset: 0B], D.13007
	addl	%r15d, %r10d	# D.13011, D.13010
	movl	%r10d, %r15d	# D.13010, D.13007
	orl	%r8d, %r15d	# b, D.13007
	xorl	%r8d, %r10d	# b, D.13007
	andl	$-16843010, %r10d	#, D.13011
	shrq	%r10	# D.13011
	subl	%r10d, %r15d	# D.13011, tmp299
	movl	%r15d, (%rdi)	# tmp299, MEM[base: src_205, offset: 0B]
	movl	(%rdi,%r13), %r10d	# MEM[base: src_205, index: _39, offset: 0B], a
	movl	%r10d, %r15d	# a, D.13007
	xorl	%r8d, %r15d	# b, D.13007
	andl	$-16843010, %r15d	#, D.13011
	shrq	%r15	# D.13011
	andl	%r10d, %r8d	# a, D.13007
	addl	%r15d, %r8d	# D.13011, D.13010
	movl	%r8d, %r15d	# D.13010, D.13007
	orl	%eax, %r15d	# c, D.13007
	xorl	%eax, %r8d	# c, D.13007
	andl	$-16843010, %r8d	#, D.13011
	shrq	%r8	# D.13011
	subl	%r8d, %r15d	# D.13011, tmp310
	movl	%r15d, (%rdi,%rsi)	# tmp310, MEM[base: src_205, index: _16, offset: 0B]
	movl	(%rdi,%r12), %r8d	# MEM[base: src_205, index: _62, offset: 0B], b
	movl	%r8d, %r15d	# b, D.13007
	xorl	%eax, %r15d	# c, D.13007
	andl	$-16843010, %r15d	#, D.13011
	shrq	%r15	# D.13011
	andl	%r8d, %eax	# b, D.13007
	addl	%r15d, %eax	# D.13011, D.13010
	movl	%eax, %r15d	# D.13010, D.13007
	orl	%r10d, %r15d	# a, D.13007
	xorl	%r10d, %eax	# a, D.13007
	andl	$-16843010, %eax	#, D.13011
	shrq	%rax	# D.13011
	subl	%eax, %r15d	# D.13011, tmp321
	movl	%r15d, (%rdi,%r13)	# tmp321, MEM[base: src_205, index: _39, offset: 0B]
	movl	(%rdi,%rbp), %eax	# MEM[base: src_205, index: _7, offset: 0B], c
	movl	%eax, %r15d	# c, D.13007
	xorl	%r10d, %r15d	# a, D.13007
	andl	$-16843010, %r15d	#, D.13011
	shrq	%r15	# D.13011
	andl	%eax, %r10d	# c, D.13007
	addl	%r15d, %r10d	# D.13011, D.13010
	movl	%r10d, %r15d	# D.13010, D.13007
	orl	%r8d, %r15d	# b, D.13007
	xorl	%r8d, %r10d	# b, D.13007
	andl	$-16843010, %r10d	#, D.13011
	shrq	%r10	# D.13011
	subl	%r10d, %r15d	# D.13011, tmp332
	movl	%r15d, (%rdi,%r12)	# tmp332, MEM[base: src_205, index: _62, offset: 0B]
	movl	(%rdi,%r9), %r10d	# MEM[base: src_205, index: _106, offset: 0B], a
	movl	%r10d, %r15d	# a, D.13007
	xorl	%r8d, %r15d	# b, D.13007
	andl	$-16843010, %r15d	#, D.13011
	shrq	%r15	# D.13011
	andl	%r10d, %r8d	# a, D.13007
	addl	%r15d, %r8d	# D.13011, D.13010
	movl	%r8d, %r15d	# D.13010, D.13007
	orl	%eax, %r15d	# c, D.13007
	xorl	%eax, %r8d	# c, D.13007
	andl	$-16843010, %r8d	#, D.13011
	shrq	%r8	# D.13011
	subl	%r8d, %r15d	# D.13011, tmp343
	movl	%r15d, (%rdi,%rbp)	# tmp343, MEM[base: src_205, index: _7, offset: 0B]
	movl	(%rdi,%rcx), %r15d	# MEM[base: src_205, index: _129, offset: 0B], b
	movl	%r15d, %r8d	# b, D.13007
	xorl	%eax, %r8d	# c, D.13007
	andl	$-16843010, %r8d	#, D.13011
	shrq	%r8	# D.13011
	andl	%r15d, %eax	# b, D.13007
	addl	%r8d, %eax	# D.13011, D.13010
	movl	%eax, %r8d	# D.13010, D.13007
	orl	%r10d, %r8d	# a, D.13007
	xorl	%r10d, %eax	# a, D.13007
	andl	$-16843010, %eax	#, D.13011
	shrq	%rax	# D.13011
	subl	%eax, %r8d	# D.13011, tmp354
	movl	%r8d, (%rdi,%r9)	# tmp354, MEM[base: src_205, index: _106, offset: 0B]
	movl	(%rdi,%r11), %r8d	# MEM[base: src_205, index: _152, offset: 0B], D.13009
	movl	%r8d, %eax	# D.13009, D.13007
	xorl	%r10d, %eax	# a, D.13007
	andl	$-16843010, %eax	#, D.13011
	shrq	%rax	# D.13011
	andl	%r8d, %r10d	# D.13009, D.13007
	addl	%eax, %r10d	# D.13011, D.13010
	movl	%r10d, %eax	# D.13010, D.13007
	orl	%r15d, %eax	# b, D.13007
	xorl	%r15d, %r10d	# b, D.13007
	andl	$-16843010, %r10d	#, D.13011
	shrq	%r10	# D.13011
	subl	%r10d, %eax	# D.13011, tmp365
	movl	%eax, (%rdi,%rcx)	# tmp365, MEM[base: src_205, index: _129, offset: 0B]
	movl	(%rdi,%rbx), %eax	# MEM[base: src_205, index: _175, offset: 0B], a
	movl	%eax, %r10d	# a, D.13007
	xorl	%r15d, %r10d	# b, D.13007
	andl	$-16843010, %r10d	#, D.13011
	shrq	%r10	# D.13011
	andl	%eax, %r15d	# a, D.13007
	leal	(%r15,%r10), %eax	#, D.13010
	movl	%eax, %r10d	# D.13010, D.13007
	orl	%r8d, %r10d	# D.13009, D.13007
	xorl	%r8d, %eax	# D.13009, D.13007
	andl	$-16843010, %eax	#, D.13011
	shrq	%rax	# D.13011
	subl	%eax, %r10d	# D.13011, tmp376
	movl	%r10d, (%rdi,%r11)	# tmp376, MEM[base: src_205, index: _152, offset: 0B]
	movl	%r8d, (%rdx)	# D.13009, MEM[base: tmp_206, offset: 0B]
	addq	$4, %rdi	#, src
	addq	$4, %rdx	#, tmp
	cmpq	%r14, %rdi	# D.13012, src
	jne	.L46	#,
	popq	%rbx	#
	.cfi_def_cfa_offset 48
	popq	%rbp	#
	.cfi_def_cfa_offset 40
	popq	%r12	#
	.cfi_def_cfa_offset 32
	popq	%r13	#
	.cfi_def_cfa_offset 24
	popq	%r14	#
	.cfi_def_cfa_offset 16
	popq	%r15	#
	.cfi_def_cfa_offset 8
	ret
	.cfi_endproc
.LFE98:
	.size	deInterlaceBlendLinear_C, .-deInterlaceBlendLinear_C
	.type	doVertLowPass_MMX, @function
doVertLowPass_MMX:
.LFB105:
	.cfi_startproc
	pushq	%r15	#
	.cfi_def_cfa_offset 16
	.cfi_offset 15, -16
	pushq	%r14	#
	.cfi_def_cfa_offset 24
	.cfi_offset 14, -24
	pushq	%r13	#
	.cfi_def_cfa_offset 32
	.cfi_offset 13, -32
	pushq	%r12	#
	.cfi_def_cfa_offset 40
	.cfi_offset 12, -40
	pushq	%rbp	#
	.cfi_def_cfa_offset 48
	.cfi_offset 6, -48
	pushq	%rbx	#
	.cfi_def_cfa_offset 56
	.cfi_offset 3, -56
	movq	%rdx, -24(%rsp)	# c, %sfp
	leal	(%rsi,%rsi), %ebp	#, l2
	leal	(%rsi,%rbp), %r10d	#, l3
	leal	(%rsi,%r10), %r9d	#, l4
	leal	(%rsi,%r9), %ecx	#, l5
	leal	(%rsi,%rcx), %edx	#, l6
	leal	(%rsi,%rdx), %eax	#, l7
	leal	(%rsi,%rax), %ebx	#, l8
	leal	(%rsi,%rbx), %r11d	#, l9
	movslq	%r10d, %r8	# l3, D.13032
	addq	%r8, %rdi	# D.13032, src
	movslq	%ebp, %r8	# l2, D.13032
	movq	%r8, %r14	# D.13032, D.13032
	movq	%r8, -40(%rsp)	# D.13032, %sfp
	addq	%rdi, %r8	# src, ivtmp.335
	leaq	8(%rdi,%r14), %rdi	#, D.13036
	movq	%rdi, -32(%rsp)	# D.13036, %sfp
	negq	%r14	# D.13032
	movq	%r14, -16(%rsp)	# D.13032, %sfp
	movslq	%esi, %rdi	# stride, D.13032
	movq	%rdi, -96(%rsp)	# D.13032, %sfp
	movslq	%ebx, %rbx	# l8, D.13032
	movq	%rbx, -88(%rsp)	# D.13032, %sfp
	movslq	%r11d, %rbx	# l9, D.13032
	movq	%rbx, -8(%rsp)	# D.13032, %sfp
	movslq	%r10d, %rbx	# l3, D.13032
	movq	%rbx, -80(%rsp)	# D.13032, %sfp
	movslq	%r9d, %rbx	# l4, D.13032
	movq	%rbx, -72(%rsp)	# D.13032, %sfp
	movslq	%ecx, %rcx	# l5, D.13032
	movq	%rcx, -64(%rsp)	# D.13032, %sfp
	movslq	%edx, %rcx	# l6, D.13032
	movq	%rcx, -56(%rsp)	# D.13032, %sfp
	movslq	%eax, %rbp	# l7, D.13032
.L52:
	movq	-16(%rsp), %rax	# %sfp, D.13032
	movzbl	(%r8,%rax), %edx	# MEM[base: _158, index: _160, offset: 0B], D.13031
	movq	%r8, %rax	# ivtmp.335, D.13035
	subq	-40(%rsp), %rax	# %sfp, D.13035
	movq	-96(%rsp), %rbx	# %sfp, D.13032
	movzbl	(%rax,%rbx), %r10d	# MEM[base: _163, index: _22, offset: 0B], D.13031
	movq	-24(%rsp), %rcx	# %sfp, c
	movl	1176(%rcx), %edi	# c_28(D)->QP, D.13031
	movl	%edx, %ecx	# D.13031, D.13031
	subl	%r10d, %ecx	# D.13031, D.13031
	movl	%ecx, %esi	# D.13031, tmp269
	sarl	$31, %esi	#, tmp269
	xorl	%esi, %ecx	# tmp269, tmp270
	subl	%esi, %ecx	# tmp269, D.13031
	cmpl	%edi, %ecx	# D.13031, D.13031
	cmovge	%r10d, %edx	# D.13031,, D.13031, D.13031
	movq	-88(%rsp), %rbx	# %sfp, D.13032
	movzbl	(%rax,%rbx), %ebx	# MEM[base: _163, index: _30, offset: 0B], D.13031
	movq	-8(%rsp), %rcx	# %sfp, D.13032
	movzbl	(%rax,%rcx), %ecx	# MEM[base: _163, index: _34, offset: 0B], D.13031
	movl	%ebx, %esi	# D.13031, D.13031
	subl	%ecx, %esi	# D.13031, D.13031
	movl	%esi, %r9d	# D.13031, tmp274
	sarl	$31, %r9d	#, tmp274
	xorl	%r9d, %esi	# tmp274, tmp275
	subl	%r9d, %esi	# tmp274, D.13031
	cmpl	%esi, %edi	# D.13031, D.13031
	cmovle	%ebx, %ecx	# D.13031,, D.13031, D.13031
	movzbl	(%r8), %r14d	# MEM[base: _158, offset: 0B], D.13031
	movq	-80(%rsp), %rdi	# %sfp, D.13032
	movzbl	(%rax,%rdi), %r13d	# MEM[base: _163, index: _47, offset: 0B], D.13031
	leal	(%r10,%rdx,4), %esi	#, D.13031
	addl	%r14d, %esi	# D.13031, D.13031
	leal	4(%r13,%rsi), %r11d	#, D.13031
	movq	-72(%rsp), %rsi	# %sfp, D.13032
	movzbl	(%rax,%rsi), %r12d	# MEM[base: _163, index: _54, offset: 0B], D.13031
	movl	%r11d, %r9d	# D.13031, D.13031
	subl	%edx, %r9d	# D.13031, D.13031
	addl	%r12d, %r9d	# D.13031, D.13031
	movq	-64(%rsp), %r15	# %sfp, D.13032
	movzbl	(%rax,%r15), %esi	# MEM[base: _163, index: _60, offset: 0B], D.13031
	movl	%r9d, %r15d	# D.13031, D.13031
	subl	%edx, %r15d	# D.13031, D.13031
	movl	%r15d, %edi	# D.13031, D.13031
	movl	%esi, -44(%rsp)	# D.13031, %sfp
	addl	%esi, %edi	# D.13031, D.13031
	movl	%edi, %r15d	# D.13031, D.13031
	subl	%edx, %r15d	# D.13031, D.13031
	movq	-56(%rsp), %rsi	# %sfp, D.13032
	movzbl	(%rax,%rsi), %esi	# MEM[base: _163, index: _66, offset: 0B], D.13031
	addl	%r15d, %esi	# D.13031, D.13031
	movl	%esi, %r15d	# D.13031, D.13031
	subl	%edx, %r15d	# D.13031, D.13031
	movzbl	(%rax,%rbp), %edx	# MEM[base: _163, index: _72, offset: 0B], D.13031
	addl	%edx, %r15d	# D.13031, D.13031
	movl	%r15d, %edx	# D.13031, D.13031
	subl	%r10d, %edx	# D.13031, D.13031
	addl	%ebx, %edx	# D.13031, D.13031
	movl	%edx, %ebx	# D.13031, D.13031
	subl	%r14d, %ebx	# D.13031, D.13031
	movl	%ebx, %r14d	# D.13031, D.13031
	addl	%ecx, %r14d	# D.13031, D.13031
	movl	%r14d, %ebx	# D.13031, D.13031
	subl	%r13d, %ebx	# D.13031, D.13031
	movl	%ebx, %r13d	# D.13031, D.13031
	addl	%ecx, %r13d	# D.13031, D.13031
	movl	%r13d, %ebx	# D.13031, D.13031
	subl	%r12d, %ebx	# D.13031, D.13031
	movl	%ebx, %r12d	# D.13031, D.13031
	addl	%ecx, %r12d	# D.13031, D.13031
	addl	%edi, %r11d	# D.13031, D.13031
	leal	(%r11,%r10,2), %r10d	#, D.13031
	sarl	$4, %r10d	#, D.13031
	movq	-96(%rsp), %r11	# %sfp, D.13032
	movb	%r10b, (%rax,%r11)	# D.13031, MEM[base: _163, index: _22, offset: 0B]
	addl	%esi, %r9d	# D.13031, D.13031
	movzbl	(%r8), %r10d	# MEM[base: _158, offset: 0B], D.13031
	leal	(%r9,%r10,2), %r9d	#, D.13031
	sarl	$4, %r9d	#, D.13031
	movb	%r9b, (%r8)	# D.13031, MEM[base: _158, offset: 0B]
	addl	%r15d, %edi	# D.13031, D.13031
	movq	-80(%rsp), %r11	# %sfp, D.13032
	movzbl	(%rax,%r11), %r9d	# MEM[base: _163, index: _47, offset: 0B], D.13031
	leal	(%rdi,%r9,2), %edi	#, D.13031
	sarl	$4, %edi	#, D.13031
	movb	%dil, (%rax,%r11)	# D.13031, MEM[base: _163, index: _47, offset: 0B]
	addl	%edx, %esi	# D.13031, D.13031
	movq	-72(%rsp), %r11	# %sfp, D.13032
	movzbl	(%rax,%r11), %edi	# MEM[base: _163, index: _54, offset: 0B], D.13031
	leal	(%rsi,%rdi,2), %esi	#, D.13031
	sarl	$4, %esi	#, D.13031
	movb	%sil, (%rax,%r11)	# D.13031, MEM[base: _163, index: _54, offset: 0B]
	addl	%r14d, %r15d	# D.13031, D.13031
	movq	-64(%rsp), %rdi	# %sfp, D.13032
	movzbl	(%rax,%rdi), %esi	# MEM[base: _163, index: _60, offset: 0B], D.13031
	leal	(%r15,%rsi,2), %esi	#, D.13031
	sarl	$4, %esi	#, D.13031
	movb	%sil, (%rax,%rdi)	# D.13031, MEM[base: _163, index: _60, offset: 0B]
	addl	%r13d, %edx	# D.13031, D.13031
	movq	-56(%rsp), %rdi	# %sfp, D.13032
	movzbl	(%rax,%rdi), %esi	# MEM[base: _163, index: _66, offset: 0B], D.13031
	leal	(%rdx,%rsi,2), %edx	#, D.13031
	sarl	$4, %edx	#, D.13031
	movb	%dl, (%rax,%rdi)	# D.13031, MEM[base: _163, index: _66, offset: 0B]
	addl	%r12d, %r14d	# D.13031, D.13031
	movzbl	(%rax,%rbp), %edx	# MEM[base: _163, index: _72, offset: 0B], D.13031
	leal	(%r14,%rdx,2), %edx	#, D.13031
	sarl	$4, %edx	#, D.13031
	movb	%dl, (%rax,%rbp)	# D.13031, MEM[base: _163, index: _72, offset: 0B]
	subl	-44(%rsp), %r12d	# %sfp, D.13031
	addl	%ecx, %r12d	# D.13031, D.13031
	addl	%r12d, %r13d	# D.13031, D.13031
	movq	-88(%rsp), %rbx	# %sfp, D.13032
	movzbl	(%rax,%rbx), %edx	# MEM[base: _163, index: _30, offset: 0B], D.13031
	leal	0(%r13,%rdx,2), %edx	#, D.13031
	sarl	$4, %edx	#, D.13031
	movb	%dl, (%rax,%rbx)	# D.13031, MEM[base: _163, index: _30, offset: 0B]
	addq	$1, %r8	#, ivtmp.335
	cmpq	-32(%rsp), %r8	# %sfp, ivtmp.335
	jne	.L52	#,
	popq	%rbx	#
	.cfi_def_cfa_offset 48
	popq	%rbp	#
	.cfi_def_cfa_offset 40
	popq	%r12	#
	.cfi_def_cfa_offset 32
	popq	%r13	#
	.cfi_def_cfa_offset 24
	popq	%r14	#
	.cfi_def_cfa_offset 16
	popq	%r15	#
	.cfi_def_cfa_offset 8
	ret
	.cfi_endproc
.LFE105:
	.size	doVertLowPass_MMX, .-doVertLowPass_MMX
	.type	doVertDefFilter_MMX, @function
doVertDefFilter_MMX:
.LFB107:
	.cfi_startproc
	leal	0(,%rsi,4), %eax	#, D.13038
	cltq
	addq	%rax, %rdi	# D.13039, src
	movslq	%esi, %rsi	# stride, D.13040
	leaq	-32(%rsp), %rcx	#, tmp94
#APP
# 821 "postprocess_template.c" 1
	pxor %mm7, %mm7                      
	movq (%rdi), %mm0                       	# src
	movq %mm0, %mm1                      
	punpcklbw %mm7, %mm0                 
	punpckhbw %mm7, %mm1                 
	movq (%rdi, %rsi), %mm2                   	# src, D.13040
	lea (%rdi, %rsi, 2), %rax             	# src, D.13040
	movq %mm2, %mm3                      
	punpcklbw %mm7, %mm2                 
	punpckhbw %mm7, %mm3                 
	movq (%rax), %mm4                
	movq %mm4, %mm5                      
	punpcklbw %mm7, %mm4                 
	punpckhbw %mm7, %mm5                 
	paddw %mm0, %mm0                     
	paddw %mm1, %mm1                     
	psubw %mm4, %mm2                     
	psubw %mm5, %mm3                     
	psubw %mm2, %mm0                     
	psubw %mm3, %mm1                     
	psllw $2, %mm2                        
	psllw $2, %mm3                        
	psubw %mm2, %mm0                     
	psubw %mm3, %mm1                     
	movq (%rax, %rsi), %mm2            	# D.13040
	movq %mm2, %mm3                      
	punpcklbw %mm7, %mm2                 
	punpckhbw %mm7, %mm3                 
	psubw %mm2, %mm0                     
	psubw %mm3, %mm1                     
	psubw %mm2, %mm0                     
	psubw %mm3, %mm1                     
	movq %mm0, (%rcx)                       	# tmp94
	movq %mm1, 8(%rcx)                      	# tmp94
	movq (%rax, %rsi, 2), %mm0         	# D.13040
	movq %mm0, %mm1                      
	punpcklbw %mm7, %mm0                 
	punpckhbw %mm7, %mm1                 
	psubw %mm0, %mm2                     
	psubw %mm1, %mm3                     
	movq %mm2, 16(%rcx)                     	# tmp94
	movq %mm3, 24(%rcx)                     	# tmp94
	paddw %mm4, %mm4                     
	paddw %mm5, %mm5                     
	psubw %mm2, %mm4                     
	psubw %mm3, %mm5                     
	lea (%rax, %rsi), %rdi                	# D.13040, src
	psllw $2, %mm2                        
	psllw $2, %mm3                        
	psubw %mm2, %mm4                     
	psubw %mm3, %mm5                     
	movq (%rdi, %rsi, 2), %mm2                	# src, D.13040
	movq %mm2, %mm3                      
	punpcklbw %mm7, %mm2                 
	punpckhbw %mm7, %mm3                 
	psubw %mm2, %mm4                     
	psubw %mm3, %mm5                     
	psubw %mm2, %mm4                     
	psubw %mm3, %mm5                     
	movq (%rax, %rsi, 4), %mm6         	# D.13040
	punpcklbw %mm7, %mm6                 
	psubw %mm6, %mm2                     
	movq (%rax, %rsi, 4), %mm6         	# D.13040
	punpckhbw %mm7, %mm6                 
	psubw %mm6, %mm3                     
	paddw %mm0, %mm0                     
	paddw %mm1, %mm1                     
	psubw %mm2, %mm0                     
	psubw %mm3, %mm1                     
	psllw $2, %mm2                        
	psllw $2, %mm3                        
	psubw %mm2, %mm0                     
	psubw %mm3, %mm1                     
	movq (%rdi, %rsi, 4), %mm2                	# src, D.13040
	movq %mm2, %mm3                      
	punpcklbw %mm7, %mm2                 
	punpckhbw %mm7, %mm3                 
	paddw %mm2, %mm2                     
	paddw %mm3, %mm3                     
	psubw %mm2, %mm0                     
	psubw %mm3, %mm1                     
	movq (%rcx), %mm2                       	# tmp94
	movq 8(%rcx), %mm3                      	# tmp94
	movq %mm7, %mm6                      
	pcmpgtw %mm0, %mm6                   
	pxor %mm6, %mm0                      
	psubw %mm6, %mm0                     
	movq %mm7, %mm6                      
	pcmpgtw %mm1, %mm6                   
	pxor %mm6, %mm1                      
	psubw %mm6, %mm1                     
	movq %mm7, %mm6                      
	pcmpgtw %mm2, %mm6                   
	pxor %mm6, %mm2                      
	psubw %mm6, %mm2                     
	movq %mm7, %mm6                      
	pcmpgtw %mm3, %mm6                   
	pxor %mm6, %mm3                      
	psubw %mm6, %mm3                     
	movq %mm0, %mm6                      
	psubusw %mm2, %mm6                   
	psubw %mm6, %mm0                     
	movq %mm1, %mm6                      
	psubusw %mm3, %mm6                   
	psubw %mm6, %mm1                     
	movd 112(%rdx), %mm2                         	# c_8(D)->pQPb
	punpcklbw %mm7, %mm2                 
	movq %mm7, %mm6                      
	pcmpgtw %mm4, %mm6                   
	pxor %mm6, %mm4                      
	psubw %mm6, %mm4                     
	pcmpgtw %mm5, %mm7                   
	pxor %mm7, %mm5                      
	psubw %mm7, %mm5                     
	psllw $3, %mm2                        
	movq %mm2, %mm3                      
	pcmpgtw %mm4, %mm2                   
	pcmpgtw %mm5, %mm3                   
	pand %mm2, %mm4                      
	pand %mm3, %mm5                      
	psubusw %mm0, %mm4                   
	psubusw %mm1, %mm5                   
	movq w05, %mm2              
	pmullw %mm2, %mm4                    
	pmullw %mm2, %mm5                    
	movq w20, %mm2              
	paddw %mm2, %mm4                     
	paddw %mm2, %mm5                     
	psrlw $6, %mm4                        
	psrlw $6, %mm5                        
	movq 16(%rcx), %mm0                     	# tmp94
	movq 24(%rcx), %mm1                     	# tmp94
	pxor %mm2, %mm2                      
	pxor %mm3, %mm3                      
	pcmpgtw %mm0, %mm2                   
	pcmpgtw %mm1, %mm3                   
	pxor %mm2, %mm0                      
	pxor %mm3, %mm1                      
	psubw %mm2, %mm0                     
	psubw %mm3, %mm1                     
	psrlw $1, %mm0                        
	psrlw $1, %mm1                        
	pxor %mm6, %mm2                      
	pxor %mm7, %mm3                      
	pand %mm2, %mm4                      
	pand %mm3, %mm5                      
	movq %mm4, %mm2                      
	psubusw %mm0, %mm2                   
	psubw %mm2, %mm4                     
	movq %mm5, %mm2                      
	psubusw %mm1, %mm2                   
	psubw %mm2, %mm5                     
	pxor %mm6, %mm4                      
	pxor %mm7, %mm5                      
	psubw %mm6, %mm4                     
	psubw %mm7, %mm5                     
	packsswb %mm5, %mm4                  
	movq (%rdi), %mm0                       	# src
	paddb   %mm4, %mm0                   
	movq %mm0, (%rdi)                       	# src
	movq (%rdi, %rsi), %mm0                   	# src, D.13040
	psubb %mm4, %mm0                     
	movq %mm0, (%rdi, %rsi)                   	# src, D.13040
	
# 0 "" 2
#NO_APP
	ret
	.cfi_endproc
.LFE107:
	.size	doVertDefFilter_MMX, .-doVertDefFilter_MMX
	.type	deInterlaceInterpolateCubic_MMX, @function
deInterlaceInterpolateCubic_MMX:
.LFB110:
	.cfi_startproc
	pushq	%r15	#
	.cfi_def_cfa_offset 16
	.cfi_offset 15, -16
	pushq	%r14	#
	.cfi_def_cfa_offset 24
	.cfi_offset 14, -24
	pushq	%r13	#
	.cfi_def_cfa_offset 32
	.cfi_offset 13, -32
	pushq	%r12	#
	.cfi_def_cfa_offset 40
	.cfi_offset 12, -40
	pushq	%rbp	#
	.cfi_def_cfa_offset 48
	.cfi_offset 6, -48
	pushq	%rbx	#
	.cfi_def_cfa_offset 56
	.cfi_offset 3, -56
	leal	(%rsi,%rsi), %ebx	#, tmp237
	leal	(%rbx,%rsi), %ebp	#, D.13067
	movslq	%ebp, %r14	# D.13067, D.13068
	addq	%r14, %rdi	# D.13068, src
	movslq	%ebx, %rbx	# tmp237, D.13068
	leal	0(,%rsi,4), %r9d	#, D.13067
	movslq	%r9d, %r11	# D.13067, D.13068
	leal	(%rbp,%rbp), %r12d	#, tmp244
	movslq	%r12d, %r12	# tmp244, D.13068
	addl	%esi, %r9d	# stride, D.13067
	movslq	%r9d, %r15	# D.13067, D.13068
	leal	0(,%rsi,8), %eax	#, D.13067
	movslq	%eax, %r10	# D.13067, D.13068
	movl	%eax, %r13d	# D.13067, D.13067
	subl	%esi, %r13d	# stride, D.13067
	movslq	%r13d, %r13	# D.13067, D.13068
	addl	%r9d, %r9d	# tmp255
	movslq	%r9d, %r9	# tmp255, D.13068
	addl	%eax, %esi	# D.13067, D.13067
	movslq	%esi, %rsi	# D.13067, D.13068
	sall	$2, %ebp	#, tmp262
	movslq	%ebp, %rbp	# tmp262, D.13068
	leaq	(%rdi,%r12), %r8	#, ivtmp.355
	leaq	8(%rdi,%r12), %rax	#, D.13073
	movq	%rax, -16(%rsp)	# D.13073, %sfp
	movq	%r12, %rax	# D.13068, D.13068
	negq	%rax	# D.13068
	movq	%rax, -8(%rsp)	# D.13068, %sfp
.L65:
	movq	%r8, %rax	# ivtmp.355, D.13072
	subq	%r12, %rax	# D.13068, D.13072
	movq	%r8, %rcx	# ivtmp.355, D.13072
	movzbl	(%rax,%rbx), %edx	# MEM[base: _133, index: _12, offset: 0B], D.13067
	leal	(%rdx,%rdx,8), %edx	#, D.13067
	movq	-8(%rsp), %rdi	# %sfp, D.13068
	movzbl	(%r8,%rdi), %edi	# MEM[base: _135, index: _137, offset: 0B], D.13067
	subl	%edi, %edx	# D.13067, D.13067
	movzbl	(%rax,%r11), %edi	# MEM[base: _133, index: _21, offset: 0B], D.13067
	leal	(%rdi,%rdi,8), %edi	#, D.13067
	addl	%edi, %edx	# D.13067, D.13067
	movzbl	(%r8), %edi	# MEM[base: _135, offset: 0B], D.13067
	subl	%edi, %edx	# D.13067, D.13067
	sarl	$4, %edx	#, D.13067
	movl	%edx, %edi	# D.13067, D.13070
	testl	$-256, %edx	#, D.13067
	je	.L58	#,
	negl	%edx	# D.13067
	sarl	$31, %edx	#, tmp346
	movl	%edx, %edi	# tmp346, D.13070
.L58:
	movb	%dil, (%rax,%r14)	# D.13070, MEM[base: _133, index: _6, offset: 0B]
	movzbl	(%rax,%r11), %edx	# MEM[base: _133, index: _21, offset: 0B], D.13067
	leal	(%rdx,%rdx,8), %edx	#, D.13067
	movzbl	(%rax,%rbx), %edi	# MEM[base: _133, index: _12, offset: 0B], D.13067
	subl	%edi, %edx	# D.13067, D.13067
	movzbl	(%rcx), %edi	# MEM[base: _135, offset: 0B], D.13067
	leal	(%rdi,%rdi,8), %edi	#, D.13067
	addl	%edi, %edx	# D.13067, D.13067
	movzbl	(%rax,%r10), %edi	# MEM[base: _133, index: _49, offset: 0B], D.13067
	subl	%edi, %edx	# D.13067, D.13067
	sarl	$4, %edx	#, D.13067
	movl	%edx, %edi	# D.13067, D.13070
	testl	$-256, %edx	#, D.13067
	je	.L60	#,
	negl	%edx	# D.13067
	sarl	$31, %edx	#, tmp347
	movl	%edx, %edi	# tmp347, D.13070
.L60:
	movb	%dil, (%rax,%r15)	# D.13070, MEM[base: _133, index: _36, offset: 0B]
	movzbl	(%rcx), %edx	# MEM[base: _135, offset: 0B], D.13067
	leal	(%rdx,%rdx,8), %edx	#, D.13067
	movzbl	(%rax,%r11), %edi	# MEM[base: _133, index: _21, offset: 0B], D.13067
	subl	%edi, %edx	# D.13067, D.13067
	movzbl	(%rax,%r10), %edi	# MEM[base: _133, index: _49, offset: 0B], D.13067
	leal	(%rdi,%rdi,8), %edi	#, D.13067
	addl	%edi, %edx	# D.13067, D.13067
	movzbl	(%rax,%r9), %edi	# MEM[base: _133, index: _70, offset: 0B], D.13067
	subl	%edi, %edx	# D.13067, D.13067
	sarl	$4, %edx	#, D.13067
	movl	%edx, %edi	# D.13067, D.13070
	testl	$-256, %edx	#, D.13067
	je	.L62	#,
	negl	%edx	# D.13067
	sarl	$31, %edx	#, tmp348
	movl	%edx, %edi	# tmp348, D.13070
.L62:
	movb	%dil, (%rax,%r13)	# D.13070, MEM[base: _133, index: _57, offset: 0B]
	movzbl	(%rax,%r10), %edx	# MEM[base: _133, index: _49, offset: 0B], D.13067
	leal	(%rdx,%rdx,8), %edx	#, D.13067
	movzbl	(%rcx), %ecx	# MEM[base: _135, offset: 0B], D.13067
	subl	%ecx, %edx	# D.13067, D.13067
	movzbl	(%rax,%r9), %ecx	# MEM[base: _133, index: _70, offset: 0B], D.13067
	leal	(%rcx,%rcx,8), %ecx	#, D.13067
	addl	%ecx, %edx	# D.13067, D.13067
	movzbl	(%rax,%rbp), %ecx	# MEM[base: _133, index: _91, offset: 0B], D.13067
	subl	%ecx, %edx	# D.13067, D.13067
	sarl	$4, %edx	#, D.13067
	movl	%edx, %ecx	# D.13067, D.13070
	testl	$-256, %edx	#, D.13067
	je	.L64	#,
	negl	%edx	# D.13067
	sarl	$31, %edx	#, tmp349
	movl	%edx, %ecx	# tmp349, D.13070
.L64:
	movb	%cl, (%rax,%rsi)	# D.13070, MEM[base: _133, index: _78, offset: 0B]
	addq	$1, %r8	#, ivtmp.355
	cmpq	-16(%rsp), %r8	# %sfp, ivtmp.355
	jne	.L65	#,
	popq	%rbx	#
	.cfi_def_cfa_offset 48
	popq	%rbp	#
	.cfi_def_cfa_offset 40
	popq	%r12	#
	.cfi_def_cfa_offset 32
	popq	%r13	#
	.cfi_def_cfa_offset 24
	popq	%r14	#
	.cfi_def_cfa_offset 16
	popq	%r15	#
	.cfi_def_cfa_offset 8
	ret
	.cfi_endproc
.LFE110:
	.size	deInterlaceInterpolateCubic_MMX, .-deInterlaceInterpolateCubic_MMX
	.type	deInterlaceFF_MMX, @function
deInterlaceFF_MMX:
.LFB111:
	.cfi_startproc
	pushq	%r15	#
	.cfi_def_cfa_offset 16
	.cfi_offset 15, -16
	pushq	%r14	#
	.cfi_def_cfa_offset 24
	.cfi_offset 14, -24
	pushq	%r13	#
	.cfi_def_cfa_offset 32
	.cfi_offset 13, -32
	pushq	%r12	#
	.cfi_def_cfa_offset 40
	.cfi_offset 12, -40
	pushq	%rbp	#
	.cfi_def_cfa_offset 48
	.cfi_offset 6, -48
	pushq	%rbx	#
	.cfi_def_cfa_offset 56
	.cfi_offset 3, -56
	leal	0(,%rsi,4), %r9d	#, D.13102
	movslq	%r9d, %rbp	# D.13102, D.13103
	addq	%rbp, %rdi	# D.13103, src
	leal	(%rsi,%rsi), %r8d	#, D.13102
	movslq	%r8d, %r10	# D.13102, D.13103
	addl	%esi, %r8d	# stride, D.13102
	movslq	%r8d, %rcx	# D.13102, D.13103
	addl	%esi, %r9d	# stride, D.13102
	movslq	%r9d, %r9	# D.13102, D.13103
	addl	%r8d, %r8d	# tmp254
	movslq	%r8d, %r8	# tmp254, D.13103
	leal	0(,%rsi,8), %r13d	#, tmp256
	movl	%r13d, %ebx	# tmp256, D.13102
	subl	%esi, %ebx	# stride, D.13102
	movslq	%ebx, %rbx	# D.13102, D.13103
	movslq	%r13d, %r15	# tmp256, D.13103
	addl	%esi, %r13d	# stride, D.13102
	movslq	%r13d, %r13	# D.13102, D.13103
	movl	$0, %eax	#, ivtmp.365
	movslq	%esi, %rsi	# stride, D.13103
	leaq	(%rdi,%rsi), %r12	#, D.13106
	leaq	(%r12,%rsi), %r14	#, D.13106
	addq	%r14, %rsi	# D.13106, D.13106
	movq	%rsi, -24(%rsp)	# D.13106, %sfp
	addq	%rdi, %rbp	# src, D.13106
	addq	%rdi, %r9	# src, D.13106
	leaq	(%rdi,%r10), %rsi	#, D.13106
	movq	%rsi, -16(%rsp)	# D.13106, %sfp
	leaq	(%rdi,%rcx), %rsi	#, D.13106
	movq	%rsi, -8(%rsp)	# D.13106, %sfp
	addq	%rdi, %r8	# src, D.13106
	addq	%rdi, %rbx	# src, D.13106
.L77:
	movzbl	(%r12,%rax), %esi	# MEM[base: _133, index: ivtmp.365_2, offset: 0B], t2
	movzbl	(%rdi,%rax), %ecx	# MEM[base: src_8, index: ivtmp.365_2, offset: 0B], D.13102
	sall	$2, %ecx	#, D.13102
	movzbl	(%rdx,%rax), %r10d	# MEM[base: tmp_11(D), index: ivtmp.365_2, offset: 0B], t1
	subl	%r10d, %ecx	# t1, D.13102
	leal	(%rcx,%rsi,2), %ecx	#, D.13102
	movzbl	(%r14,%rax), %r10d	# MEM[base: _139, index: ivtmp.365_2, offset: 0B], D.13102
	leal	(%rcx,%r10,4), %ecx	#, D.13102
	movq	-24(%rsp), %r11	# %sfp, D.13106
	movzbl	(%r11,%rax), %r10d	# MEM[base: _141, index: ivtmp.365_2, offset: 0B], D.13102
	subl	%r10d, %ecx	# D.13102, D.13102
	addl	$4, %ecx	#, D.13102
	sarl	$3, %ecx	#, D.13102
	movl	%ecx, %r10d	# D.13102, D.13105
	testl	$-256, %ecx	#, D.13102
	je	.L70	#,
	negl	%ecx	# D.13102
	sarl	$31, %ecx	#, tmp347
	movl	%ecx, %r10d	# tmp347, D.13105
.L70:
	movb	%r10b, (%r12,%rax)	# D.13105, MEM[base: _133, index: ivtmp.365_2, offset: 0B]
	movzbl	0(%rbp,%rax), %r10d	# MEM[base: _163, index: ivtmp.365_2, offset: 0B], t1
	movq	-16(%rsp), %rcx	# %sfp, D.13106
	movzbl	(%rcx,%rax), %ecx	# MEM[base: _165, index: ivtmp.365_2, offset: 0B], D.13102
	sall	$2, %ecx	#, D.13102
	subl	%esi, %ecx	# t2, D.13102
	leal	(%rcx,%r10,2), %ecx	#, D.13102
	leal	(%rcx,%r10,4), %ecx	#, D.13102
	movzbl	(%r9,%rax), %esi	# MEM[base: _167, index: ivtmp.365_2, offset: 0B], D.13102
	subl	%esi, %ecx	# D.13102, D.13102
	addl	$4, %ecx	#, D.13102
	sarl	$3, %ecx	#, D.13102
	movl	%ecx, %esi	# D.13102, D.13105
	testl	$-256, %ecx	#, D.13102
	je	.L72	#,
	negl	%ecx	# D.13102
	sarl	$31, %ecx	#, tmp349
	movl	%ecx, %esi	# tmp349, D.13105
.L72:
	movq	-8(%rsp), %rcx	# %sfp, D.13106
	movb	%sil, (%rcx,%rax)	# D.13105, MEM[base: _153, index: ivtmp.365_2, offset: 0B]
	movzbl	(%r8,%rax), %esi	# MEM[base: _155, index: ivtmp.365_2, offset: 0B], t2
	movzbl	0(%rbp,%rax), %ecx	# MEM[base: _163, index: ivtmp.365_2, offset: 0B], D.13102
	sall	$2, %ecx	#, D.13102
	subl	%r10d, %ecx	# t1, D.13102
	leal	(%rcx,%rsi,2), %ecx	#, D.13102
	leal	(%rcx,%rsi,4), %ecx	#, D.13102
	movzbl	(%rbx,%rax), %r10d	# MEM[base: _159, index: ivtmp.365_2, offset: 0B], D.13102
	subl	%r10d, %ecx	# D.13102, D.13102
	addl	$4, %ecx	#, D.13102
	sarl	$3, %ecx	#, D.13102
	movl	%ecx, %r10d	# D.13102, D.13105
	testl	$-256, %ecx	#, D.13102
	je	.L74	#,
	negl	%ecx	# D.13102
	sarl	$31, %ecx	#, tmp351
	movl	%ecx, %r10d	# tmp351, D.13105
.L74:
	movb	%r10b, (%r9,%rax)	# D.13105, MEM[base: _167, index: ivtmp.365_2, offset: 0B]
	leaq	(%rdi,%r15), %rcx	#, D.13106
	movzbl	(%rcx,%rax), %r10d	# MEM[base: _147, index: ivtmp.365_2, offset: 0B], D.13104
	movzbl	%r10b, %r11d	# D.13104, t1
	movzbl	(%r8,%rax), %ecx	# MEM[base: _155, index: ivtmp.365_2, offset: 0B], D.13102
	sall	$2, %ecx	#, D.13102
	subl	%esi, %ecx	# t2, D.13102
	leal	(%rcx,%r11,2), %ecx	#, D.13102
	leal	(%rcx,%r11,4), %ecx	#, D.13102
	leaq	(%rdi,%r13), %rsi	#, D.13106
	movzbl	(%rsi,%rax), %esi	# MEM[base: _151, index: ivtmp.365_2, offset: 0B], D.13102
	subl	%esi, %ecx	# D.13102, D.13102
	addl	$4, %ecx	#, D.13102
	sarl	$3, %ecx	#, D.13102
	movl	%ecx, %esi	# D.13102, D.13105
	testl	$-256, %ecx	#, D.13102
	je	.L76	#,
	negl	%ecx	# D.13102
	sarl	$31, %ecx	#, tmp352
	movl	%ecx, %esi	# tmp352, D.13105
.L76:
	movb	%sil, (%rbx,%rax)	# D.13105, MEM[base: _159, index: ivtmp.365_2, offset: 0B]
	movb	%r10b, (%rdx,%rax)	# D.13104, MEM[base: tmp_11(D), index: ivtmp.365_2, offset: 0B]
	addq	$1, %rax	#, ivtmp.365
	cmpq	$8, %rax	#, ivtmp.365
	jne	.L77	#,
	popq	%rbx	#
	.cfi_def_cfa_offset 48
	popq	%rbp	#
	.cfi_def_cfa_offset 40
	popq	%r12	#
	.cfi_def_cfa_offset 32
	popq	%r13	#
	.cfi_def_cfa_offset 24
	popq	%r14	#
	.cfi_def_cfa_offset 16
	popq	%r15	#
	.cfi_def_cfa_offset 8
	ret
	.cfi_endproc
.LFE111:
	.size	deInterlaceFF_MMX, .-deInterlaceFF_MMX
	.type	deInterlaceL5_MMX, @function
deInterlaceL5_MMX:
.LFB112:
	.cfi_startproc
	pushq	%r15	#
	.cfi_def_cfa_offset 16
	.cfi_offset 15, -16
	pushq	%r14	#
	.cfi_def_cfa_offset 24
	.cfi_offset 14, -24
	pushq	%r13	#
	.cfi_def_cfa_offset 32
	.cfi_offset 13, -32
	pushq	%r12	#
	.cfi_def_cfa_offset 40
	.cfi_offset 12, -40
	pushq	%rbp	#
	.cfi_def_cfa_offset 48
	.cfi_offset 6, -48
	pushq	%rbx	#
	.cfi_def_cfa_offset 56
	.cfi_offset 3, -56
	leal	0(,%rsi,4), %r9d	#, D.13127
	movslq	%r9d, %rax	# D.13127, D.13128
	movq	%rax, -72(%rsp)	# D.13128, %sfp
	addq	%rax, %rdi	# D.13128, src
	leal	(%rsi,%rsi), %eax	#, D.13127
	movslq	%eax, %r8	# D.13127, D.13128
	addl	%esi, %eax	# stride, D.13127
	movslq	%eax, %r13	# D.13127, D.13128
	addl	%esi, %r9d	# stride, D.13127
	movslq	%r9d, %rbx	# D.13127, D.13128
	movq	%rbx, -64(%rsp)	# D.13128, %sfp
	addl	%eax, %eax	# tmp335
	cltq
	movq	%rax, -56(%rsp)	# D.13128, %sfp
	leal	0(,%rsi,8), %eax	#, tmp337
	subl	%esi, %eax	# stride, D.13127
	cltq
	movq	%rax, -48(%rsp)	# D.13128, %sfp
	movl	$0, %eax	#, ivtmp.384
	movslq	%esi, %rsi	# stride, D.13128
	leaq	(%rdi,%rsi), %rbp	#, D.13131
	leaq	0(%rbp,%rsi), %rbx	#, D.13131
	leaq	(%rbx,%rsi), %r14	#, D.13131
	leaq	(%r14,%rsi), %r15	#, D.13131
	movq	%r15, -40(%rsp)	# D.13131, %sfp
	leaq	(%rdi,%r8), %r15	#, D.13131
	movq	%r15, -32(%rsp)	# D.13131, %sfp
	addq	%rsi, %r15	# D.13128, D.13131
	movq	%r15, -24(%rsp)	# D.13131, %sfp
	addq	%rsi, %r15	# D.13128, D.13131
	movq	%r15, -16(%rsp)	# D.13131, %sfp
	addq	%rsi, %r15	# D.13128, D.13131
	movq	%r15, -8(%rsp)	# D.13131, %sfp
	addq	%rdi, %r13	# src, D.13131
.L97:
	movzbl	(%rcx,%rax), %r9d	# MEM[base: tmp2_15(D), index: ivtmp.384_2, offset: 0B], t2
	movzbl	(%rdi,%rax), %r10d	# MEM[base: src_8, index: ivtmp.384_2, offset: 0B], t3
	movzbl	0(%rbp,%rax), %r8d	# MEM[base: _216, index: ivtmp.384_2, offset: 0B], D.13127
	addl	%r9d, %r8d	# t2, D.13127
	addl	%r8d, %r8d	# D.13127
	movzbl	(%rbx,%rax), %r12d	# MEM[base: _222, index: ivtmp.384_2, offset: 0B], D.13127
	movzbl	(%rdx,%rax), %r11d	# MEM[base: tmp_11(D), index: ivtmp.384_2, offset: 0B], t1
	addl	%r12d, %r11d	# D.13127, D.13127
	subl	%r11d, %r8d	# D.13127, D.13127
	leal	(%r10,%r10,2), %r11d	#, D.13127
	leal	4(%r8,%r11,2), %r8d	#, D.13127
	sarl	$3, %r8d	#, D.13127
	movl	%r8d, %r11d	# D.13127, D.13130
	testl	$-256, %r8d	#, D.13127
	je	.L82	#,
	negl	%r8d	# D.13127
	sarl	$31, %r8d	#, tmp500
	movl	%r8d, %r11d	# tmp500, D.13130
.L82:
	movb	%r11b, (%rdi,%rax)	# D.13130, MEM[base: src_8, index: ivtmp.384_2, offset: 0B]
	movzbl	0(%rbp,%rax), %r11d	# MEM[base: _216, index: ivtmp.384_2, offset: 0B], t1
	movzbl	(%rbx,%rax), %r8d	# MEM[base: _222, index: ivtmp.384_2, offset: 0B], D.13127
	addl	%r10d, %r8d	# t3, D.13127
	addl	%r8d, %r8d	# D.13127
	movzbl	(%r14,%rax), %r12d	# MEM[base: _278, index: ivtmp.384_2, offset: 0B], D.13127
	addl	%r12d, %r9d	# D.13127, D.13127
	subl	%r9d, %r8d	# D.13127, D.13127
	leal	(%r11,%r11,2), %r9d	#, D.13127
	leal	4(%r8,%r9,2), %r8d	#, D.13127
	sarl	$3, %r8d	#, D.13127
	movl	%r8d, %r9d	# D.13127, D.13130
	testl	$-256, %r8d	#, D.13127
	je	.L84	#,
	negl	%r8d	# D.13127
	sarl	$31, %r8d	#, tmp501
	movl	%r8d, %r9d	# tmp501, D.13130
.L84:
	movb	%r9b, 0(%rbp,%rax)	# D.13130, MEM[base: _216, index: ivtmp.384_2, offset: 0B]
	movzbl	(%rbx,%rax), %r9d	# MEM[base: _222, index: ivtmp.384_2, offset: 0B], t2
	movzbl	(%r14,%rax), %r8d	# MEM[base: _278, index: ivtmp.384_2, offset: 0B], D.13127
	addl	%r11d, %r8d	# t1, D.13127
	addl	%r8d, %r8d	# D.13127
	movq	-40(%rsp), %r15	# %sfp, D.13131
	movzbl	(%r15,%rax), %r12d	# MEM[base: _272, index: ivtmp.384_2, offset: 0B], D.13127
	addl	%r12d, %r10d	# D.13127, D.13127
	subl	%r10d, %r8d	# D.13127, D.13127
	leal	(%r9,%r9,2), %r10d	#, D.13127
	leal	4(%r8,%r10,2), %r8d	#, D.13127
	sarl	$3, %r8d	#, D.13127
	movl	%r8d, %r10d	# D.13127, D.13130
	testl	$-256, %r8d	#, D.13127
	je	.L86	#,
	negl	%r8d	# D.13127
	sarl	$31, %r8d	#, tmp503
	movl	%r8d, %r10d	# tmp503, D.13130
.L86:
	movq	-32(%rsp), %r15	# %sfp, D.13131
	movb	%r10b, (%r15,%rax)	# D.13130, MEM[base: _258, index: ivtmp.384_2, offset: 0B]
	movq	-24(%rsp), %r15	# %sfp, D.13131
	movzbl	(%r15,%rax), %r10d	# MEM[base: _260, index: ivtmp.384_2, offset: 0B], t3
	movq	-16(%rsp), %r15	# %sfp, D.13131
	movzbl	(%r15,%rax), %r8d	# MEM[base: _262, index: ivtmp.384_2, offset: 0B], D.13127
	addl	%r9d, %r8d	# t2, D.13127
	addl	%r8d, %r8d	# D.13127
	movq	-8(%rsp), %r15	# %sfp, D.13131
	movzbl	(%r15,%rax), %r12d	# MEM[base: _264, index: ivtmp.384_2, offset: 0B], D.13127
	addl	%r12d, %r11d	# D.13127, D.13127
	subl	%r11d, %r8d	# D.13127, D.13127
	leal	(%r10,%r10,2), %r11d	#, D.13127
	leal	4(%r8,%r11,2), %r8d	#, D.13127
	sarl	$3, %r8d	#, D.13127
	movl	%r8d, %r11d	# D.13127, D.13130
	testl	$-256, %r8d	#, D.13127
	je	.L88	#,
	negl	%r8d	# D.13127
	sarl	$31, %r8d	#, tmp508
	movl	%r8d, %r11d	# tmp508, D.13130
.L88:
	movb	%r11b, 0(%r13,%rax)	# D.13130, MEM[base: _250, index: ivtmp.384_2, offset: 0B]
	leaq	0(%r13,%rsi), %r8	#, D.13131
	movzbl	(%r8,%rax), %r15d	# MEM[base: _252, index: ivtmp.384_2, offset: 0B], t1
	addq	%rsi, %r8	# D.13128, D.13131
	movzbl	(%r8,%rax), %r11d	# MEM[base: _254, index: ivtmp.384_2, offset: 0B], D.13127
	addl	%r10d, %r11d	# t3, D.13127
	addl	%r11d, %r11d	# D.13127
	addq	%rsi, %r8	# D.13128, D.13131
	movzbl	(%r8,%rax), %r8d	# MEM[base: _256, index: ivtmp.384_2, offset: 0B], D.13127
	addl	%r8d, %r9d	# D.13127, D.13127
	subl	%r9d, %r11d	# D.13127, D.13127
	leal	(%r15,%r15,2), %r8d	#, D.13127
	leal	4(%r11,%r8,2), %r8d	#, D.13127
	sarl	$3, %r8d	#, D.13127
	movl	%r8d, %r9d	# D.13127, D.13130
	testl	$-256, %r8d	#, D.13127
	je	.L90	#,
	negl	%r8d	# D.13127
	sarl	$31, %r8d	#, tmp509
	movl	%r8d, %r9d	# tmp509, D.13130
.L90:
	movq	-72(%rsp), %r11	# %sfp, D.13128
	leaq	(%rdi,%r11), %r8	#, D.13131
	movb	%r9b, (%r8,%rax)	# D.13130, MEM[base: _242, index: ivtmp.384_2, offset: 0B]
	addq	%rsi, %r8	# D.13128, D.13131
	movzbl	(%r8,%rax), %r11d	# MEM[base: _244, index: ivtmp.384_2, offset: 0B], t2
	addq	%rsi, %r8	# D.13128, D.13131
	movzbl	(%r8,%rax), %r9d	# MEM[base: _246, index: ivtmp.384_2, offset: 0B], D.13127
	addl	%r15d, %r9d	# t1, D.13127
	addl	%r9d, %r9d	# D.13127
	addq	%rsi, %r8	# D.13128, D.13131
	movzbl	(%r8,%rax), %r8d	# MEM[base: _248, index: ivtmp.384_2, offset: 0B], D.13127
	addl	%r8d, %r10d	# D.13127, D.13127
	subl	%r10d, %r9d	# D.13127, D.13127
	leal	(%r11,%r11,2), %r8d	#, D.13127
	leal	4(%r9,%r8,2), %r8d	#, D.13127
	sarl	$3, %r8d	#, D.13127
	movl	%r8d, %r9d	# D.13127, D.13130
	testl	$-256, %r8d	#, D.13127
	je	.L92	#,
	negl	%r8d	# D.13127
	sarl	$31, %r8d	#, tmp511
	movl	%r8d, %r9d	# tmp511, D.13130
.L92:
	movq	-64(%rsp), %r10	# %sfp, D.13128
	leaq	(%rdi,%r10), %r8	#, D.13131
	movb	%r9b, (%r8,%rax)	# D.13130, MEM[base: _234, index: ivtmp.384_2, offset: 0B]
	addq	%rsi, %r8	# D.13128, D.13131
	movzbl	(%r8,%rax), %r12d	# MEM[base: _236, index: ivtmp.384_2, offset: 0B], D.13129
	movzbl	%r12b, %r9d	# D.13129, t3
	addq	%rsi, %r8	# D.13128, D.13131
	movzbl	(%r8,%rax), %r10d	# MEM[base: _238, index: ivtmp.384_2, offset: 0B], D.13127
	addl	%r11d, %r10d	# t2, D.13127
	addl	%r10d, %r10d	# D.13127
	addq	%rsi, %r8	# D.13128, D.13131
	movzbl	(%r8,%rax), %r8d	# MEM[base: _240, index: ivtmp.384_2, offset: 0B], D.13127
	addl	%r8d, %r15d	# D.13127, D.13127
	subl	%r15d, %r10d	# D.13127, D.13127
	leal	(%r9,%r9,2), %r8d	#, D.13127
	leal	4(%r10,%r8,2), %r8d	#, D.13127
	sarl	$3, %r8d	#, D.13127
	movl	%r8d, %r10d	# D.13127, D.13130
	testl	$-256, %r8d	#, D.13127
	je	.L94	#,
	negl	%r8d	# D.13127
	sarl	$31, %r8d	#, tmp513
	movl	%r8d, %r10d	# tmp513, D.13130
.L94:
	movq	-56(%rsp), %r15	# %sfp, D.13128
	leaq	(%rdi,%r15), %r8	#, D.13131
	movb	%r10b, (%r8,%rax)	# D.13130, MEM[base: _226, index: ivtmp.384_2, offset: 0B]
	addq	%rsi, %r8	# D.13128, D.13131
	movzbl	(%r8,%rax), %r10d	# MEM[base: _228, index: ivtmp.384_2, offset: 0B], D.13129
	addq	%rsi, %r8	# D.13128, D.13131
	movzbl	(%r8,%rax), %r15d	# MEM[base: _230, index: ivtmp.384_2, offset: 0B], D.13127
	addl	%r15d, %r9d	# D.13127, D.13127
	addl	%r9d, %r9d	# D.13127
	addq	%rsi, %r8	# D.13128, D.13131
	movzbl	(%r8,%rax), %r8d	# MEM[base: _232, index: ivtmp.384_2, offset: 0B], D.13127
	addl	%r8d, %r11d	# D.13127, D.13127
	subl	%r11d, %r9d	# D.13127, D.13127
	movzbl	%r10b, %r8d	# D.13129, t1
	leal	(%r8,%r8,2), %r8d	#, D.13127
	leal	4(%r9,%r8,2), %r8d	#, D.13127
	sarl	$3, %r8d	#, D.13127
	movl	%r8d, %r9d	# D.13127, D.13130
	testl	$-256, %r8d	#, D.13127
	je	.L96	#,
	negl	%r8d	# D.13127
	sarl	$31, %r8d	#, tmp515
	movl	%r8d, %r9d	# tmp515, D.13130
.L96:
	movq	-48(%rsp), %r15	# %sfp, D.13128
	leaq	(%rdi,%r15), %r8	#, D.13131
	movb	%r9b, (%r8,%rax)	# D.13130, MEM[base: _224, index: ivtmp.384_2, offset: 0B]
	movb	%r12b, (%rdx,%rax)	# D.13129, MEM[base: tmp_11(D), index: ivtmp.384_2, offset: 0B]
	movb	%r10b, (%rcx,%rax)	# D.13129, MEM[base: tmp2_15(D), index: ivtmp.384_2, offset: 0B]
	addq	$1, %rax	#, ivtmp.384
	cmpq	$8, %rax	#, ivtmp.384
	jne	.L97	#,
	popq	%rbx	#
	.cfi_def_cfa_offset 48
	popq	%rbp	#
	.cfi_def_cfa_offset 40
	popq	%r12	#
	.cfi_def_cfa_offset 32
	popq	%r13	#
	.cfi_def_cfa_offset 24
	popq	%r14	#
	.cfi_def_cfa_offset 16
	popq	%r15	#
	.cfi_def_cfa_offset 8
	ret
	.cfi_endproc
.LFE112:
	.size	deInterlaceL5_MMX, .-deInterlaceL5_MMX
	.type	deInterlaceBlendLinear_MMX, @function
deInterlaceBlendLinear_MMX:
.LFB113:
	.cfi_startproc
	pushq	%r15	#
	.cfi_def_cfa_offset 16
	.cfi_offset 15, -16
	pushq	%r14	#
	.cfi_def_cfa_offset 24
	.cfi_offset 14, -24
	pushq	%r13	#
	.cfi_def_cfa_offset 32
	.cfi_offset 13, -32
	pushq	%r12	#
	.cfi_def_cfa_offset 40
	.cfi_offset 12, -40
	pushq	%rbp	#
	.cfi_def_cfa_offset 48
	.cfi_offset 6, -48
	pushq	%rbx	#
	.cfi_def_cfa_offset 56
	.cfi_offset 3, -56
	leal	0(,%rsi,4), %r9d	#, D.13162
	movslq	%r9d, %rbp	# D.13162, D.13163
	addq	%rbp, %rdi	# D.13163, src
	leal	(%rsi,%rsi), %ecx	#, D.13162
	movslq	%ecx, %r13	# D.13162, D.13163
	addl	%esi, %ecx	# stride, D.13162
	movslq	%ecx, %r12	# D.13162, D.13163
	addl	%esi, %r9d	# stride, D.13162
	movslq	%r9d, %r9	# D.13162, D.13163
	addl	%ecx, %ecx	# tmp272
	movslq	%ecx, %rcx	# tmp272, D.13163
	leal	0(,%rsi,8), %ebx	#, tmp274
	movl	%ebx, %r11d	# tmp274, D.13162
	subl	%esi, %r11d	# stride, D.13162
	movslq	%r11d, %r11	# D.13162, D.13163
	movslq	%ebx, %rbx	# tmp274, D.13163
	leaq	8(%rdi), %r14	#, D.13167
	movslq	%esi, %rsi	# stride, D.13163
.L101:
	movl	(%rdi), %r8d	# MEM[base: src_205, offset: 0B], b
	movl	(%rdi,%rsi), %eax	# MEM[base: src_205, index: _16, offset: 0B], c
	movl	%eax, %r10d	# c, D.13162
	xorl	(%rdx), %r10d	# MEM[base: tmp_206, offset: 0B], D.13162
	andl	$-16843010, %r10d	#, D.13166
	movq	%r10, %r15	# D.13166, D.13166
	shrq	%r15	# D.13166
	movl	%eax, %r10d	# c, D.13162
	andl	(%rdx), %r10d	# MEM[base: tmp_206, offset: 0B], D.13162
	addl	%r15d, %r10d	# D.13166, D.13165
	movl	%r10d, %r15d	# D.13165, D.13162
	orl	%r8d, %r15d	# b, D.13162
	xorl	%r8d, %r10d	# b, D.13162
	andl	$-16843010, %r10d	#, D.13166
	shrq	%r10	# D.13166
	subl	%r10d, %r15d	# D.13166, tmp287
	movl	%r15d, (%rdi)	# tmp287, MEM[base: src_205, offset: 0B]
	movl	(%rdi,%r13), %r10d	# MEM[base: src_205, index: _39, offset: 0B], a
	movl	%r10d, %r15d	# a, D.13162
	xorl	%r8d, %r15d	# b, D.13162
	andl	$-16843010, %r15d	#, D.13166
	shrq	%r15	# D.13166
	andl	%r10d, %r8d	# a, D.13162
	addl	%r15d, %r8d	# D.13166, D.13165
	movl	%r8d, %r15d	# D.13165, D.13162
	orl	%eax, %r15d	# c, D.13162
	xorl	%eax, %r8d	# c, D.13162
	andl	$-16843010, %r8d	#, D.13166
	shrq	%r8	# D.13166
	subl	%r8d, %r15d	# D.13166, tmp298
	movl	%r15d, (%rdi,%rsi)	# tmp298, MEM[base: src_205, index: _16, offset: 0B]
	movl	(%rdi,%r12), %r8d	# MEM[base: src_205, index: _62, offset: 0B], b
	movl	%r8d, %r15d	# b, D.13162
	xorl	%eax, %r15d	# c, D.13162
	andl	$-16843010, %r15d	#, D.13166
	shrq	%r15	# D.13166
	andl	%r8d, %eax	# b, D.13162
	addl	%r15d, %eax	# D.13166, D.13165
	movl	%eax, %r15d	# D.13165, D.13162
	orl	%r10d, %r15d	# a, D.13162
	xorl	%r10d, %eax	# a, D.13162
	andl	$-16843010, %eax	#, D.13166
	shrq	%rax	# D.13166
	subl	%eax, %r15d	# D.13166, tmp309
	movl	%r15d, (%rdi,%r13)	# tmp309, MEM[base: src_205, index: _39, offset: 0B]
	movl	(%rdi,%rbp), %eax	# MEM[base: src_205, index: _7, offset: 0B], c
	movl	%eax, %r15d	# c, D.13162
	xorl	%r10d, %r15d	# a, D.13162
	andl	$-16843010, %r15d	#, D.13166
	shrq	%r15	# D.13166
	andl	%eax, %r10d	# c, D.13162
	addl	%r15d, %r10d	# D.13166, D.13165
	movl	%r10d, %r15d	# D.13165, D.13162
	orl	%r8d, %r15d	# b, D.13162
	xorl	%r8d, %r10d	# b, D.13162
	andl	$-16843010, %r10d	#, D.13166
	shrq	%r10	# D.13166
	subl	%r10d, %r15d	# D.13166, tmp320
	movl	%r15d, (%rdi,%r12)	# tmp320, MEM[base: src_205, index: _62, offset: 0B]
	movl	(%rdi,%r9), %r10d	# MEM[base: src_205, index: _106, offset: 0B], a
	movl	%r10d, %r15d	# a, D.13162
	xorl	%r8d, %r15d	# b, D.13162
	andl	$-16843010, %r15d	#, D.13166
	shrq	%r15	# D.13166
	andl	%r10d, %r8d	# a, D.13162
	addl	%r15d, %r8d	# D.13166, D.13165
	movl	%r8d, %r15d	# D.13165, D.13162
	orl	%eax, %r15d	# c, D.13162
	xorl	%eax, %r8d	# c, D.13162
	andl	$-16843010, %r8d	#, D.13166
	shrq	%r8	# D.13166
	subl	%r8d, %r15d	# D.13166, tmp331
	movl	%r15d, (%rdi,%rbp)	# tmp331, MEM[base: src_205, index: _7, offset: 0B]
	movl	(%rdi,%rcx), %r15d	# MEM[base: src_205, index: _129, offset: 0B], b
	movl	%r15d, %r8d	# b, D.13162
	xorl	%eax, %r8d	# c, D.13162
	andl	$-16843010, %r8d	#, D.13166
	shrq	%r8	# D.13166
	andl	%r15d, %eax	# b, D.13162
	addl	%r8d, %eax	# D.13166, D.13165
	movl	%eax, %r8d	# D.13165, D.13162
	orl	%r10d, %r8d	# a, D.13162
	xorl	%r10d, %eax	# a, D.13162
	andl	$-16843010, %eax	#, D.13166
	shrq	%rax	# D.13166
	subl	%eax, %r8d	# D.13166, tmp342
	movl	%r8d, (%rdi,%r9)	# tmp342, MEM[base: src_205, index: _106, offset: 0B]
	movl	(%rdi,%r11), %r8d	# MEM[base: src_205, index: _152, offset: 0B], D.13164
	movl	%r8d, %eax	# D.13164, D.13162
	xorl	%r10d, %eax	# a, D.13162
	andl	$-16843010, %eax	#, D.13166
	shrq	%rax	# D.13166
	andl	%r8d, %r10d	# D.13164, D.13162
	addl	%eax, %r10d	# D.13166, D.13165
	movl	%r10d, %eax	# D.13165, D.13162
	orl	%r15d, %eax	# b, D.13162
	xorl	%r15d, %r10d	# b, D.13162
	andl	$-16843010, %r10d	#, D.13166
	shrq	%r10	# D.13166
	subl	%r10d, %eax	# D.13166, tmp353
	movl	%eax, (%rdi,%rcx)	# tmp353, MEM[base: src_205, index: _129, offset: 0B]
	movl	(%rdi,%rbx), %eax	# MEM[base: src_205, index: _175, offset: 0B], a
	movl	%eax, %r10d	# a, D.13162
	xorl	%r15d, %r10d	# b, D.13162
	andl	$-16843010, %r10d	#, D.13166
	shrq	%r10	# D.13166
	andl	%eax, %r15d	# a, D.13162
	leal	(%r15,%r10), %eax	#, D.13165
	movl	%eax, %r10d	# D.13165, D.13162
	orl	%r8d, %r10d	# D.13164, D.13162
	xorl	%r8d, %eax	# D.13164, D.13162
	andl	$-16843010, %eax	#, D.13166
	shrq	%rax	# D.13166
	subl	%eax, %r10d	# D.13166, tmp364
	movl	%r10d, (%rdi,%r11)	# tmp364, MEM[base: src_205, index: _152, offset: 0B]
	movl	%r8d, (%rdx)	# D.13164, MEM[base: tmp_206, offset: 0B]
	addq	$4, %rdi	#, src
	addq	$4, %rdx	#, tmp
	cmpq	%r14, %rdi	# D.13167, src
	jne	.L101	#,
	popq	%rbx	#
	.cfi_def_cfa_offset 48
	popq	%rbp	#
	.cfi_def_cfa_offset 40
	popq	%r12	#
	.cfi_def_cfa_offset 32
	popq	%r13	#
	.cfi_def_cfa_offset 24
	popq	%r14	#
	.cfi_def_cfa_offset 16
	popq	%r15	#
	.cfi_def_cfa_offset 8
	ret
	.cfi_endproc
.LFE113:
	.size	deInterlaceBlendLinear_MMX, .-deInterlaceBlendLinear_MMX
	.type	deInterlaceMedian_MMX, @function
deInterlaceMedian_MMX:
.LFB114:
	.cfi_startproc
	leal	0(,%rsi,4), %eax	#, D.13174
	cltq
	addq	%rax, %rdi	# D.13175, src
	movslq	%esi, %rsi	# stride, D.13176
#APP
# 1926 "postprocess_template.c" 1
	lea (%rdi, %rsi), %rax                	# src, D.13176
	lea (%rax, %rsi, 4), %rdx      	# D.13176
	pxor %mm7, %mm7                      
	movq (%rdi), %mm0                     	# src
	movq (%rax), %mm2                     
	movq (%rax, %rsi), %mm1                     	# D.13176
	movq %mm0, %mm3                      
	movq %mm1, %mm4                      
	movq %mm2, %mm5                      
	psubusb %mm1, %mm3                   
	psubusb %mm2, %mm4                   
	psubusb %mm0, %mm5                   
	pcmpeqb %mm7, %mm3                   
	pcmpeqb %mm7, %mm4                   
	pcmpeqb %mm7, %mm5                   
	movq %mm3, %mm6                      
	pxor %mm4, %mm3                      
	pxor %mm5, %mm4                      
	pxor %mm6, %mm5                      
	por %mm3, %mm1                       
	por %mm4, %mm2                       
	por %mm5, %mm0                       
	pand %mm2, %mm0                      
	pand %mm1, %mm0                      
	movq %mm0, (%rax)                     
	movq (%rax, %rsi), %mm0                     	# D.13176
	movq (%rax, %rsi, 2), %mm2                     	# D.13176
	movq (%rdi, %rsi, 4), %mm1                     	# src, D.13176
	movq %mm0, %mm3                      
	movq %mm1, %mm4                      
	movq %mm2, %mm5                      
	psubusb %mm1, %mm3                   
	psubusb %mm2, %mm4                   
	psubusb %mm0, %mm5                   
	pcmpeqb %mm7, %mm3                   
	pcmpeqb %mm7, %mm4                   
	pcmpeqb %mm7, %mm5                   
	movq %mm3, %mm6                      
	pxor %mm4, %mm3                      
	pxor %mm5, %mm4                      
	pxor %mm6, %mm5                      
	por %mm3, %mm1                       
	por %mm4, %mm2                       
	por %mm5, %mm0                       
	pand %mm2, %mm0                      
	pand %mm1, %mm0                      
	movq %mm0, (%rax, %rsi, 2)                     	# D.13176
	movq (%rdi, %rsi, 4), %mm0                     	# src, D.13176
	movq (%rdx), %mm2                     
	movq (%rdx, %rsi), %mm1                     	# D.13176
	movq %mm0, %mm3                      
	movq %mm1, %mm4                      
	movq %mm2, %mm5                      
	psubusb %mm1, %mm3                   
	psubusb %mm2, %mm4                   
	psubusb %mm0, %mm5                   
	pcmpeqb %mm7, %mm3                   
	pcmpeqb %mm7, %mm4                   
	pcmpeqb %mm7, %mm5                   
	movq %mm3, %mm6                      
	pxor %mm4, %mm3                      
	pxor %mm5, %mm4                      
	pxor %mm6, %mm5                      
	por %mm3, %mm1                       
	por %mm4, %mm2                       
	por %mm5, %mm0                       
	pand %mm2, %mm0                      
	pand %mm1, %mm0                      
	movq %mm0, (%rdx)                     
	movq (%rdx, %rsi), %mm0                     	# D.13176
	movq (%rdx, %rsi, 2), %mm2                     	# D.13176
	movq (%rdi, %rsi, 8), %mm1                     	# src, D.13176
	movq %mm0, %mm3                      
	movq %mm1, %mm4                      
	movq %mm2, %mm5                      
	psubusb %mm1, %mm3                   
	psubusb %mm2, %mm4                   
	psubusb %mm0, %mm5                   
	pcmpeqb %mm7, %mm3                   
	pcmpeqb %mm7, %mm4                   
	pcmpeqb %mm7, %mm5                   
	movq %mm3, %mm6                      
	pxor %mm4, %mm3                      
	pxor %mm5, %mm4                      
	pxor %mm6, %mm5                      
	por %mm3, %mm1                       
	por %mm4, %mm2                       
	por %mm5, %mm0                       
	pand %mm2, %mm0                      
	pand %mm1, %mm0                      
	movq %mm0, (%rdx, %rsi, 2)                     	# D.13176
	
# 0 "" 2
#NO_APP
	ret
	.cfi_endproc
.LFE114:
	.size	deInterlaceMedian_MMX, .-deInterlaceMedian_MMX
	.type	tempNoiseReducer_MMX, @function
tempNoiseReducer_MMX:
.LFB117:
	.cfi_startproc
	pushq	%r12	#
	.cfi_def_cfa_offset 16
	.cfi_offset 12, -16
	pushq	%rbp	#
	.cfi_def_cfa_offset 24
	.cfi_offset 6, -24
	pushq	%rbx	#
	.cfi_def_cfa_offset 32
	.cfi_offset 3, -32
	movl	(%r8), %eax	# *maxNoise_24(D), *maxNoise_24(D)
	movl	%eax, 508(%rcx)	# *maxNoise_24(D), MEM[(uint32_t *)tempBlurredPast_22(D) + 508B]
	movl	4(%r8), %eax	# MEM[(const int *)maxNoise_24(D) + 4B], MEM[(const int *)maxNoise_24(D) + 4B]
	movl	%eax, 512(%rcx)	# MEM[(const int *)maxNoise_24(D) + 4B], MEM[(uint32_t *)tempBlurredPast_22(D) + 512B]
	movl	8(%r8), %eax	# MEM[(const int *)maxNoise_24(D) + 8B], MEM[(const int *)maxNoise_24(D) + 8B]
	movl	%eax, 516(%rcx)	# MEM[(const int *)maxNoise_24(D) + 8B], MEM[(uint32_t *)tempBlurredPast_22(D) + 516B]
	movl	$0, %r12d	#, ivtmp.497
	movl	$8, %ebx	#, ivtmp.437
	movl	$0, %r11d	#, d
	jmp	.L106	#
.L107:
	movslq	%r9d, %r10	# ivtmp.490, D.13280
	movzbl	(%rdx,%r10), %eax	# *_39, ref
	movzbl	(%rdi,%r10), %r10d	# *_43, cur
	subl	%r10d, %eax	# cur, d1
	imull	%eax, %eax	# d1, D.13278
	addl	%eax, %r11d	# D.13278, d
	addl	$1, %r9d	#, ivtmp.490
	cmpl	%ebp, %r9d	# D.13277, ivtmp.490
	jne	.L107	#,
	addl	%esi, %r12d	# D.13277, ivtmp.497
	subl	$1, %ebx	#, ivtmp.437
	je	.L108	#,
.L106:
	leal	8(%r12), %ebp	#, D.13277
	movl	%r12d, %r9d	# ivtmp.497, ivtmp.490
	jmp	.L107	#
.L108:
	movl	-4(%rcx), %eax	# MEM[(uint32_t *)tempBlurredPast_22(D) + -4B], MEM[(uint32_t *)tempBlurredPast_22(D) + -4B]
	addl	-1024(%rcx), %eax	# MEM[(uint32_t *)tempBlurredPast_22(D) + -1024B], D.13279
	movl	4(%rcx), %r9d	# MEM[(uint32_t *)tempBlurredPast_22(D) + 4B], MEM[(uint32_t *)tempBlurredPast_22(D) + 4B]
	leal	4(%rax,%r9), %eax	#, D.13279
	addl	1024(%rcx), %eax	# MEM[(uint32_t *)tempBlurredPast_22(D) + 1024B], D.13279
	leal	(%rax,%r11,4), %eax	#, D.13279
	shrl	$3, %eax	#, D.13279
	movl	%r11d, (%rcx)	# d, *tempBlurredPast_22(D)
	cmpl	4(%r8), %eax	# MEM[(const int *)maxNoise_24(D) + 4B], D.13279
	jle	.L109	#,
	movl	$8, %r10d	#, D.13277
	movl	$8, %ebp	#, D.13277
	cmpl	8(%r8), %eax	# MEM[(const int *)maxNoise_24(D) + 8B], D.13279
	jl	.L112	#,
	jmp	.L111	#
.L113:
	movslq	%r8d, %rax	# ivtmp.430, D.13280
	leaq	(%rdx,%rax), %r9	#, D.13281
	addq	%rdi, %rax	# src, D.13281
	movzbl	(%r9), %r10d	# *_81, ref
	movzbl	(%rax), %ecx	# *_84, cur
	leal	1(%r10,%rcx), %ecx	#, D.13278
	sarl	%ecx	# D.13278
	movb	%cl, (%rax)	# D.13278, *_84
	movb	%cl, (%r9)	# D.13278, *_81
	addl	$1, %r8d	#, ivtmp.430
	cmpl	%r11d, %r8d	# D.13277, ivtmp.430
	jne	.L113	#,
	addl	%esi, %ebx	# D.13277, ivtmp.437
	subl	$1, %ebp	#, D.13277
	je	.L105	#,
.L112:
	leal	8(%rbx), %r11d	#, D.13277
	movl	%ebx, %r8d	# ivtmp.437, ivtmp.430
	jmp	.L113	#
.L115:
	movslq	%eax, %rcx	# ivtmp.445, D.13280
	movzbl	(%rdi,%rcx), %r8d	# *_73, D.13282
	movb	%r8b, (%rdx,%rcx)	# D.13282, *_72
	addl	$1, %eax	#, ivtmp.445
	cmpl	%r9d, %eax	# D.13277, ivtmp.445
	jne	.L115	#,
	addl	%esi, %ebx	# D.13277, ivtmp.437
	subl	$1, %r10d	#, D.13277
	je	.L105	#,
.L111:
	leal	8(%rbx), %r9d	#, D.13277
	movl	%ebx, %eax	# ivtmp.437, ivtmp.445
	jmp	.L115	#
.L109:
	movl	$8, %ebp	#, D.13277
	cmpl	(%r8), %eax	# *maxNoise_24(D), D.13279
	jge	.L117	#,
.L116:
	movl	$8, %ebp	#, D.13277
	jmp	.L118	#
.L119:
	movslq	%r8d, %rax	# ivtmp.460, D.13280
	leaq	(%rdx,%rax), %r9	#, D.13281
	addq	%rdi, %rax	# src, D.13281
	movzbl	(%r9), %r10d	# *_99, ref
	leal	0(,%r10,8), %ecx	#, tmp230
	subl	%r10d, %ecx	# ref, D.13278
	movzbl	(%rax), %r10d	# *_105, cur
	leal	4(%rcx,%r10), %ecx	#, D.13278
	sarl	$3, %ecx	#, D.13278
	movb	%cl, (%rax)	# D.13278, *_105
	movb	%cl, (%r9)	# D.13278, *_99
	addl	$1, %r8d	#, ivtmp.460
	cmpl	%r11d, %r8d	# D.13277, ivtmp.460
	jne	.L119	#,
	addl	%esi, %ebx	# D.13277, ivtmp.437
	subl	$1, %ebp	#, D.13277
	je	.L105	#,
.L118:
	leal	8(%rbx), %r11d	#, D.13277
	movl	%ebx, %r8d	# ivtmp.437, ivtmp.460
	jmp	.L119	#
.L120:
	movslq	%r8d, %rax	# ivtmp.475, D.13280
	leaq	(%rdx,%rax), %r9	#, D.13281
	addq	%rdi, %rax	# src, D.13281
	movzbl	(%r9), %ecx	# *_123, ref
	leal	(%rcx,%rcx,2), %r10d	#, D.13278
	movzbl	(%rax), %ecx	# *_129, cur
	leal	2(%r10,%rcx), %ecx	#, D.13278
	sarl	$2, %ecx	#, D.13278
	movb	%cl, (%rax)	# D.13278, *_129
	movb	%cl, (%r9)	# D.13278, *_123
	addl	$1, %r8d	#, ivtmp.475
	cmpl	%r11d, %r8d	# D.13277, ivtmp.475
	jne	.L120	#,
	addl	%esi, %ebx	# D.13277, ivtmp.437
	subl	$1, %ebp	#, D.13277
	je	.L105	#,
.L117:
	leal	8(%rbx), %r11d	#, D.13277
	movl	%ebx, %r8d	# ivtmp.437, ivtmp.475
	jmp	.L120	#
.L105:
	popq	%rbx	#
	.cfi_def_cfa_offset 24
	popq	%rbp	#
	.cfi_def_cfa_offset 16
	popq	%r12	#
	.cfi_def_cfa_offset 8
	ret
	.cfi_endproc
.LFE117:
	.size	tempNoiseReducer_MMX, .-tempNoiseReducer_MMX
	.type	doVertLowPass_MMX2, @function
doVertLowPass_MMX2:
.LFB123:
	.cfi_startproc
	leal	(%rsi,%rsi,2), %eax	#, D.13290
	cltq
	addq	%rax, %rdi	# D.13291, src
	movslq	%esi, %rsi	# stride, D.13292
#APP
# 232 "postprocess_template.c" 1
	movq 112(%rdx), %mm0                         	# c_8(D)->pQPb
	pxor %mm4, %mm4                      
	movq (%rdi), %mm6                       	# src
	movq (%rdi, %rsi), %mm5                   	# src, D.13292
	movq %mm5, %mm1                      
	movq %mm6, %mm2                      
	psubusb %mm6, %mm5                   
	psubusb %mm1, %mm2                   
	por %mm5, %mm2                       
	psubusb %mm0, %mm2                   
	pcmpeqb %mm4, %mm2                   
	pand %mm2, %mm6                      
	pandn %mm1, %mm2                     
	por %mm2, %mm6                       
	movq (%rdi, %rsi, 8), %mm5                	# src, D.13292
	lea (%rdi, %rsi, 4), %rax             	# src, D.13292
	lea (%rdi, %rsi, 8), %rcx             	# src, D.13292
	sub %rsi, %rcx                      	# D.13292
	add %rsi, %rdi                             	# D.13292, src
	movq (%rdi, %rsi, 8), %mm7                	# src, D.13292
	movq %mm5, %mm1                      
	movq %mm7, %mm2                      
	psubusb %mm7, %mm5                   
	psubusb %mm1, %mm2                   
	por %mm5, %mm2                       
	psubusb %mm0, %mm2                   
	pcmpeqb %mm4, %mm2                   
	pand %mm2, %mm7                      
	pandn %mm1, %mm2                     
	por %mm2, %mm7                       
	movq (%rdi, %rsi), %mm0                   	# src, D.13292
	movq %mm0, %mm1                      
	pavgb %mm6, %mm0 
	pavgb %mm6, %mm0 
	movq (%rdi, %rsi, 4), %mm2                	# src, D.13292
	movq %mm2, %mm5                      
	pavgb (%rax), %mm2 
	pavgb (%rdi, %rsi, 2), %mm2 	# src, D.13292
	movq %mm2, %mm3                      
	movq (%rdi), %mm4                       	# src
	pavgb %mm4, %mm3 
	pavgb %mm0, %mm3 
	movq %mm3, (%rdi)                       	# src
	movq %mm1, %mm0                      
	pavgb %mm6, %mm0 
	movq %mm4, %mm3                      
	pavgb (%rdi,%rsi,2), %mm3 	# src, D.13292
	pavgb (%rax,%rsi,2), %mm5 	# D.13292
	pavgb (%rax), %mm5 
	pavgb %mm5, %mm3 
	pavgb %mm0, %mm3 
	movq %mm3, (%rdi,%rsi)                    	# src, D.13292
	pavgb %mm4, %mm6 
	movq (%rcx), %mm0                
	pavgb (%rax, %rsi, 2), %mm0 	# D.13292
	movq %mm0, %mm3                      
	pavgb %mm1, %mm0 
	pavgb %mm6, %mm0 
	pavgb %mm2, %mm0 
	movq (%rdi, %rsi, 2), %mm2                	# src, D.13292
	movq %mm0, (%rdi, %rsi, 2)                	# src, D.13292
	movq (%rax, %rsi, 4), %mm0         	# D.13292
	pavgb (%rcx), %mm0 
	pavgb %mm0, %mm6 
	pavgb %mm1, %mm4 
	pavgb %mm2, %mm1 
	pavgb %mm1, %mm6 
	pavgb %mm5, %mm6 
	movq (%rax), %mm5                
	movq %mm6, (%rax)                
	movq (%rax, %rsi, 4), %mm6         	# D.13292
	pavgb %mm7, %mm6 
	pavgb %mm4, %mm6 
	pavgb %mm3, %mm6 
	pavgb %mm5, %mm2 
	movq (%rdi, %rsi, 4), %mm4                	# src, D.13292
	pavgb %mm4, %mm2 
	pavgb %mm2, %mm6 
	movq %mm6, (%rdi, %rsi, 4)                	# src, D.13292
	pavgb %mm7, %mm1 
	pavgb %mm4, %mm5 
	pavgb %mm5, %mm0 
	movq (%rax, %rsi, 2), %mm6         	# D.13292
	pavgb %mm6, %mm1 
	pavgb %mm0, %mm1 
	movq %mm1, (%rax, %rsi, 2)         	# D.13292
	pavgb (%rcx), %mm2 
	movq (%rax, %rsi, 4), %mm0         	# D.13292
	pavgb %mm0, %mm6 
	pavgb %mm7, %mm6 
	pavgb %mm2, %mm6 
	movq %mm6, (%rcx)                
	pavgb %mm7, %mm5 
	pavgb %mm7, %mm5 
	pavgb %mm3, %mm0 
	pavgb %mm0, %mm5 
	movq %mm5, (%rax, %rsi, 4)         	# D.13292
	sub %rsi, %rdi                             	# D.13292, src
	
# 0 "" 2
#NO_APP
	ret
	.cfi_endproc
.LFE123:
	.size	doVertLowPass_MMX2, .-doVertLowPass_MMX2
	.type	dering_MMX2, @function
dering_MMX2:
.LFB126:
	.cfi_startproc
	movq	%rdx, %rcx	# c, c
	movslq	%esi, %rsi	# stride, D.13294
	leaq	-32(%rsp), %r8	#, tmp88
#APP
# 1097 "postprocess_template.c" 1
	pxor %mm6, %mm6                      
	pcmpeqb %mm7, %mm7                   
	movq 112(%rcx), %mm0                         	# c_5(D)->pQPb
	punpcklbw %mm6, %mm0                 
	psrlw $1, %mm0                        
	psubw %mm7, %mm0                     
	packuswb %mm0, %mm0                  
	movq %mm0, 120(%rcx)                         	# c_5(D)->pQPb2
	lea (%rdi, %rsi), %rax                	# src, D.13294
	lea (%rax, %rsi, 4), %rdx      	# D.13294
	movq (%rax), %mm0                  
	pminub %mm0, %mm7                    
	pmaxub %mm0, %mm6                    
	movq (%rax, %rsi), %mm0                  	# D.13294
	pminub %mm0, %mm7                    
	pmaxub %mm0, %mm6                    
	movq (%rax, %rsi, 2), %mm0                  	# D.13294
	pminub %mm0, %mm7                    
	pmaxub %mm0, %mm6                    
	movq (%rdi, %rsi, 4), %mm0                  	# src, D.13294
	pminub %mm0, %mm7                    
	pmaxub %mm0, %mm6                    
	movq (%rdx), %mm0                  
	pminub %mm0, %mm7                    
	pmaxub %mm0, %mm6                    
	movq (%rdx, %rsi), %mm0                  	# D.13294
	pminub %mm0, %mm7                    
	pmaxub %mm0, %mm6                    
	movq (%rdx, %rsi, 2), %mm0                  	# D.13294
	pminub %mm0, %mm7                    
	pmaxub %mm0, %mm6                    
	movq (%rdi, %rsi, 8), %mm0                  	# src, D.13294
	pminub %mm0, %mm7                    
	pmaxub %mm0, %mm6                    
	movq %mm7, %mm4                      
	psrlq $8, %mm7                        
	pminub %mm4, %mm7                    
	pshufw $0xF9, %mm7, %mm4             
	pminub %mm4, %mm7                    
	pshufw $0xFE, %mm7, %mm4             
	pminub %mm4, %mm7                    
	movq %mm6, %mm4                      
	psrlq $8, %mm6                        
	pmaxub %mm4, %mm6                    
	pshufw $0xF9, %mm6, %mm4             
	pmaxub %mm4, %mm6                    
	pshufw $0xFE, %mm6, %mm4             
	pmaxub %mm4, %mm6                    
	movq %mm6, %mm0                      
	psubb %mm7, %mm6                     
	push %r8                              	# tmp88
	movd %mm6, %r8d                        	# tmp88
	cmpb deringThreshold, %r8b    	# tmp88
	pop %r8                               	# tmp88
	 jb .skip                                 
	pavgb %mm0, %mm7 
	punpcklbw %mm7, %mm7                 
	punpcklbw %mm7, %mm7                 
	punpcklbw %mm7, %mm7                 
	movq %mm7, (%r8)                       	# tmp88
	movq (%rdi), %mm0                       	# src
	movq %mm0, %mm1                      
	movq %mm0, %mm2                      
	psllq $8, %mm1                        
	psrlq $8, %mm2                        
.skip:
	movd -4(%rdi), %mm3                     	# src
	movd 8(%rdi), %mm4                      	# src
	psrlq $24, %mm3                       
	psllq $56, %mm4                       
	por %mm3, %mm1                       
	por %mm4, %mm2                       
	movq %mm1, %mm3                      
	pavgb %mm2, %mm1 
	pavgb %mm0, %mm1 
	psubusb %mm7, %mm0                   
	psubusb %mm7, %mm2                   
	psubusb %mm7, %mm3                   
	pcmpeqb b00, %mm0           
	pcmpeqb b00, %mm2           
	pcmpeqb b00, %mm3           
	paddb %mm2, %mm0                     
	paddb %mm3, %mm0                     
	movq (%rax), %mm2                
	movq %mm2, %mm3                      
	movq %mm2, %mm4                      
	psllq $8, %mm3                        
	psrlq $8, %mm4                        
	movd -4(%rax), %mm5              
	movd 8(%rax), %mm6               
	psrlq $24, %mm5                       
	psllq $56, %mm6                       
	por %mm5, %mm3                       
	por %mm6, %mm4                       
	movq %mm3, %mm5                      
	pavgb %mm4, %mm3 
	pavgb %mm2, %mm3 
	psubusb %mm7, %mm2                   
	psubusb %mm7, %mm4                   
	psubusb %mm7, %mm5                   
	pcmpeqb b00, %mm2           
	pcmpeqb b00, %mm4           
	pcmpeqb b00, %mm5           
	paddb %mm4, %mm2                     
	paddb %mm5, %mm2                     
	movq (%rax, %rsi), %mm4                 	# D.13294
	movq %mm4, %mm5                  
	movq %mm4, %mm6                  
	psllq $8, %mm5                      
	psrlq $8, %mm6                      
	movd -4(%rax, %rsi), %mm7               	# D.13294
	psrlq $24, %mm7                     
	por %mm7, %mm5                   
	movd 8(%rax, %rsi), %mm7                	# D.13294
	psllq $56, %mm7                     
	por %mm7, %mm6                   
	movq %mm5, %mm7                  
	pavgb %mm6, %mm5 
	pavgb %mm4, %mm5 
	pavgb %mm5, %mm1 
	movq %mm5, 8(%r8)                    	# tmp88
	movq (%r8), %mm5                     	# tmp88
	psubusb %mm5, %mm7               
	psubusb %mm5, %mm6               
	psubusb %mm5, %mm4               
	movq b00, %mm5            
	pcmpeqb %mm5, %mm7               
	pcmpeqb %mm5, %mm6               
	pcmpeqb %mm5, %mm4               
	paddb %mm7, %mm6                 
	paddb %mm6, %mm4                 
	pavgb %mm3, %mm1 
	movq (%rax), %mm6                 
	movq %mm6, %mm7                  
	psubusb 120(%rcx), %mm6                    	# c_5(D)->pQPb2
	paddusb 120(%rcx), %mm7                    	# c_5(D)->pQPb2
	pmaxub %mm6, %mm1 
	pminub %mm7, %mm1 
	paddb %mm4, %mm0               
	paddb %mm2, %mm0              
	#paddb b02, %mm0        
	pand b08, %mm0          
	pcmpeqb %mm5, %mm0             
	pand %mm0, %mm1              
	pandn (%rax), %mm0              
	por %mm1, %mm0               
	movq %mm0, (%rax)               
	movq 8(%r8), %mm5                    	# tmp88
	movq (%rax, %rsi, 2), %mm0                 	# D.13294
	movq %mm0, %mm1                  
	movq %mm0, %mm6                  
	psllq $8, %mm1                      
	psrlq $8, %mm6                      
	movd -4(%rax, %rsi, 2), %mm7               	# D.13294
	psrlq $24, %mm7                     
	por %mm7, %mm1                   
	movd 8(%rax, %rsi, 2), %mm7                	# D.13294
	psllq $56, %mm7                     
	por %mm7, %mm6                   
	movq %mm1, %mm7                  
	pavgb %mm6, %mm1 
	pavgb %mm0, %mm1 
	pavgb %mm1, %mm3 
	movq %mm1, 8(%r8)                    	# tmp88
	movq (%r8), %mm1                     	# tmp88
	psubusb %mm1, %mm7               
	psubusb %mm1, %mm6               
	psubusb %mm1, %mm0               
	movq b00, %mm1            
	pcmpeqb %mm1, %mm7               
	pcmpeqb %mm1, %mm6               
	pcmpeqb %mm1, %mm0               
	paddb %mm7, %mm6                 
	paddb %mm6, %mm0                 
	pavgb %mm5, %mm3 
	movq (%rax, %rsi), %mm6                 	# D.13294
	movq %mm6, %mm7                  
	psubusb 120(%rcx), %mm6                    	# c_5(D)->pQPb2
	paddusb 120(%rcx), %mm7                    	# c_5(D)->pQPb2
	pmaxub %mm6, %mm3 
	pminub %mm7, %mm3 
	paddb %mm0, %mm2               
	paddb %mm4, %mm2              
	#paddb b02, %mm2        
	pand b08, %mm2          
	pcmpeqb %mm1, %mm2             
	pand %mm2, %mm3              
	pandn (%rax, %rsi), %mm2              	# D.13294
	por %mm3, %mm2               
	movq %mm2, (%rax, %rsi)               	# D.13294
	movq 8(%r8), %mm1                    	# tmp88
	movq (%rdi, %rsi, 4), %mm2                 	# src, D.13294
	movq %mm2, %mm3                  
	movq %mm2, %mm6                  
	psllq $8, %mm3                      
	psrlq $8, %mm6                      
	movd -4(%rdi, %rsi, 4), %mm7               	# src, D.13294
	psrlq $24, %mm7                     
	por %mm7, %mm3                   
	movd 8(%rdi, %rsi, 4), %mm7                	# src, D.13294
	psllq $56, %mm7                     
	por %mm7, %mm6                   
	movq %mm3, %mm7                  
	pavgb %mm6, %mm3 
	pavgb %mm2, %mm3 
	pavgb %mm3, %mm5 
	movq %mm3, 8(%r8)                    	# tmp88
	movq (%r8), %mm3                     	# tmp88
	psubusb %mm3, %mm7               
	psubusb %mm3, %mm6               
	psubusb %mm3, %mm2               
	movq b00, %mm3            
	pcmpeqb %mm3, %mm7               
	pcmpeqb %mm3, %mm6               
	pcmpeqb %mm3, %mm2               
	paddb %mm7, %mm6                 
	paddb %mm6, %mm2                 
	pavgb %mm1, %mm5 
	movq (%rax, %rsi, 2), %mm6                 	# D.13294
	movq %mm6, %mm7                  
	psubusb 120(%rcx), %mm6                    	# c_5(D)->pQPb2
	paddusb 120(%rcx), %mm7                    	# c_5(D)->pQPb2
	pmaxub %mm6, %mm5 
	pminub %mm7, %mm5 
	paddb %mm2, %mm4               
	paddb %mm0, %mm4              
	#paddb b02, %mm4        
	pand b08, %mm4          
	pcmpeqb %mm3, %mm4             
	pand %mm4, %mm5              
	pandn (%rax, %rsi, 2), %mm4              	# D.13294
	por %mm5, %mm4               
	movq %mm4, (%rax, %rsi, 2)               	# D.13294
	movq 8(%r8), %mm3                    	# tmp88
	movq (%rdx), %mm4                 
	movq %mm4, %mm5                  
	movq %mm4, %mm6                  
	psllq $8, %mm5                      
	psrlq $8, %mm6                      
	movd -4(%rdx), %mm7               
	psrlq $24, %mm7                     
	por %mm7, %mm5                   
	movd 8(%rdx), %mm7                
	psllq $56, %mm7                     
	por %mm7, %mm6                   
	movq %mm5, %mm7                  
	pavgb %mm6, %mm5 
	pavgb %mm4, %mm5 
	pavgb %mm5, %mm1 
	movq %mm5, 8(%r8)                    	# tmp88
	movq (%r8), %mm5                     	# tmp88
	psubusb %mm5, %mm7               
	psubusb %mm5, %mm6               
	psubusb %mm5, %mm4               
	movq b00, %mm5            
	pcmpeqb %mm5, %mm7               
	pcmpeqb %mm5, %mm6               
	pcmpeqb %mm5, %mm4               
	paddb %mm7, %mm6                 
	paddb %mm6, %mm4                 
	pavgb %mm3, %mm1 
	movq (%rdi, %rsi, 4), %mm6                 	# src, D.13294
	movq %mm6, %mm7                  
	psubusb 120(%rcx), %mm6                    	# c_5(D)->pQPb2
	paddusb 120(%rcx), %mm7                    	# c_5(D)->pQPb2
	pmaxub %mm6, %mm1 
	pminub %mm7, %mm1 
	paddb %mm4, %mm0               
	paddb %mm2, %mm0              
	#paddb b02, %mm0        
	pand b08, %mm0          
	pcmpeqb %mm5, %mm0             
	pand %mm0, %mm1              
	pandn (%rdi, %rsi, 4), %mm0              	# src, D.13294
	por %mm1, %mm0               
	movq %mm0, (%rdi, %rsi, 4)               	# src, D.13294
	movq 8(%r8), %mm5                    	# tmp88
	movq (%rdx, %rsi), %mm0                 	# D.13294
	movq %mm0, %mm1                  
	movq %mm0, %mm6                  
	psllq $8, %mm1                      
	psrlq $8, %mm6                      
	movd -4(%rdx, %rsi), %mm7               	# D.13294
	psrlq $24, %mm7                     
	por %mm7, %mm1                   
	movd 8(%rdx, %rsi), %mm7                	# D.13294
	psllq $56, %mm7                     
	por %mm7, %mm6                   
	movq %mm1, %mm7                  
	pavgb %mm6, %mm1 
	pavgb %mm0, %mm1 
	pavgb %mm1, %mm3 
	movq %mm1, 8(%r8)                    	# tmp88
	movq (%r8), %mm1                     	# tmp88
	psubusb %mm1, %mm7               
	psubusb %mm1, %mm6               
	psubusb %mm1, %mm0               
	movq b00, %mm1            
	pcmpeqb %mm1, %mm7               
	pcmpeqb %mm1, %mm6               
	pcmpeqb %mm1, %mm0               
	paddb %mm7, %mm6                 
	paddb %mm6, %mm0                 
	pavgb %mm5, %mm3 
	movq (%rdx), %mm6                 
	movq %mm6, %mm7                  
	psubusb 120(%rcx), %mm6                    	# c_5(D)->pQPb2
	paddusb 120(%rcx), %mm7                    	# c_5(D)->pQPb2
	pmaxub %mm6, %mm3 
	pminub %mm7, %mm3 
	paddb %mm0, %mm2               
	paddb %mm4, %mm2              
	#paddb b02, %mm2        
	pand b08, %mm2          
	pcmpeqb %mm1, %mm2             
	pand %mm2, %mm3              
	pandn (%rdx), %mm2              
	por %mm3, %mm2               
	movq %mm2, (%rdx)               
	movq 8(%r8), %mm1                    	# tmp88
	movq (%rdx, %rsi, 2), %mm2                 	# D.13294
	movq %mm2, %mm3                  
	movq %mm2, %mm6                  
	psllq $8, %mm3                      
	psrlq $8, %mm6                      
	movd -4(%rdx, %rsi, 2), %mm7               	# D.13294
	psrlq $24, %mm7                     
	por %mm7, %mm3                   
	movd 8(%rdx, %rsi, 2), %mm7                	# D.13294
	psllq $56, %mm7                     
	por %mm7, %mm6                   
	movq %mm3, %mm7                  
	pavgb %mm6, %mm3 
	pavgb %mm2, %mm3 
	pavgb %mm3, %mm5 
	movq %mm3, 8(%r8)                    	# tmp88
	movq (%r8), %mm3                     	# tmp88
	psubusb %mm3, %mm7               
	psubusb %mm3, %mm6               
	psubusb %mm3, %mm2               
	movq b00, %mm3            
	pcmpeqb %mm3, %mm7               
	pcmpeqb %mm3, %mm6               
	pcmpeqb %mm3, %mm2               
	paddb %mm7, %mm6                 
	paddb %mm6, %mm2                 
	pavgb %mm1, %mm5 
	movq (%rdx, %rsi), %mm6                 	# D.13294
	movq %mm6, %mm7                  
	psubusb 120(%rcx), %mm6                    	# c_5(D)->pQPb2
	paddusb 120(%rcx), %mm7                    	# c_5(D)->pQPb2
	pmaxub %mm6, %mm5 
	pminub %mm7, %mm5 
	paddb %mm2, %mm4               
	paddb %mm0, %mm4              
	#paddb b02, %mm4        
	pand b08, %mm4          
	pcmpeqb %mm3, %mm4             
	pand %mm4, %mm5              
	pandn (%rdx, %rsi), %mm4              	# D.13294
	por %mm5, %mm4               
	movq %mm4, (%rdx, %rsi)               	# D.13294
	movq 8(%r8), %mm3                    	# tmp88
	movq (%rdi, %rsi, 8), %mm4                 	# src, D.13294
	movq %mm4, %mm5                  
	movq %mm4, %mm6                  
	psllq $8, %mm5                      
	psrlq $8, %mm6                      
	movd -4(%rdi, %rsi, 8), %mm7               	# src, D.13294
	psrlq $24, %mm7                     
	por %mm7, %mm5                   
	movd 8(%rdi, %rsi, 8), %mm7                	# src, D.13294
	psllq $56, %mm7                     
	por %mm7, %mm6                   
	movq %mm5, %mm7                  
	pavgb %mm6, %mm5 
	pavgb %mm4, %mm5 
	pavgb %mm5, %mm1 
	movq %mm5, 8(%r8)                    	# tmp88
	movq (%r8), %mm5                     	# tmp88
	psubusb %mm5, %mm7               
	psubusb %mm5, %mm6               
	psubusb %mm5, %mm4               
	movq b00, %mm5            
	pcmpeqb %mm5, %mm7               
	pcmpeqb %mm5, %mm6               
	pcmpeqb %mm5, %mm4               
	paddb %mm7, %mm6                 
	paddb %mm6, %mm4                 
	pavgb %mm3, %mm1 
	movq (%rdx, %rsi, 2), %mm6                 	# D.13294
	movq %mm6, %mm7                  
	psubusb 120(%rcx), %mm6                    	# c_5(D)->pQPb2
	paddusb 120(%rcx), %mm7                    	# c_5(D)->pQPb2
	pmaxub %mm6, %mm1 
	pminub %mm7, %mm1 
	paddb %mm4, %mm0               
	paddb %mm2, %mm0              
	#paddb b02, %mm0        
	pand b08, %mm0          
	pcmpeqb %mm5, %mm0             
	pand %mm0, %mm1              
	pandn (%rdx, %rsi, 2), %mm0              	# D.13294
	por %mm1, %mm0               
	movq %mm0, (%rdx, %rsi, 2)               	# D.13294
	movq 8(%r8), %mm5                    	# tmp88
	movq (%rdx, %rsi, 4), %mm0                 	# D.13294
	movq %mm0, %mm1                  
	movq %mm0, %mm6                  
	psllq $8, %mm1                      
	psrlq $8, %mm6                      
	movd -4(%rdx, %rsi, 4), %mm7               	# D.13294
	psrlq $24, %mm7                     
	por %mm7, %mm1                   
	movd 8(%rdx, %rsi, 4), %mm7                	# D.13294
	psllq $56, %mm7                     
	por %mm7, %mm6                   
	movq %mm1, %mm7                  
	pavgb %mm6, %mm1 
	pavgb %mm0, %mm1 
	pavgb %mm1, %mm3 
	movq %mm1, 8(%r8)                    	# tmp88
	movq (%r8), %mm1                     	# tmp88
	psubusb %mm1, %mm7               
	psubusb %mm1, %mm6               
	psubusb %mm1, %mm0               
	movq b00, %mm1            
	pcmpeqb %mm1, %mm7               
	pcmpeqb %mm1, %mm6               
	pcmpeqb %mm1, %mm0               
	paddb %mm7, %mm6                 
	paddb %mm6, %mm0                 
	pavgb %mm5, %mm3 
	movq (%rdi, %rsi, 8), %mm6                 	# src, D.13294
	movq %mm6, %mm7                  
	psubusb 120(%rcx), %mm6                    	# c_5(D)->pQPb2
	paddusb 120(%rcx), %mm7                    	# c_5(D)->pQPb2
	pmaxub %mm6, %mm3 
	pminub %mm7, %mm3 
	paddb %mm0, %mm2               
	paddb %mm4, %mm2              
	#paddb b02, %mm2        
	pand b08, %mm2          
	pcmpeqb %mm1, %mm2             
	pand %mm2, %mm3              
	pandn (%rdi, %rsi, 8), %mm2              	# src, D.13294
	por %mm3, %mm2               
	movq %mm2, (%rdi, %rsi, 8)               	# src, D.13294
	movq 8(%r8), %mm1                    	# tmp88
	1:                        
	
# 0 "" 2
#NO_APP
	ret
	.cfi_endproc
.LFE126:
	.size	dering_MMX2, .-dering_MMX2
	.type	deInterlaceInterpolateCubic_MMX2, @function
deInterlaceInterpolateCubic_MMX2:
.LFB128:
	.cfi_startproc
	leal	(%rsi,%rsi,2), %eax	#, D.13301
	cltq
	addq	%rax, %rdi	# D.13302, src
	movslq	%esi, %rsi	# stride, D.13303
#APP
# 1508 "postprocess_template.c" 1
	lea (%rdi, %rsi), %rax                	# src, D.13303
	lea (%rax, %rsi, 4), %rdx      	# D.13303
	lea (%rdx, %rsi, 4), %rcx      	# D.13303
	add %rsi, %rcx                      	# D.13303
	pxor %mm7, %mm7                      
	movq (%rdi), %mm0                     	# src
	movq (%rax, %rsi), %mm1                     	# D.13303
	movq (%rdi, %rsi, 4), %mm2                     	# src, D.13303
	movq (%rdx, %rsi), %mm3                     	# D.13303
	pavgb %mm2, %mm1 
	pavgb %mm3, %mm0 
	movq %mm0, %mm2                      
	punpcklbw %mm7, %mm0                 
	punpckhbw %mm7, %mm2                 
	movq %mm1, %mm3                      
	punpcklbw %mm7, %mm1                 
	punpckhbw %mm7, %mm3                 
	psubw %mm1, %mm0                     
	psubw %mm3, %mm2                     
	psraw $3, %mm0                        
	psraw $3, %mm2                        
	psubw %mm0, %mm1                     
	psubw %mm2, %mm3                     
	packuswb %mm3, %mm1                  
	movq %mm1, (%rax, %rsi, 2)                     	# D.13303
	movq (%rax, %rsi), %mm0                     	# D.13303
	movq (%rdi, %rsi, 4), %mm1                     	# src, D.13303
	movq (%rdx, %rsi), %mm2                     	# D.13303
	movq (%rdi, %rsi, 8), %mm3                     	# src, D.13303
	pavgb %mm2, %mm1 
	pavgb %mm3, %mm0 
	movq %mm0, %mm2                      
	punpcklbw %mm7, %mm0                 
	punpckhbw %mm7, %mm2                 
	movq %mm1, %mm3                      
	punpcklbw %mm7, %mm1                 
	punpckhbw %mm7, %mm3                 
	psubw %mm1, %mm0                     
	psubw %mm3, %mm2                     
	psraw $3, %mm0                        
	psraw $3, %mm2                        
	psubw %mm0, %mm1                     
	psubw %mm2, %mm3                     
	packuswb %mm3, %mm1                  
	movq %mm1, (%rdx)                     
	movq (%rdi, %rsi, 4), %mm0                     	# src, D.13303
	movq (%rdx, %rsi), %mm1                     	# D.13303
	movq (%rdi, %rsi, 8), %mm2                     	# src, D.13303
	movq (%rcx), %mm3                     
	pavgb %mm2, %mm1 
	pavgb %mm3, %mm0 
	movq %mm0, %mm2                      
	punpcklbw %mm7, %mm0                 
	punpckhbw %mm7, %mm2                 
	movq %mm1, %mm3                      
	punpcklbw %mm7, %mm1                 
	punpckhbw %mm7, %mm3                 
	psubw %mm1, %mm0                     
	psubw %mm3, %mm2                     
	psraw $3, %mm0                        
	psraw $3, %mm2                        
	psubw %mm0, %mm1                     
	psubw %mm2, %mm3                     
	packuswb %mm3, %mm1                  
	movq %mm1, (%rdx, %rsi, 2)                     	# D.13303
	movq (%rdx, %rsi), %mm0                     	# D.13303
	movq (%rdi, %rsi, 8), %mm1                     	# src, D.13303
	movq (%rcx), %mm2                     
	movq (%rcx, %rsi, 2), %mm3                     	# D.13303
	pavgb %mm2, %mm1 
	pavgb %mm3, %mm0 
	movq %mm0, %mm2                      
	punpcklbw %mm7, %mm0                 
	punpckhbw %mm7, %mm2                 
	movq %mm1, %mm3                      
	punpcklbw %mm7, %mm1                 
	punpckhbw %mm7, %mm3                 
	psubw %mm1, %mm0                     
	psubw %mm3, %mm2                     
	psraw $3, %mm0                        
	psraw $3, %mm2                        
	psubw %mm0, %mm1                     
	psubw %mm2, %mm3                     
	packuswb %mm3, %mm1                  
	movq %mm1, (%rdx, %rsi, 4)                     	# D.13303
	
# 0 "" 2
#NO_APP
	ret
	.cfi_endproc
.LFE128:
	.size	deInterlaceInterpolateCubic_MMX2, .-deInterlaceInterpolateCubic_MMX2
	.type	deInterlaceFF_MMX2, @function
deInterlaceFF_MMX2:
.LFB129:
	.cfi_startproc
	movq	%rdx, %rcx	# tmp, tmp
	leal	0(,%rsi,4), %eax	#, D.13311
	cltq
	addq	%rax, %rdi	# D.13312, src
	movslq	%esi, %rsi	# stride, D.13313
#APP
# 1595 "postprocess_template.c" 1
	lea (%rdi, %rsi), %rax                	# src, D.13313
	lea (%rax, %rsi, 4), %rdx      	# D.13313
	pxor %mm7, %mm7                      
	movq (%rcx), %mm0                       	# tmp
	movq (%rdi), %mm1                     	# src
	movq (%rax), %mm2                     
	movq (%rax, %rsi), %mm3                     	# D.13313
	movq (%rax, %rsi, 2), %mm4                     	# D.13313
	pavgb %mm3, %mm1 
	pavgb %mm4, %mm0 
	movq %mm0, %mm3                      
	punpcklbw %mm7, %mm0                 
	punpckhbw %mm7, %mm3                 
	movq %mm1, %mm4                      
	punpcklbw %mm7, %mm1                 
	punpckhbw %mm7, %mm4                 
	psllw $2, %mm1                        
	psllw $2, %mm4                        
	psubw %mm0, %mm1                     
	psubw %mm3, %mm4                     
	movq %mm2, %mm5                      
	movq %mm2, %mm0                      
	punpcklbw %mm7, %mm2                 
	punpckhbw %mm7, %mm5                 
	paddw %mm2, %mm1                     
	paddw %mm5, %mm4                     
	psraw $2, %mm1                        
	psraw $2, %mm4                        
	packuswb %mm4, %mm1                  
	movq %mm1, (%rax)                     
	movq (%rax, %rsi), %mm1                     	# D.13313
	movq (%rax, %rsi, 2), %mm2                     	# D.13313
	movq (%rdi, %rsi, 4), %mm3                     	# src, D.13313
	movq (%rdx), %mm4                     
	pavgb %mm3, %mm1 
	pavgb %mm4, %mm0 
	movq %mm0, %mm3                      
	punpcklbw %mm7, %mm0                 
	punpckhbw %mm7, %mm3                 
	movq %mm1, %mm4                      
	punpcklbw %mm7, %mm1                 
	punpckhbw %mm7, %mm4                 
	psllw $2, %mm1                        
	psllw $2, %mm4                        
	psubw %mm0, %mm1                     
	psubw %mm3, %mm4                     
	movq %mm2, %mm5                      
	movq %mm2, %mm0                      
	punpcklbw %mm7, %mm2                 
	punpckhbw %mm7, %mm5                 
	paddw %mm2, %mm1                     
	paddw %mm5, %mm4                     
	psraw $2, %mm1                        
	psraw $2, %mm4                        
	packuswb %mm4, %mm1                  
	movq %mm1, (%rax, %rsi, 2)                     	# D.13313
	movq (%rdi, %rsi, 4), %mm1                     	# src, D.13313
	movq (%rdx), %mm2                     
	movq (%rdx, %rsi), %mm3                     	# D.13313
	movq (%rdx, %rsi, 2), %mm4                     	# D.13313
	pavgb %mm3, %mm1 
	pavgb %mm4, %mm0 
	movq %mm0, %mm3                      
	punpcklbw %mm7, %mm0                 
	punpckhbw %mm7, %mm3                 
	movq %mm1, %mm4                      
	punpcklbw %mm7, %mm1                 
	punpckhbw %mm7, %mm4                 
	psllw $2, %mm1                        
	psllw $2, %mm4                        
	psubw %mm0, %mm1                     
	psubw %mm3, %mm4                     
	movq %mm2, %mm5                      
	movq %mm2, %mm0                      
	punpcklbw %mm7, %mm2                 
	punpckhbw %mm7, %mm5                 
	paddw %mm2, %mm1                     
	paddw %mm5, %mm4                     
	psraw $2, %mm1                        
	psraw $2, %mm4                        
	packuswb %mm4, %mm1                  
	movq %mm1, (%rdx)                     
	movq (%rdx, %rsi), %mm1                     	# D.13313
	movq (%rdx, %rsi, 2), %mm2                     	# D.13313
	movq (%rdi, %rsi, 8), %mm3                     	# src, D.13313
	movq (%rdx, %rsi, 4), %mm4                     	# D.13313
	pavgb %mm3, %mm1 
	pavgb %mm4, %mm0 
	movq %mm0, %mm3                      
	punpcklbw %mm7, %mm0                 
	punpckhbw %mm7, %mm3                 
	movq %mm1, %mm4                      
	punpcklbw %mm7, %mm1                 
	punpckhbw %mm7, %mm4                 
	psllw $2, %mm1                        
	psllw $2, %mm4                        
	psubw %mm0, %mm1                     
	psubw %mm3, %mm4                     
	movq %mm2, %mm5                      
	movq %mm2, %mm0                      
	punpcklbw %mm7, %mm2                 
	punpckhbw %mm7, %mm5                 
	paddw %mm2, %mm1                     
	paddw %mm5, %mm4                     
	psraw $2, %mm1                        
	psraw $2, %mm4                        
	packuswb %mm4, %mm1                  
	movq %mm1, (%rdx, %rsi, 2)                     	# D.13313
	movq %mm0, (%rcx)                       	# tmp
	
# 0 "" 2
#NO_APP
	ret
	.cfi_endproc
.LFE129:
	.size	deInterlaceFF_MMX2, .-deInterlaceFF_MMX2
	.type	deInterlaceL5_MMX2, @function
deInterlaceL5_MMX2:
.LFB130:
	.cfi_startproc
	movq	%rdx, %r8	# tmp, tmp
	leal	0(,%rsi,4), %eax	#, D.13315
	cltq
	addq	%rax, %rdi	# D.13316, src
	movslq	%esi, %rsi	# stride, D.13317
#APP
# 1674 "postprocess_template.c" 1
	lea (%rdi, %rsi), %rax                	# src, D.13317
	lea (%rax, %rsi, 4), %rdx      	# D.13317
	pxor %mm7, %mm7                      
	movq (%r8), %mm0                       	# tmp
	movq (%rcx), %mm1                       	# tmp2
	movq (%rdi), %mm2                     	# src
	movq (%rax), %mm3                     
	movq (%rax, %rsi), %mm4                     	# D.13317
	pavgb %mm1, %mm3 
	pavgb %mm0, %mm4 
	movq %mm2, %mm5                      
	movq %mm2, %mm0                    
	punpcklbw %mm7, %mm2                 
	punpckhbw %mm7, %mm5                 
	movq %mm2, %mm6                      
	paddw %mm2, %mm2                     
	paddw %mm6, %mm2                     
	movq %mm5, %mm6                      
	paddw %mm5, %mm5                     
	paddw %mm6, %mm5                     
	movq %mm3, %mm6                      
	punpcklbw %mm7, %mm3                 
	punpckhbw %mm7, %mm6                 
	paddw %mm3, %mm3                     
	paddw %mm6, %mm6                     
	paddw %mm3, %mm2                     
	paddw %mm6, %mm5                     
	movq %mm4, %mm6                      
	punpcklbw %mm7, %mm4                 
	punpckhbw %mm7, %mm6                 
	psubw %mm4, %mm2                     
	psubw %mm6, %mm5                     
	psraw $2, %mm2                        
	psraw $2, %mm5                        
	packuswb %mm5, %mm2                  
	movq %mm2, (%rdi)                     	# src
	movq (%rax), %mm2                     
	movq (%rax, %rsi), %mm3                     	# D.13317
	movq (%rax, %rsi, 2), %mm4                     	# D.13317
	pavgb %mm0, %mm3 
	pavgb %mm1, %mm4 
	movq %mm2, %mm5                      
	movq %mm2, %mm1                    
	punpcklbw %mm7, %mm2                 
	punpckhbw %mm7, %mm5                 
	movq %mm2, %mm6                      
	paddw %mm2, %mm2                     
	paddw %mm6, %mm2                     
	movq %mm5, %mm6                      
	paddw %mm5, %mm5                     
	paddw %mm6, %mm5                     
	movq %mm3, %mm6                      
	punpcklbw %mm7, %mm3                 
	punpckhbw %mm7, %mm6                 
	paddw %mm3, %mm3                     
	paddw %mm6, %mm6                     
	paddw %mm3, %mm2                     
	paddw %mm6, %mm5                     
	movq %mm4, %mm6                      
	punpcklbw %mm7, %mm4                 
	punpckhbw %mm7, %mm6                 
	psubw %mm4, %mm2                     
	psubw %mm6, %mm5                     
	psraw $2, %mm2                        
	psraw $2, %mm5                        
	packuswb %mm5, %mm2                  
	movq %mm2, (%rax)                     
	movq (%rax, %rsi), %mm2                     	# D.13317
	movq (%rax, %rsi, 2), %mm3                     	# D.13317
	movq (%rdi, %rsi, 4), %mm4                     	# src, D.13317
	pavgb %mm1, %mm3 
	pavgb %mm0, %mm4 
	movq %mm2, %mm5                      
	movq %mm2, %mm0                    
	punpcklbw %mm7, %mm2                 
	punpckhbw %mm7, %mm5                 
	movq %mm2, %mm6                      
	paddw %mm2, %mm2                     
	paddw %mm6, %mm2                     
	movq %mm5, %mm6                      
	paddw %mm5, %mm5                     
	paddw %mm6, %mm5                     
	movq %mm3, %mm6                      
	punpcklbw %mm7, %mm3                 
	punpckhbw %mm7, %mm6                 
	paddw %mm3, %mm3                     
	paddw %mm6, %mm6                     
	paddw %mm3, %mm2                     
	paddw %mm6, %mm5                     
	movq %mm4, %mm6                      
	punpcklbw %mm7, %mm4                 
	punpckhbw %mm7, %mm6                 
	psubw %mm4, %mm2                     
	psubw %mm6, %mm5                     
	psraw $2, %mm2                        
	psraw $2, %mm5                        
	packuswb %mm5, %mm2                  
	movq %mm2, (%rax, %rsi)                     	# D.13317
	movq (%rax, %rsi, 2), %mm2                     	# D.13317
	movq (%rdi, %rsi, 4), %mm3                     	# src, D.13317
	movq (%rdx), %mm4                     
	pavgb %mm0, %mm3 
	pavgb %mm1, %mm4 
	movq %mm2, %mm5                      
	movq %mm2, %mm1                    
	punpcklbw %mm7, %mm2                 
	punpckhbw %mm7, %mm5                 
	movq %mm2, %mm6                      
	paddw %mm2, %mm2                     
	paddw %mm6, %mm2                     
	movq %mm5, %mm6                      
	paddw %mm5, %mm5                     
	paddw %mm6, %mm5                     
	movq %mm3, %mm6                      
	punpcklbw %mm7, %mm3                 
	punpckhbw %mm7, %mm6                 
	paddw %mm3, %mm3                     
	paddw %mm6, %mm6                     
	paddw %mm3, %mm2                     
	paddw %mm6, %mm5                     
	movq %mm4, %mm6                      
	punpcklbw %mm7, %mm4                 
	punpckhbw %mm7, %mm6                 
	psubw %mm4, %mm2                     
	psubw %mm6, %mm5                     
	psraw $2, %mm2                        
	psraw $2, %mm5                        
	packuswb %mm5, %mm2                  
	movq %mm2, (%rax, %rsi, 2)                     	# D.13317
	movq (%rdi, %rsi, 4), %mm2                     	# src, D.13317
	movq (%rdx), %mm3                     
	movq (%rdx, %rsi), %mm4                     	# D.13317
	pavgb %mm1, %mm3 
	pavgb %mm0, %mm4 
	movq %mm2, %mm5                      
	movq %mm2, %mm0                    
	punpcklbw %mm7, %mm2                 
	punpckhbw %mm7, %mm5                 
	movq %mm2, %mm6                      
	paddw %mm2, %mm2                     
	paddw %mm6, %mm2                     
	movq %mm5, %mm6                      
	paddw %mm5, %mm5                     
	paddw %mm6, %mm5                     
	movq %mm3, %mm6                      
	punpcklbw %mm7, %mm3                 
	punpckhbw %mm7, %mm6                 
	paddw %mm3, %mm3                     
	paddw %mm6, %mm6                     
	paddw %mm3, %mm2                     
	paddw %mm6, %mm5                     
	movq %mm4, %mm6                      
	punpcklbw %mm7, %mm4                 
	punpckhbw %mm7, %mm6                 
	psubw %mm4, %mm2                     
	psubw %mm6, %mm5                     
	psraw $2, %mm2                        
	psraw $2, %mm5                        
	packuswb %mm5, %mm2                  
	movq %mm2, (%rdi, %rsi, 4)                     	# src, D.13317
	movq (%rdx), %mm2                     
	movq (%rdx, %rsi), %mm3                     	# D.13317
	movq (%rdx, %rsi, 2), %mm4                     	# D.13317
	pavgb %mm0, %mm3 
	pavgb %mm1, %mm4 
	movq %mm2, %mm5                      
	movq %mm2, %mm1                    
	punpcklbw %mm7, %mm2                 
	punpckhbw %mm7, %mm5                 
	movq %mm2, %mm6                      
	paddw %mm2, %mm2                     
	paddw %mm6, %mm2                     
	movq %mm5, %mm6                      
	paddw %mm5, %mm5                     
	paddw %mm6, %mm5                     
	movq %mm3, %mm6                      
	punpcklbw %mm7, %mm3                 
	punpckhbw %mm7, %mm6                 
	paddw %mm3, %mm3                     
	paddw %mm6, %mm6                     
	paddw %mm3, %mm2                     
	paddw %mm6, %mm5                     
	movq %mm4, %mm6                      
	punpcklbw %mm7, %mm4                 
	punpckhbw %mm7, %mm6                 
	psubw %mm4, %mm2                     
	psubw %mm6, %mm5                     
	psraw $2, %mm2                        
	psraw $2, %mm5                        
	packuswb %mm5, %mm2                  
	movq %mm2, (%rdx)                     
	movq (%rdx, %rsi), %mm2                     	# D.13317
	movq (%rdx, %rsi, 2), %mm3                     	# D.13317
	movq (%rdi, %rsi, 8), %mm4                     	# src, D.13317
	pavgb %mm1, %mm3 
	pavgb %mm0, %mm4 
	movq %mm2, %mm5                      
	movq %mm2, %mm0                    
	punpcklbw %mm7, %mm2                 
	punpckhbw %mm7, %mm5                 
	movq %mm2, %mm6                      
	paddw %mm2, %mm2                     
	paddw %mm6, %mm2                     
	movq %mm5, %mm6                      
	paddw %mm5, %mm5                     
	paddw %mm6, %mm5                     
	movq %mm3, %mm6                      
	punpcklbw %mm7, %mm3                 
	punpckhbw %mm7, %mm6                 
	paddw %mm3, %mm3                     
	paddw %mm6, %mm6                     
	paddw %mm3, %mm2                     
	paddw %mm6, %mm5                     
	movq %mm4, %mm6                      
	punpcklbw %mm7, %mm4                 
	punpckhbw %mm7, %mm6                 
	psubw %mm4, %mm2                     
	psubw %mm6, %mm5                     
	psraw $2, %mm2                        
	psraw $2, %mm5                        
	packuswb %mm5, %mm2                  
	movq %mm2, (%rdx, %rsi)                     	# D.13317
	movq (%rdx, %rsi, 2), %mm2                     	# D.13317
	movq (%rdi, %rsi, 8), %mm3                     	# src, D.13317
	movq (%rdx, %rsi, 4), %mm4                     	# D.13317
	pavgb %mm0, %mm3 
	pavgb %mm1, %mm4 
	movq %mm2, %mm5                      
	movq %mm2, %mm1                    
	punpcklbw %mm7, %mm2                 
	punpckhbw %mm7, %mm5                 
	movq %mm2, %mm6                      
	paddw %mm2, %mm2                     
	paddw %mm6, %mm2                     
	movq %mm5, %mm6                      
	paddw %mm5, %mm5                     
	paddw %mm6, %mm5                     
	movq %mm3, %mm6                      
	punpcklbw %mm7, %mm3                 
	punpckhbw %mm7, %mm6                 
	paddw %mm3, %mm3                     
	paddw %mm6, %mm6                     
	paddw %mm3, %mm2                     
	paddw %mm6, %mm5                     
	movq %mm4, %mm6                      
	punpcklbw %mm7, %mm4                 
	punpckhbw %mm7, %mm6                 
	psubw %mm4, %mm2                     
	psubw %mm6, %mm5                     
	psraw $2, %mm2                        
	psraw $2, %mm5                        
	packuswb %mm5, %mm2                  
	movq %mm2, (%rdx, %rsi, 2)                     	# D.13317
	movq %mm0, (%r8)                       	# tmp
	movq %mm1, (%rcx)                       	# tmp2
	
# 0 "" 2
#NO_APP
	ret
	.cfi_endproc
.LFE130:
	.size	deInterlaceL5_MMX2, .-deInterlaceL5_MMX2
	.type	tempNoiseReducer_MMX2, @function
tempNoiseReducer_MMX2:
.LFB135:
	.cfi_startproc
	movq	%rdx, %r9	# tempBlurred, tempBlurred
	movq	%rcx, -8(%rsp)	# tempBlurredPast, tempBlurredPast
	movl	(%r8), %eax	# *maxNoise_3(D), *maxNoise_3(D)
	movl	%eax, 508(%rcx)	# *maxNoise_3(D), MEM[(uint32_t *)_2 + 508B]
	movl	4(%r8), %eax	# MEM[(const int *)maxNoise_3(D) + 4B], MEM[(const int *)maxNoise_3(D) + 4B]
	movl	%eax, 512(%rcx)	# MEM[(const int *)maxNoise_3(D) + 4B], MEM[(uint32_t *)_2 + 512B]
	movl	8(%r8), %eax	# MEM[(const int *)maxNoise_3(D) + 8B], MEM[(const int *)maxNoise_3(D) + 8B]
	movl	%eax, 516(%rcx)	# MEM[(const int *)maxNoise_3(D) + 8B], MEM[(uint32_t *)_2 + 516B]
	movslq	%esi, %rsi	# stride, D.13330
#APP
# 2169 "postprocess_template.c" 1
	lea (%rsi, %rsi, 2), %rax             	# D.13330
	lea (%rsi, %rsi, 4), %rdx             	# D.13330
	lea (%rdx, %rsi, 2), %rcx      	# D.13330
	pcmpeqb %mm7, %mm7                   
	movq b80, %mm6              
	pxor %mm0, %mm0                      
	movq (%rdi), %mm5                     	# src
	movq (%r9), %mm2                     	# tempBlurred
	pxor %mm7, %mm2                      
	pavgb %mm2, %mm5 
	paddb %mm6, %mm5                     
	movq %mm5, %mm2                      
	psllw $8, %mm5                        
	pmaddwd %mm5, %mm5                   
	pmaddwd %mm2, %mm2                   
	paddd %mm2, %mm5                     
	psrld $14, %mm5                       
	paddd %mm5, %mm0                     
	movq (%rdi, %rsi), %mm5                     	# src, D.13330
	movq (%r9, %rsi), %mm2                     	# tempBlurred, D.13330
	pxor %mm7, %mm2                      
	pavgb %mm2, %mm5 
	paddb %mm6, %mm5                     
	movq %mm5, %mm2                      
	psllw $8, %mm5                        
	pmaddwd %mm5, %mm5                   
	pmaddwd %mm2, %mm2                   
	paddd %mm2, %mm5                     
	psrld $14, %mm5                       
	paddd %mm5, %mm0                     
	movq (%rdi, %rsi, 2), %mm5                     	# src, D.13330
	movq (%r9, %rsi, 2), %mm2                     	# tempBlurred, D.13330
	pxor %mm7, %mm2                      
	pavgb %mm2, %mm5 
	paddb %mm6, %mm5                     
	movq %mm5, %mm2                      
	psllw $8, %mm5                        
	pmaddwd %mm5, %mm5                   
	pmaddwd %mm2, %mm2                   
	paddd %mm2, %mm5                     
	psrld $14, %mm5                       
	paddd %mm5, %mm0                     
	movq (%rdi, %rax), %mm5                     	# src
	movq (%r9, %rax), %mm2                     	# tempBlurred
	pxor %mm7, %mm2                      
	pavgb %mm2, %mm5 
	paddb %mm6, %mm5                     
	movq %mm5, %mm2                      
	psllw $8, %mm5                        
	pmaddwd %mm5, %mm5                   
	pmaddwd %mm2, %mm2                   
	paddd %mm2, %mm5                     
	psrld $14, %mm5                       
	paddd %mm5, %mm0                     
	movq (%rdi, %rsi, 4), %mm5                     	# src, D.13330
	movq (%r9, %rsi, 4), %mm2                     	# tempBlurred, D.13330
	pxor %mm7, %mm2                      
	pavgb %mm2, %mm5 
	paddb %mm6, %mm5                     
	movq %mm5, %mm2                      
	psllw $8, %mm5                        
	pmaddwd %mm5, %mm5                   
	pmaddwd %mm2, %mm2                   
	paddd %mm2, %mm5                     
	psrld $14, %mm5                       
	paddd %mm5, %mm0                     
	movq (%rdi, %rdx), %mm5                     	# src
	movq (%r9, %rdx), %mm2                     	# tempBlurred
	pxor %mm7, %mm2                      
	pavgb %mm2, %mm5 
	paddb %mm6, %mm5                     
	movq %mm5, %mm2                      
	psllw $8, %mm5                        
	pmaddwd %mm5, %mm5                   
	pmaddwd %mm2, %mm2                   
	paddd %mm2, %mm5                     
	psrld $14, %mm5                       
	paddd %mm5, %mm0                     
	movq (%rdi, %rax,2), %mm5                     	# src
	movq (%r9, %rax,2), %mm2                     	# tempBlurred
	pxor %mm7, %mm2                      
	pavgb %mm2, %mm5 
	paddb %mm6, %mm5                     
	movq %mm5, %mm2                      
	psllw $8, %mm5                        
	pmaddwd %mm5, %mm5                   
	pmaddwd %mm2, %mm2                   
	paddd %mm2, %mm5                     
	psrld $14, %mm5                       
	paddd %mm5, %mm0                     
	movq (%rdi, %rcx), %mm5                     	# src
	movq (%r9, %rcx), %mm2                     	# tempBlurred
	pxor %mm7, %mm2                      
	pavgb %mm2, %mm5 
	paddb %mm6, %mm5                     
	movq %mm5, %mm2                      
	psllw $8, %mm5                        
	pmaddwd %mm5, %mm5                   
	pmaddwd %mm2, %mm2                   
	paddd %mm2, %mm5                     
	psrld $14, %mm5                       
	paddd %mm5, %mm0                     
	movq %mm0, %mm4                      
	psrlq $32, %mm0                       
	paddd %mm0, %mm4                     
	movd %mm4, %ecx                      
	shll $2, %ecx                         
	mov -8(%rsp), %rdx                      	# tempBlurredPast
	addl -4(%rdx), %ecx              
	addl 4(%rdx), %ecx               
	addl -1024(%rdx), %ecx           
	addl $4, %ecx                         
	addl 1024(%rdx), %ecx            
	shrl $3, %ecx                         
	movl %ecx, (%rdx)                
	cmpl 512(%rdx), %ecx             
	 jb 2f                                 
	cmpl 516(%rdx), %ecx             
	 jb 1f                                 
	lea (%rax, %rsi, 2), %rdx      	# D.13330
	lea (%rdx, %rsi, 2), %rcx      	# D.13330
	movq (%rdi), %mm0                       	# src
	movq (%rdi, %rsi), %mm1                   	# src, D.13330
	movq (%rdi, %rsi, 2), %mm2                	# src, D.13330
	movq (%rdi, %rax), %mm3            	# src
	movq (%rdi, %rsi, 4), %mm4                	# src, D.13330
	movq (%rdi, %rdx), %mm5            	# src
	movq (%rdi, %rax, 2), %mm6         	# src
	movq (%rdi, %rcx), %mm7            	# src
	movq %mm0, (%r9)                       	# tempBlurred
	movq %mm1, (%r9, %rsi)                   	# tempBlurred, D.13330
	movq %mm2, (%r9, %rsi, 2)                	# tempBlurred, D.13330
	movq %mm3, (%r9, %rax)            	# tempBlurred
	movq %mm4, (%r9, %rsi, 4)                	# tempBlurred, D.13330
	movq %mm5, (%r9, %rdx)            	# tempBlurred
	movq %mm6, (%r9, %rax, 2)         	# tempBlurred
	movq %mm7, (%r9, %rcx)            	# tempBlurred
	jmp 4f                                 
	1:                                     
	lea (%rax, %rsi, 2), %rdx      	# D.13330
	lea (%rdx, %rsi, 2), %rcx      	# D.13330
	movq (%rdi), %mm0                       	# src
	pavgb (%r9), %mm0 	# tempBlurred
	movq (%rdi, %rsi), %mm1                   	# src, D.13330
	pavgb (%r9, %rsi), %mm1 	# tempBlurred, D.13330
	movq (%rdi, %rsi, 2), %mm2                	# src, D.13330
	pavgb (%r9, %rsi, 2), %mm2 	# tempBlurred, D.13330
	movq (%rdi, %rax), %mm3            	# src
	pavgb (%r9, %rax), %mm3 	# tempBlurred
	movq (%rdi, %rsi, 4), %mm4                	# src, D.13330
	pavgb (%r9, %rsi, 4), %mm4 	# tempBlurred, D.13330
	movq (%rdi, %rdx), %mm5            	# src
	pavgb (%r9, %rdx), %mm5 	# tempBlurred
	movq (%rdi, %rax, 2), %mm6         	# src
	pavgb (%r9, %rax, 2), %mm6 	# tempBlurred
	movq (%rdi, %rcx), %mm7            	# src
	pavgb (%r9, %rcx), %mm7 	# tempBlurred
	movq %mm0, (%r9)                       	# tempBlurred
	movq %mm1, (%r9, %rsi)                   	# tempBlurred, D.13330
	movq %mm2, (%r9, %rsi, 2)                	# tempBlurred, D.13330
	movq %mm3, (%r9, %rax)            	# tempBlurred
	movq %mm4, (%r9, %rsi, 4)                	# tempBlurred, D.13330
	movq %mm5, (%r9, %rdx)            	# tempBlurred
	movq %mm6, (%r9, %rax, 2)         	# tempBlurred
	movq %mm7, (%r9, %rcx)            	# tempBlurred
	movq %mm0, (%rdi)                       	# src
	movq %mm1, (%rdi, %rsi)                   	# src, D.13330
	movq %mm2, (%rdi, %rsi, 2)                	# src, D.13330
	movq %mm3, (%rdi, %rax)            	# src
	movq %mm4, (%rdi, %rsi, 4)                	# src, D.13330
	movq %mm5, (%rdi, %rdx)            	# src
	movq %mm6, (%rdi, %rax, 2)         	# src
	movq %mm7, (%rdi, %rcx)            	# src
	jmp 4f                                 
	2:                                     
	cmpl 508(%rdx), %ecx             
	 jb 3f                                 
	lea (%rax, %rsi, 2), %rdx      	# D.13330
	lea (%rdx, %rsi, 2), %rcx      	# D.13330
	movq (%rdi), %mm0                       	# src
	movq (%rdi, %rsi), %mm1                   	# src, D.13330
	movq (%rdi, %rsi, 2), %mm2                	# src, D.13330
	movq (%rdi, %rax), %mm3            	# src
	movq (%r9), %mm4                       	# tempBlurred
	movq (%r9, %rsi), %mm5                   	# tempBlurred, D.13330
	movq (%r9, %rsi, 2), %mm6                	# tempBlurred, D.13330
	movq (%r9, %rax), %mm7            	# tempBlurred
	pavgb %mm4, %mm0 
	pavgb %mm5, %mm1 
	pavgb %mm6, %mm2 
	pavgb %mm7, %mm3 
	pavgb %mm4, %mm0 
	pavgb %mm5, %mm1 
	pavgb %mm6, %mm2 
	pavgb %mm7, %mm3 
	movq %mm0, (%r9)                       	# tempBlurred
	movq %mm1, (%r9, %rsi)                   	# tempBlurred, D.13330
	movq %mm2, (%r9, %rsi, 2)                	# tempBlurred, D.13330
	movq %mm3, (%r9, %rax)            	# tempBlurred
	movq %mm0, (%rdi)                       	# src
	movq %mm1, (%rdi, %rsi)                   	# src, D.13330
	movq %mm2, (%rdi, %rsi, 2)                	# src, D.13330
	movq %mm3, (%rdi, %rax)            	# src
	movq (%rdi, %rsi, 4), %mm0                	# src, D.13330
	movq (%rdi, %rdx), %mm1            	# src
	movq (%rdi, %rax, 2), %mm2         	# src
	movq (%rdi, %rcx), %mm3            	# src
	movq (%r9, %rsi, 4), %mm4                	# tempBlurred, D.13330
	movq (%r9, %rdx), %mm5            	# tempBlurred
	movq (%r9, %rax, 2), %mm6         	# tempBlurred
	movq (%r9, %rcx), %mm7            	# tempBlurred
	pavgb %mm4, %mm0 
	pavgb %mm5, %mm1 
	pavgb %mm6, %mm2 
	pavgb %mm7, %mm3 
	pavgb %mm4, %mm0 
	pavgb %mm5, %mm1 
	pavgb %mm6, %mm2 
	pavgb %mm7, %mm3 
	movq %mm0, (%r9, %rsi, 4)                	# tempBlurred, D.13330
	movq %mm1, (%r9, %rdx)            	# tempBlurred
	movq %mm2, (%r9, %rax, 2)         	# tempBlurred
	movq %mm3, (%r9, %rcx)            	# tempBlurred
	movq %mm0, (%rdi, %rsi, 4)                	# src, D.13330
	movq %mm1, (%rdi, %rdx)            	# src
	movq %mm2, (%rdi, %rax, 2)         	# src
	movq %mm3, (%rdi, %rcx)            	# src
	jmp 4f                                 
	3:                                     
	lea (%rax, %rsi, 2), %rdx      	# D.13330
	lea (%rdx, %rsi, 2), %rcx      	# D.13330
	movq (%rdi), %mm0                       	# src
	movq (%rdi, %rsi), %mm1                   	# src, D.13330
	movq (%rdi, %rsi, 2), %mm2                	# src, D.13330
	movq (%rdi, %rax), %mm3            	# src
	movq (%r9), %mm4                       	# tempBlurred
	movq (%r9, %rsi), %mm5                   	# tempBlurred, D.13330
	movq (%r9, %rsi, 2), %mm6                	# tempBlurred, D.13330
	movq (%r9, %rax), %mm7            	# tempBlurred
	pavgb %mm4, %mm0 
	pavgb %mm5, %mm1 
	pavgb %mm6, %mm2 
	pavgb %mm7, %mm3 
	pavgb %mm4, %mm0 
	pavgb %mm5, %mm1 
	pavgb %mm6, %mm2 
	pavgb %mm7, %mm3 
	pavgb %mm4, %mm0 
	pavgb %mm5, %mm1 
	pavgb %mm6, %mm2 
	pavgb %mm7, %mm3 
	movq %mm0, (%r9)                       	# tempBlurred
	movq %mm1, (%r9, %rsi)                   	# tempBlurred, D.13330
	movq %mm2, (%r9, %rsi, 2)                	# tempBlurred, D.13330
	movq %mm3, (%r9, %rax)            	# tempBlurred
	movq %mm0, (%rdi)                       	# src
	movq %mm1, (%rdi, %rsi)                   	# src, D.13330
	movq %mm2, (%rdi, %rsi, 2)                	# src, D.13330
	movq %mm3, (%rdi, %rax)            	# src
	movq (%rdi, %rsi, 4), %mm0                	# src, D.13330
	movq (%rdi, %rdx), %mm1            	# src
	movq (%rdi, %rax, 2), %mm2         	# src
	movq (%rdi, %rcx), %mm3            	# src
	movq (%r9, %rsi, 4), %mm4                	# tempBlurred, D.13330
	movq (%r9, %rdx), %mm5            	# tempBlurred
	movq (%r9, %rax, 2), %mm6         	# tempBlurred
	movq (%r9, %rcx), %mm7            	# tempBlurred
	pavgb %mm4, %mm0 
	pavgb %mm5, %mm1 
	pavgb %mm6, %mm2 
	pavgb %mm7, %mm3 
	pavgb %mm4, %mm0 
	pavgb %mm5, %mm1 
	pavgb %mm6, %mm2 
	pavgb %mm7, %mm3 
	pavgb %mm4, %mm0 
	pavgb %mm5, %mm1 
	pavgb %mm6, %mm2 
	pavgb %mm7, %mm3 
	movq %mm0, (%r9, %rsi, 4)                	# tempBlurred, D.13330
	movq %mm1, (%r9, %rdx)            	# tempBlurred
	movq %mm2, (%r9, %rax, 2)         	# tempBlurred
	movq %mm3, (%r9, %rcx)            	# tempBlurred
	movq %mm0, (%rdi, %rsi, 4)                	# src, D.13330
	movq %mm1, (%rdi, %rdx)            	# src
	movq %mm2, (%rdi, %rax, 2)         	# src
	movq %mm3, (%rdi, %rcx)            	# src
	4:                                     
	
# 0 "" 2
#NO_APP
	ret
	.cfi_endproc
.LFE135:
	.size	tempNoiseReducer_MMX2, .-tempNoiseReducer_MMX2
	.type	doVertLowPass_3DNow, @function
doVertLowPass_3DNow:
.LFB141:
	.cfi_startproc
	leal	(%rsi,%rsi,2), %eax	#, D.13332
	cltq
	addq	%rax, %rdi	# D.13333, src
	movslq	%esi, %rsi	# stride, D.13334
#APP
# 232 "postprocess_template.c" 1
	movq 112(%rdx), %mm0                         	# c_8(D)->pQPb
	pxor %mm4, %mm4                      
	movq (%rdi), %mm6                       	# src
	movq (%rdi, %rsi), %mm5                   	# src, D.13334
	movq %mm5, %mm1                      
	movq %mm6, %mm2                      
	psubusb %mm6, %mm5                   
	psubusb %mm1, %mm2                   
	por %mm5, %mm2                       
	psubusb %mm0, %mm2                   
	pcmpeqb %mm4, %mm2                   
	pand %mm2, %mm6                      
	pandn %mm1, %mm2                     
	por %mm2, %mm6                       
	movq (%rdi, %rsi, 8), %mm5                	# src, D.13334
	lea (%rdi, %rsi, 4), %rax             	# src, D.13334
	lea (%rdi, %rsi, 8), %rcx             	# src, D.13334
	sub %rsi, %rcx                      	# D.13334
	add %rsi, %rdi                             	# D.13334, src
	movq (%rdi, %rsi, 8), %mm7                	# src, D.13334
	movq %mm5, %mm1                      
	movq %mm7, %mm2                      
	psubusb %mm7, %mm5                   
	psubusb %mm1, %mm2                   
	por %mm5, %mm2                       
	psubusb %mm0, %mm2                   
	pcmpeqb %mm4, %mm2                   
	pand %mm2, %mm7                      
	pandn %mm1, %mm2                     
	por %mm2, %mm7                       
	movq (%rdi, %rsi), %mm0                   	# src, D.13334
	movq %mm0, %mm1                      
	pavgusb %mm6, %mm0 
	pavgusb %mm6, %mm0 
	movq (%rdi, %rsi, 4), %mm2                	# src, D.13334
	movq %mm2, %mm5                      
	pavgusb (%rax), %mm2 
	pavgusb (%rdi, %rsi, 2), %mm2 	# src, D.13334
	movq %mm2, %mm3                      
	movq (%rdi), %mm4                       	# src
	pavgusb %mm4, %mm3 
	pavgusb %mm0, %mm3 
	movq %mm3, (%rdi)                       	# src
	movq %mm1, %mm0                      
	pavgusb %mm6, %mm0 
	movq %mm4, %mm3                      
	pavgusb (%rdi,%rsi,2), %mm3 	# src, D.13334
	pavgusb (%rax,%rsi,2), %mm5 	# D.13334
	pavgusb (%rax), %mm5 
	pavgusb %mm5, %mm3 
	pavgusb %mm0, %mm3 
	movq %mm3, (%rdi,%rsi)                    	# src, D.13334
	pavgusb %mm4, %mm6 
	movq (%rcx), %mm0                
	pavgusb (%rax, %rsi, 2), %mm0 	# D.13334
	movq %mm0, %mm3                      
	pavgusb %mm1, %mm0 
	pavgusb %mm6, %mm0 
	pavgusb %mm2, %mm0 
	movq (%rdi, %rsi, 2), %mm2                	# src, D.13334
	movq %mm0, (%rdi, %rsi, 2)                	# src, D.13334
	movq (%rax, %rsi, 4), %mm0         	# D.13334
	pavgusb (%rcx), %mm0 
	pavgusb %mm0, %mm6 
	pavgusb %mm1, %mm4 
	pavgusb %mm2, %mm1 
	pavgusb %mm1, %mm6 
	pavgusb %mm5, %mm6 
	movq (%rax), %mm5                
	movq %mm6, (%rax)                
	movq (%rax, %rsi, 4), %mm6         	# D.13334
	pavgusb %mm7, %mm6 
	pavgusb %mm4, %mm6 
	pavgusb %mm3, %mm6 
	pavgusb %mm5, %mm2 
	movq (%rdi, %rsi, 4), %mm4                	# src, D.13334
	pavgusb %mm4, %mm2 
	pavgusb %mm2, %mm6 
	movq %mm6, (%rdi, %rsi, 4)                	# src, D.13334
	pavgusb %mm7, %mm1 
	pavgusb %mm4, %mm5 
	pavgusb %mm5, %mm0 
	movq (%rax, %rsi, 2), %mm6         	# D.13334
	pavgusb %mm6, %mm1 
	pavgusb %mm0, %mm1 
	movq %mm1, (%rax, %rsi, 2)         	# D.13334
	pavgusb (%rcx), %mm2 
	movq (%rax, %rsi, 4), %mm0         	# D.13334
	pavgusb %mm0, %mm6 
	pavgusb %mm7, %mm6 
	pavgusb %mm2, %mm6 
	movq %mm6, (%rcx)                
	pavgusb %mm7, %mm5 
	pavgusb %mm7, %mm5 
	pavgusb %mm3, %mm0 
	pavgusb %mm0, %mm5 
	movq %mm5, (%rax, %rsi, 4)         	# D.13334
	sub %rsi, %rdi                             	# D.13334, src
	
# 0 "" 2
#NO_APP
	ret
	.cfi_endproc
.LFE141:
	.size	doVertLowPass_3DNow, .-doVertLowPass_3DNow
	.type	dering_3DNow, @function
dering_3DNow:
.LFB144:
	.cfi_startproc
	movq	%rdx, %rcx	# c, c
	movslq	%esi, %rsi	# stride, D.13336
	leaq	-32(%rsp), %r8	#, tmp88
#APP
# 1097 "postprocess_template.c" 1
	pxor %mm6, %mm6                      
	pcmpeqb %mm7, %mm7                   
	movq 112(%rcx), %mm0                         	# c_5(D)->pQPb
	punpcklbw %mm6, %mm0                 
	psrlw $1, %mm0                        
	psubw %mm7, %mm0                     
	packuswb %mm0, %mm0                  
	movq %mm0, 120(%rcx)                         	# c_5(D)->pQPb2
	lea (%rdi, %rsi), %rax                	# src, D.13336
	lea (%rax, %rsi, 4), %rdx      	# D.13336
	movq (%rax), %mm0                  
	movq %mm7, %mm1                      
	psubusb %mm0, %mm6                   
	paddb %mm0, %mm6                     
	psubusb %mm0, %mm1                   
	psubb %mm1, %mm7                     
	movq (%rax, %rsi), %mm0                  	# D.13336
	movq %mm7, %mm1                      
	psubusb %mm0, %mm6                   
	paddb %mm0, %mm6                     
	psubusb %mm0, %mm1                   
	psubb %mm1, %mm7                     
	movq (%rax, %rsi, 2), %mm0                  	# D.13336
	movq %mm7, %mm1                      
	psubusb %mm0, %mm6                   
	paddb %mm0, %mm6                     
	psubusb %mm0, %mm1                   
	psubb %mm1, %mm7                     
	movq (%rdi, %rsi, 4), %mm0                  	# src, D.13336
	movq %mm7, %mm1                      
	psubusb %mm0, %mm6                   
	paddb %mm0, %mm6                     
	psubusb %mm0, %mm1                   
	psubb %mm1, %mm7                     
	movq (%rdx), %mm0                  
	movq %mm7, %mm1                      
	psubusb %mm0, %mm6                   
	paddb %mm0, %mm6                     
	psubusb %mm0, %mm1                   
	psubb %mm1, %mm7                     
	movq (%rdx, %rsi), %mm0                  	# D.13336
	movq %mm7, %mm1                      
	psubusb %mm0, %mm6                   
	paddb %mm0, %mm6                     
	psubusb %mm0, %mm1                   
	psubb %mm1, %mm7                     
	movq (%rdx, %rsi, 2), %mm0                  	# D.13336
	movq %mm7, %mm1                      
	psubusb %mm0, %mm6                   
	paddb %mm0, %mm6                     
	psubusb %mm0, %mm1                   
	psubb %mm1, %mm7                     
	movq (%rdi, %rsi, 8), %mm0                  	# src, D.13336
	movq %mm7, %mm1                      
	psubusb %mm0, %mm6                   
	paddb %mm0, %mm6                     
	psubusb %mm0, %mm1                   
	psubb %mm1, %mm7                     
	movq %mm7, %mm4                      
	psrlq $8, %mm7                        
	movq %mm7, %mm1                      
	psubusb %mm4, %mm1                   
	psubb %mm1, %mm7                     
	movq %mm7, %mm4                      
	psrlq $16, %mm7                       
	movq %mm7, %mm1                      
	psubusb %mm4, %mm1                   
	psubb %mm1, %mm7                     
	movq %mm7, %mm4                      
	psrlq $32, %mm7                       
	movq %mm7, %mm1                      
	psubusb %mm4, %mm1                   
	psubb %mm1, %mm7                     
	movq %mm6, %mm4                      
	psrlq $8, %mm6                        
	psubusb %mm4, %mm6                   
	paddb %mm4, %mm6                     
	movq %mm6, %mm4                      
	psrlq $16, %mm6                       
	psubusb %mm4, %mm6                   
	paddb %mm4, %mm6                     
	movq %mm6, %mm4                      
	psrlq $32, %mm6                       
	psubusb %mm4, %mm6                   
	paddb %mm4, %mm6                     
	movq %mm6, %mm0                      
	psubb %mm7, %mm6                     
	push %r8                              	# tmp88
	movd %mm6, %r8d                        	# tmp88
	cmpb deringThreshold, %r8b    	# tmp88
	pop %r8                               	# tmp88
	 jb .skip                                 
	pavgusb %mm0, %mm7 
	punpcklbw %mm7, %mm7                 
	punpcklbw %mm7, %mm7                 
	punpcklbw %mm7, %mm7                 
	movq %mm7, (%r8)                       	# tmp88
	movq (%rdi), %mm0                       	# src
	movq %mm0, %mm1                      
	movq %mm0, %mm2                      
	psllq $8, %mm1                        
	psrlq $8, %mm2                        
.skip:
	movd -4(%rdi), %mm3                     	# src
	movd 8(%rdi), %mm4                      	# src
	psrlq $24, %mm3                       
	psllq $56, %mm4                       
	por %mm3, %mm1                       
	por %mm4, %mm2                       
	movq %mm1, %mm3                      
	pavgusb %mm2, %mm1 
	pavgusb %mm0, %mm1 
	psubusb %mm7, %mm0                   
	psubusb %mm7, %mm2                   
	psubusb %mm7, %mm3                   
	pcmpeqb b00, %mm0           
	pcmpeqb b00, %mm2           
	pcmpeqb b00, %mm3           
	paddb %mm2, %mm0                     
	paddb %mm3, %mm0                     
	movq (%rax), %mm2                
	movq %mm2, %mm3                      
	movq %mm2, %mm4                      
	psllq $8, %mm3                        
	psrlq $8, %mm4                        
	movd -4(%rax), %mm5              
	movd 8(%rax), %mm6               
	psrlq $24, %mm5                       
	psllq $56, %mm6                       
	por %mm5, %mm3                       
	por %mm6, %mm4                       
	movq %mm3, %mm5                      
	pavgusb %mm4, %mm3 
	pavgusb %mm2, %mm3 
	psubusb %mm7, %mm2                   
	psubusb %mm7, %mm4                   
	psubusb %mm7, %mm5                   
	pcmpeqb b00, %mm2           
	pcmpeqb b00, %mm4           
	pcmpeqb b00, %mm5           
	paddb %mm4, %mm2                     
	paddb %mm5, %mm2                     
	movq (%rax, %rsi), %mm4                 	# D.13336
	movq %mm4, %mm5                  
	movq %mm4, %mm6                  
	psllq $8, %mm5                      
	psrlq $8, %mm6                      
	movd -4(%rax, %rsi), %mm7               	# D.13336
	psrlq $24, %mm7                     
	por %mm7, %mm5                   
	movd 8(%rax, %rsi), %mm7                	# D.13336
	psllq $56, %mm7                     
	por %mm7, %mm6                   
	movq %mm5, %mm7                  
	pavgusb %mm6, %mm5 
	pavgusb %mm4, %mm5 
	pavgusb %mm5, %mm1 
	movq %mm5, 8(%r8)                    	# tmp88
	movq (%r8), %mm5                     	# tmp88
	psubusb %mm5, %mm7               
	psubusb %mm5, %mm6               
	psubusb %mm5, %mm4               
	movq b00, %mm5            
	pcmpeqb %mm5, %mm7               
	pcmpeqb %mm5, %mm6               
	pcmpeqb %mm5, %mm4               
	paddb %mm7, %mm6                 
	paddb %mm6, %mm4                 
	pavgusb %mm3, %mm1 
	movq (%rax), %mm6                 
	movq %mm6, %mm7                  
	psubusb 120(%rcx), %mm6                    	# c_5(D)->pQPb2
	paddusb 120(%rcx), %mm7                    	# c_5(D)->pQPb2
	psubusb %mm6, %mm1 
	paddb %mm6, %mm1 
	movq %mm1, %mm6 
	psubusb %mm7, %mm6 
	psubb %mm6, %mm1 
	paddb %mm4, %mm0               
	paddb %mm2, %mm0              
	#paddb b02, %mm0        
	pand b08, %mm0          
	pcmpeqb %mm5, %mm0             
	pand %mm0, %mm1              
	pandn (%rax), %mm0              
	por %mm1, %mm0               
	movq %mm0, (%rax)               
	movq 8(%r8), %mm5                    	# tmp88
	movq (%rax, %rsi, 2), %mm0                 	# D.13336
	movq %mm0, %mm1                  
	movq %mm0, %mm6                  
	psllq $8, %mm1                      
	psrlq $8, %mm6                      
	movd -4(%rax, %rsi, 2), %mm7               	# D.13336
	psrlq $24, %mm7                     
	por %mm7, %mm1                   
	movd 8(%rax, %rsi, 2), %mm7                	# D.13336
	psllq $56, %mm7                     
	por %mm7, %mm6                   
	movq %mm1, %mm7                  
	pavgusb %mm6, %mm1 
	pavgusb %mm0, %mm1 
	pavgusb %mm1, %mm3 
	movq %mm1, 8(%r8)                    	# tmp88
	movq (%r8), %mm1                     	# tmp88
	psubusb %mm1, %mm7               
	psubusb %mm1, %mm6               
	psubusb %mm1, %mm0               
	movq b00, %mm1            
	pcmpeqb %mm1, %mm7               
	pcmpeqb %mm1, %mm6               
	pcmpeqb %mm1, %mm0               
	paddb %mm7, %mm6                 
	paddb %mm6, %mm0                 
	pavgusb %mm5, %mm3 
	movq (%rax, %rsi), %mm6                 	# D.13336
	movq %mm6, %mm7                  
	psubusb 120(%rcx), %mm6                    	# c_5(D)->pQPb2
	paddusb 120(%rcx), %mm7                    	# c_5(D)->pQPb2
	psubusb %mm6, %mm3 
	paddb %mm6, %mm3 
	movq %mm3, %mm6 
	psubusb %mm7, %mm6 
	psubb %mm6, %mm3 
	paddb %mm0, %mm2               
	paddb %mm4, %mm2              
	#paddb b02, %mm2        
	pand b08, %mm2          
	pcmpeqb %mm1, %mm2             
	pand %mm2, %mm3              
	pandn (%rax, %rsi), %mm2              	# D.13336
	por %mm3, %mm2               
	movq %mm2, (%rax, %rsi)               	# D.13336
	movq 8(%r8), %mm1                    	# tmp88
	movq (%rdi, %rsi, 4), %mm2                 	# src, D.13336
	movq %mm2, %mm3                  
	movq %mm2, %mm6                  
	psllq $8, %mm3                      
	psrlq $8, %mm6                      
	movd -4(%rdi, %rsi, 4), %mm7               	# src, D.13336
	psrlq $24, %mm7                     
	por %mm7, %mm3                   
	movd 8(%rdi, %rsi, 4), %mm7                	# src, D.13336
	psllq $56, %mm7                     
	por %mm7, %mm6                   
	movq %mm3, %mm7                  
	pavgusb %mm6, %mm3 
	pavgusb %mm2, %mm3 
	pavgusb %mm3, %mm5 
	movq %mm3, 8(%r8)                    	# tmp88
	movq (%r8), %mm3                     	# tmp88
	psubusb %mm3, %mm7               
	psubusb %mm3, %mm6               
	psubusb %mm3, %mm2               
	movq b00, %mm3            
	pcmpeqb %mm3, %mm7               
	pcmpeqb %mm3, %mm6               
	pcmpeqb %mm3, %mm2               
	paddb %mm7, %mm6                 
	paddb %mm6, %mm2                 
	pavgusb %mm1, %mm5 
	movq (%rax, %rsi, 2), %mm6                 	# D.13336
	movq %mm6, %mm7                  
	psubusb 120(%rcx), %mm6                    	# c_5(D)->pQPb2
	paddusb 120(%rcx), %mm7                    	# c_5(D)->pQPb2
	psubusb %mm6, %mm5 
	paddb %mm6, %mm5 
	movq %mm5, %mm6 
	psubusb %mm7, %mm6 
	psubb %mm6, %mm5 
	paddb %mm2, %mm4               
	paddb %mm0, %mm4              
	#paddb b02, %mm4        
	pand b08, %mm4          
	pcmpeqb %mm3, %mm4             
	pand %mm4, %mm5              
	pandn (%rax, %rsi, 2), %mm4              	# D.13336
	por %mm5, %mm4               
	movq %mm4, (%rax, %rsi, 2)               	# D.13336
	movq 8(%r8), %mm3                    	# tmp88
	movq (%rdx), %mm4                 
	movq %mm4, %mm5                  
	movq %mm4, %mm6                  
	psllq $8, %mm5                      
	psrlq $8, %mm6                      
	movd -4(%rdx), %mm7               
	psrlq $24, %mm7                     
	por %mm7, %mm5                   
	movd 8(%rdx), %mm7                
	psllq $56, %mm7                     
	por %mm7, %mm6                   
	movq %mm5, %mm7                  
	pavgusb %mm6, %mm5 
	pavgusb %mm4, %mm5 
	pavgusb %mm5, %mm1 
	movq %mm5, 8(%r8)                    	# tmp88
	movq (%r8), %mm5                     	# tmp88
	psubusb %mm5, %mm7               
	psubusb %mm5, %mm6               
	psubusb %mm5, %mm4               
	movq b00, %mm5            
	pcmpeqb %mm5, %mm7               
	pcmpeqb %mm5, %mm6               
	pcmpeqb %mm5, %mm4               
	paddb %mm7, %mm6                 
	paddb %mm6, %mm4                 
	pavgusb %mm3, %mm1 
	movq (%rdi, %rsi, 4), %mm6                 	# src, D.13336
	movq %mm6, %mm7                  
	psubusb 120(%rcx), %mm6                    	# c_5(D)->pQPb2
	paddusb 120(%rcx), %mm7                    	# c_5(D)->pQPb2
	psubusb %mm6, %mm1 
	paddb %mm6, %mm1 
	movq %mm1, %mm6 
	psubusb %mm7, %mm6 
	psubb %mm6, %mm1 
	paddb %mm4, %mm0               
	paddb %mm2, %mm0              
	#paddb b02, %mm0        
	pand b08, %mm0          
	pcmpeqb %mm5, %mm0             
	pand %mm0, %mm1              
	pandn (%rdi, %rsi, 4), %mm0              	# src, D.13336
	por %mm1, %mm0               
	movq %mm0, (%rdi, %rsi, 4)               	# src, D.13336
	movq 8(%r8), %mm5                    	# tmp88
	movq (%rdx, %rsi), %mm0                 	# D.13336
	movq %mm0, %mm1                  
	movq %mm0, %mm6                  
	psllq $8, %mm1                      
	psrlq $8, %mm6                      
	movd -4(%rdx, %rsi), %mm7               	# D.13336
	psrlq $24, %mm7                     
	por %mm7, %mm1                   
	movd 8(%rdx, %rsi), %mm7                	# D.13336
	psllq $56, %mm7                     
	por %mm7, %mm6                   
	movq %mm1, %mm7                  
	pavgusb %mm6, %mm1 
	pavgusb %mm0, %mm1 
	pavgusb %mm1, %mm3 
	movq %mm1, 8(%r8)                    	# tmp88
	movq (%r8), %mm1                     	# tmp88
	psubusb %mm1, %mm7               
	psubusb %mm1, %mm6               
	psubusb %mm1, %mm0               
	movq b00, %mm1            
	pcmpeqb %mm1, %mm7               
	pcmpeqb %mm1, %mm6               
	pcmpeqb %mm1, %mm0               
	paddb %mm7, %mm6                 
	paddb %mm6, %mm0                 
	pavgusb %mm5, %mm3 
	movq (%rdx), %mm6                 
	movq %mm6, %mm7                  
	psubusb 120(%rcx), %mm6                    	# c_5(D)->pQPb2
	paddusb 120(%rcx), %mm7                    	# c_5(D)->pQPb2
	psubusb %mm6, %mm3 
	paddb %mm6, %mm3 
	movq %mm3, %mm6 
	psubusb %mm7, %mm6 
	psubb %mm6, %mm3 
	paddb %mm0, %mm2               
	paddb %mm4, %mm2              
	#paddb b02, %mm2        
	pand b08, %mm2          
	pcmpeqb %mm1, %mm2             
	pand %mm2, %mm3              
	pandn (%rdx), %mm2              
	por %mm3, %mm2               
	movq %mm2, (%rdx)               
	movq 8(%r8), %mm1                    	# tmp88
	movq (%rdx, %rsi, 2), %mm2                 	# D.13336
	movq %mm2, %mm3                  
	movq %mm2, %mm6                  
	psllq $8, %mm3                      
	psrlq $8, %mm6                      
	movd -4(%rdx, %rsi, 2), %mm7               	# D.13336
	psrlq $24, %mm7                     
	por %mm7, %mm3                   
	movd 8(%rdx, %rsi, 2), %mm7                	# D.13336
	psllq $56, %mm7                     
	por %mm7, %mm6                   
	movq %mm3, %mm7                  
	pavgusb %mm6, %mm3 
	pavgusb %mm2, %mm3 
	pavgusb %mm3, %mm5 
	movq %mm3, 8(%r8)                    	# tmp88
	movq (%r8), %mm3                     	# tmp88
	psubusb %mm3, %mm7               
	psubusb %mm3, %mm6               
	psubusb %mm3, %mm2               
	movq b00, %mm3            
	pcmpeqb %mm3, %mm7               
	pcmpeqb %mm3, %mm6               
	pcmpeqb %mm3, %mm2               
	paddb %mm7, %mm6                 
	paddb %mm6, %mm2                 
	pavgusb %mm1, %mm5 
	movq (%rdx, %rsi), %mm6                 	# D.13336
	movq %mm6, %mm7                  
	psubusb 120(%rcx), %mm6                    	# c_5(D)->pQPb2
	paddusb 120(%rcx), %mm7                    	# c_5(D)->pQPb2
	psubusb %mm6, %mm5 
	paddb %mm6, %mm5 
	movq %mm5, %mm6 
	psubusb %mm7, %mm6 
	psubb %mm6, %mm5 
	paddb %mm2, %mm4               
	paddb %mm0, %mm4              
	#paddb b02, %mm4        
	pand b08, %mm4          
	pcmpeqb %mm3, %mm4             
	pand %mm4, %mm5              
	pandn (%rdx, %rsi), %mm4              	# D.13336
	por %mm5, %mm4               
	movq %mm4, (%rdx, %rsi)               	# D.13336
	movq 8(%r8), %mm3                    	# tmp88
	movq (%rdi, %rsi, 8), %mm4                 	# src, D.13336
	movq %mm4, %mm5                  
	movq %mm4, %mm6                  
	psllq $8, %mm5                      
	psrlq $8, %mm6                      
	movd -4(%rdi, %rsi, 8), %mm7               	# src, D.13336
	psrlq $24, %mm7                     
	por %mm7, %mm5                   
	movd 8(%rdi, %rsi, 8), %mm7                	# src, D.13336
	psllq $56, %mm7                     
	por %mm7, %mm6                   
	movq %mm5, %mm7                  
	pavgusb %mm6, %mm5 
	pavgusb %mm4, %mm5 
	pavgusb %mm5, %mm1 
	movq %mm5, 8(%r8)                    	# tmp88
	movq (%r8), %mm5                     	# tmp88
	psubusb %mm5, %mm7               
	psubusb %mm5, %mm6               
	psubusb %mm5, %mm4               
	movq b00, %mm5            
	pcmpeqb %mm5, %mm7               
	pcmpeqb %mm5, %mm6               
	pcmpeqb %mm5, %mm4               
	paddb %mm7, %mm6                 
	paddb %mm6, %mm4                 
	pavgusb %mm3, %mm1 
	movq (%rdx, %rsi, 2), %mm6                 	# D.13336
	movq %mm6, %mm7                  
	psubusb 120(%rcx), %mm6                    	# c_5(D)->pQPb2
	paddusb 120(%rcx), %mm7                    	# c_5(D)->pQPb2
	psubusb %mm6, %mm1 
	paddb %mm6, %mm1 
	movq %mm1, %mm6 
	psubusb %mm7, %mm6 
	psubb %mm6, %mm1 
	paddb %mm4, %mm0               
	paddb %mm2, %mm0              
	#paddb b02, %mm0        
	pand b08, %mm0          
	pcmpeqb %mm5, %mm0             
	pand %mm0, %mm1              
	pandn (%rdx, %rsi, 2), %mm0              	# D.13336
	por %mm1, %mm0               
	movq %mm0, (%rdx, %rsi, 2)               	# D.13336
	movq 8(%r8), %mm5                    	# tmp88
	movq (%rdx, %rsi, 4), %mm0                 	# D.13336
	movq %mm0, %mm1                  
	movq %mm0, %mm6                  
	psllq $8, %mm1                      
	psrlq $8, %mm6                      
	movd -4(%rdx, %rsi, 4), %mm7               	# D.13336
	psrlq $24, %mm7                     
	por %mm7, %mm1                   
	movd 8(%rdx, %rsi, 4), %mm7                	# D.13336
	psllq $56, %mm7                     
	por %mm7, %mm6                   
	movq %mm1, %mm7                  
	pavgusb %mm6, %mm1 
	pavgusb %mm0, %mm1 
	pavgusb %mm1, %mm3 
	movq %mm1, 8(%r8)                    	# tmp88
	movq (%r8), %mm1                     	# tmp88
	psubusb %mm1, %mm7               
	psubusb %mm1, %mm6               
	psubusb %mm1, %mm0               
	movq b00, %mm1            
	pcmpeqb %mm1, %mm7               
	pcmpeqb %mm1, %mm6               
	pcmpeqb %mm1, %mm0               
	paddb %mm7, %mm6                 
	paddb %mm6, %mm0                 
	pavgusb %mm5, %mm3 
	movq (%rdi, %rsi, 8), %mm6                 	# src, D.13336
	movq %mm6, %mm7                  
	psubusb 120(%rcx), %mm6                    	# c_5(D)->pQPb2
	paddusb 120(%rcx), %mm7                    	# c_5(D)->pQPb2
	psubusb %mm6, %mm3 
	paddb %mm6, %mm3 
	movq %mm3, %mm6 
	psubusb %mm7, %mm6 
	psubb %mm6, %mm3 
	paddb %mm0, %mm2               
	paddb %mm4, %mm2              
	#paddb b02, %mm2        
	pand b08, %mm2          
	pcmpeqb %mm1, %mm2             
	pand %mm2, %mm3              
	pandn (%rdi, %rsi, 8), %mm2              	# src, D.13336
	por %mm3, %mm2               
	movq %mm2, (%rdi, %rsi, 8)               	# src, D.13336
	movq 8(%r8), %mm1                    	# tmp88
	1:                        
	
# 0 "" 2
#NO_APP
	ret
	.cfi_endproc
.LFE144:
	.size	dering_3DNow, .-dering_3DNow
	.type	deInterlaceInterpolateCubic_3DNow, @function
deInterlaceInterpolateCubic_3DNow:
.LFB146:
	.cfi_startproc
	leal	(%rsi,%rsi,2), %eax	#, D.13343
	cltq
	addq	%rax, %rdi	# D.13344, src
	movslq	%esi, %rsi	# stride, D.13345
#APP
# 1508 "postprocess_template.c" 1
	lea (%rdi, %rsi), %rax                	# src, D.13345
	lea (%rax, %rsi, 4), %rdx      	# D.13345
	lea (%rdx, %rsi, 4), %rcx      	# D.13345
	add %rsi, %rcx                      	# D.13345
	pxor %mm7, %mm7                      
	movq (%rdi), %mm0                     	# src
	movq (%rax, %rsi), %mm1                     	# D.13345
	movq (%rdi, %rsi, 4), %mm2                     	# src, D.13345
	movq (%rdx, %rsi), %mm3                     	# D.13345
	pavgusb %mm2, %mm1 
	pavgusb %mm3, %mm0 
	movq %mm0, %mm2                      
	punpcklbw %mm7, %mm0                 
	punpckhbw %mm7, %mm2                 
	movq %mm1, %mm3                      
	punpcklbw %mm7, %mm1                 
	punpckhbw %mm7, %mm3                 
	psubw %mm1, %mm0                     
	psubw %mm3, %mm2                     
	psraw $3, %mm0                        
	psraw $3, %mm2                        
	psubw %mm0, %mm1                     
	psubw %mm2, %mm3                     
	packuswb %mm3, %mm1                  
	movq %mm1, (%rax, %rsi, 2)                     	# D.13345
	movq (%rax, %rsi), %mm0                     	# D.13345
	movq (%rdi, %rsi, 4), %mm1                     	# src, D.13345
	movq (%rdx, %rsi), %mm2                     	# D.13345
	movq (%rdi, %rsi, 8), %mm3                     	# src, D.13345
	pavgusb %mm2, %mm1 
	pavgusb %mm3, %mm0 
	movq %mm0, %mm2                      
	punpcklbw %mm7, %mm0                 
	punpckhbw %mm7, %mm2                 
	movq %mm1, %mm3                      
	punpcklbw %mm7, %mm1                 
	punpckhbw %mm7, %mm3                 
	psubw %mm1, %mm0                     
	psubw %mm3, %mm2                     
	psraw $3, %mm0                        
	psraw $3, %mm2                        
	psubw %mm0, %mm1                     
	psubw %mm2, %mm3                     
	packuswb %mm3, %mm1                  
	movq %mm1, (%rdx)                     
	movq (%rdi, %rsi, 4), %mm0                     	# src, D.13345
	movq (%rdx, %rsi), %mm1                     	# D.13345
	movq (%rdi, %rsi, 8), %mm2                     	# src, D.13345
	movq (%rcx), %mm3                     
	pavgusb %mm2, %mm1 
	pavgusb %mm3, %mm0 
	movq %mm0, %mm2                      
	punpcklbw %mm7, %mm0                 
	punpckhbw %mm7, %mm2                 
	movq %mm1, %mm3                      
	punpcklbw %mm7, %mm1                 
	punpckhbw %mm7, %mm3                 
	psubw %mm1, %mm0                     
	psubw %mm3, %mm2                     
	psraw $3, %mm0                        
	psraw $3, %mm2                        
	psubw %mm0, %mm1                     
	psubw %mm2, %mm3                     
	packuswb %mm3, %mm1                  
	movq %mm1, (%rdx, %rsi, 2)                     	# D.13345
	movq (%rdx, %rsi), %mm0                     	# D.13345
	movq (%rdi, %rsi, 8), %mm1                     	# src, D.13345
	movq (%rcx), %mm2                     
	movq (%rcx, %rsi, 2), %mm3                     	# D.13345
	pavgusb %mm2, %mm1 
	pavgusb %mm3, %mm0 
	movq %mm0, %mm2                      
	punpcklbw %mm7, %mm0                 
	punpckhbw %mm7, %mm2                 
	movq %mm1, %mm3                      
	punpcklbw %mm7, %mm1                 
	punpckhbw %mm7, %mm3                 
	psubw %mm1, %mm0                     
	psubw %mm3, %mm2                     
	psraw $3, %mm0                        
	psraw $3, %mm2                        
	psubw %mm0, %mm1                     
	psubw %mm2, %mm3                     
	packuswb %mm3, %mm1                  
	movq %mm1, (%rdx, %rsi, 4)                     	# D.13345
	
# 0 "" 2
#NO_APP
	ret
	.cfi_endproc
.LFE146:
	.size	deInterlaceInterpolateCubic_3DNow, .-deInterlaceInterpolateCubic_3DNow
	.type	deInterlaceFF_3DNow, @function
deInterlaceFF_3DNow:
.LFB147:
	.cfi_startproc
	movq	%rdx, %rcx	# tmp, tmp
	leal	0(,%rsi,4), %eax	#, D.13353
	cltq
	addq	%rax, %rdi	# D.13354, src
	movslq	%esi, %rsi	# stride, D.13355
#APP
# 1595 "postprocess_template.c" 1
	lea (%rdi, %rsi), %rax                	# src, D.13355
	lea (%rax, %rsi, 4), %rdx      	# D.13355
	pxor %mm7, %mm7                      
	movq (%rcx), %mm0                       	# tmp
	movq (%rdi), %mm1                     	# src
	movq (%rax), %mm2                     
	movq (%rax, %rsi), %mm3                     	# D.13355
	movq (%rax, %rsi, 2), %mm4                     	# D.13355
	pavgusb %mm3, %mm1 
	pavgusb %mm4, %mm0 
	movq %mm0, %mm3                      
	punpcklbw %mm7, %mm0                 
	punpckhbw %mm7, %mm3                 
	movq %mm1, %mm4                      
	punpcklbw %mm7, %mm1                 
	punpckhbw %mm7, %mm4                 
	psllw $2, %mm1                        
	psllw $2, %mm4                        
	psubw %mm0, %mm1                     
	psubw %mm3, %mm4                     
	movq %mm2, %mm5                      
	movq %mm2, %mm0                      
	punpcklbw %mm7, %mm2                 
	punpckhbw %mm7, %mm5                 
	paddw %mm2, %mm1                     
	paddw %mm5, %mm4                     
	psraw $2, %mm1                        
	psraw $2, %mm4                        
	packuswb %mm4, %mm1                  
	movq %mm1, (%rax)                     
	movq (%rax, %rsi), %mm1                     	# D.13355
	movq (%rax, %rsi, 2), %mm2                     	# D.13355
	movq (%rdi, %rsi, 4), %mm3                     	# src, D.13355
	movq (%rdx), %mm4                     
	pavgusb %mm3, %mm1 
	pavgusb %mm4, %mm0 
	movq %mm0, %mm3                      
	punpcklbw %mm7, %mm0                 
	punpckhbw %mm7, %mm3                 
	movq %mm1, %mm4                      
	punpcklbw %mm7, %mm1                 
	punpckhbw %mm7, %mm4                 
	psllw $2, %mm1                        
	psllw $2, %mm4                        
	psubw %mm0, %mm1                     
	psubw %mm3, %mm4                     
	movq %mm2, %mm5                      
	movq %mm2, %mm0                      
	punpcklbw %mm7, %mm2                 
	punpckhbw %mm7, %mm5                 
	paddw %mm2, %mm1                     
	paddw %mm5, %mm4                     
	psraw $2, %mm1                        
	psraw $2, %mm4                        
	packuswb %mm4, %mm1                  
	movq %mm1, (%rax, %rsi, 2)                     	# D.13355
	movq (%rdi, %rsi, 4), %mm1                     	# src, D.13355
	movq (%rdx), %mm2                     
	movq (%rdx, %rsi), %mm3                     	# D.13355
	movq (%rdx, %rsi, 2), %mm4                     	# D.13355
	pavgusb %mm3, %mm1 
	pavgusb %mm4, %mm0 
	movq %mm0, %mm3                      
	punpcklbw %mm7, %mm0                 
	punpckhbw %mm7, %mm3                 
	movq %mm1, %mm4                      
	punpcklbw %mm7, %mm1                 
	punpckhbw %mm7, %mm4                 
	psllw $2, %mm1                        
	psllw $2, %mm4                        
	psubw %mm0, %mm1                     
	psubw %mm3, %mm4                     
	movq %mm2, %mm5                      
	movq %mm2, %mm0                      
	punpcklbw %mm7, %mm2                 
	punpckhbw %mm7, %mm5                 
	paddw %mm2, %mm1                     
	paddw %mm5, %mm4                     
	psraw $2, %mm1                        
	psraw $2, %mm4                        
	packuswb %mm4, %mm1                  
	movq %mm1, (%rdx)                     
	movq (%rdx, %rsi), %mm1                     	# D.13355
	movq (%rdx, %rsi, 2), %mm2                     	# D.13355
	movq (%rdi, %rsi, 8), %mm3                     	# src, D.13355
	movq (%rdx, %rsi, 4), %mm4                     	# D.13355
	pavgusb %mm3, %mm1 
	pavgusb %mm4, %mm0 
	movq %mm0, %mm3                      
	punpcklbw %mm7, %mm0                 
	punpckhbw %mm7, %mm3                 
	movq %mm1, %mm4                      
	punpcklbw %mm7, %mm1                 
	punpckhbw %mm7, %mm4                 
	psllw $2, %mm1                        
	psllw $2, %mm4                        
	psubw %mm0, %mm1                     
	psubw %mm3, %mm4                     
	movq %mm2, %mm5                      
	movq %mm2, %mm0                      
	punpcklbw %mm7, %mm2                 
	punpckhbw %mm7, %mm5                 
	paddw %mm2, %mm1                     
	paddw %mm5, %mm4                     
	psraw $2, %mm1                        
	psraw $2, %mm4                        
	packuswb %mm4, %mm1                  
	movq %mm1, (%rdx, %rsi, 2)                     	# D.13355
	movq %mm0, (%rcx)                       	# tmp
	
# 0 "" 2
#NO_APP
	ret
	.cfi_endproc
.LFE147:
	.size	deInterlaceFF_3DNow, .-deInterlaceFF_3DNow
	.type	deInterlaceL5_3DNow, @function
deInterlaceL5_3DNow:
.LFB148:
	.cfi_startproc
	movq	%rdx, %r8	# tmp, tmp
	leal	0(,%rsi,4), %eax	#, D.13357
	cltq
	addq	%rax, %rdi	# D.13358, src
	movslq	%esi, %rsi	# stride, D.13359
#APP
# 1674 "postprocess_template.c" 1
	lea (%rdi, %rsi), %rax                	# src, D.13359
	lea (%rax, %rsi, 4), %rdx      	# D.13359
	pxor %mm7, %mm7                      
	movq (%r8), %mm0                       	# tmp
	movq (%rcx), %mm1                       	# tmp2
	movq (%rdi), %mm2                     	# src
	movq (%rax), %mm3                     
	movq (%rax, %rsi), %mm4                     	# D.13359
	pavgusb %mm1, %mm3 
	pavgusb %mm0, %mm4 
	movq %mm2, %mm5                      
	movq %mm2, %mm0                    
	punpcklbw %mm7, %mm2                 
	punpckhbw %mm7, %mm5                 
	movq %mm2, %mm6                      
	paddw %mm2, %mm2                     
	paddw %mm6, %mm2                     
	movq %mm5, %mm6                      
	paddw %mm5, %mm5                     
	paddw %mm6, %mm5                     
	movq %mm3, %mm6                      
	punpcklbw %mm7, %mm3                 
	punpckhbw %mm7, %mm6                 
	paddw %mm3, %mm3                     
	paddw %mm6, %mm6                     
	paddw %mm3, %mm2                     
	paddw %mm6, %mm5                     
	movq %mm4, %mm6                      
	punpcklbw %mm7, %mm4                 
	punpckhbw %mm7, %mm6                 
	psubw %mm4, %mm2                     
	psubw %mm6, %mm5                     
	psraw $2, %mm2                        
	psraw $2, %mm5                        
	packuswb %mm5, %mm2                  
	movq %mm2, (%rdi)                     	# src
	movq (%rax), %mm2                     
	movq (%rax, %rsi), %mm3                     	# D.13359
	movq (%rax, %rsi, 2), %mm4                     	# D.13359
	pavgusb %mm0, %mm3 
	pavgusb %mm1, %mm4 
	movq %mm2, %mm5                      
	movq %mm2, %mm1                    
	punpcklbw %mm7, %mm2                 
	punpckhbw %mm7, %mm5                 
	movq %mm2, %mm6                      
	paddw %mm2, %mm2                     
	paddw %mm6, %mm2                     
	movq %mm5, %mm6                      
	paddw %mm5, %mm5                     
	paddw %mm6, %mm5                     
	movq %mm3, %mm6                      
	punpcklbw %mm7, %mm3                 
	punpckhbw %mm7, %mm6                 
	paddw %mm3, %mm3                     
	paddw %mm6, %mm6                     
	paddw %mm3, %mm2                     
	paddw %mm6, %mm5                     
	movq %mm4, %mm6                      
	punpcklbw %mm7, %mm4                 
	punpckhbw %mm7, %mm6                 
	psubw %mm4, %mm2                     
	psubw %mm6, %mm5                     
	psraw $2, %mm2                        
	psraw $2, %mm5                        
	packuswb %mm5, %mm2                  
	movq %mm2, (%rax)                     
	movq (%rax, %rsi), %mm2                     	# D.13359
	movq (%rax, %rsi, 2), %mm3                     	# D.13359
	movq (%rdi, %rsi, 4), %mm4                     	# src, D.13359
	pavgusb %mm1, %mm3 
	pavgusb %mm0, %mm4 
	movq %mm2, %mm5                      
	movq %mm2, %mm0                    
	punpcklbw %mm7, %mm2                 
	punpckhbw %mm7, %mm5                 
	movq %mm2, %mm6                      
	paddw %mm2, %mm2                     
	paddw %mm6, %mm2                     
	movq %mm5, %mm6                      
	paddw %mm5, %mm5                     
	paddw %mm6, %mm5                     
	movq %mm3, %mm6                      
	punpcklbw %mm7, %mm3                 
	punpckhbw %mm7, %mm6                 
	paddw %mm3, %mm3                     
	paddw %mm6, %mm6                     
	paddw %mm3, %mm2                     
	paddw %mm6, %mm5                     
	movq %mm4, %mm6                      
	punpcklbw %mm7, %mm4                 
	punpckhbw %mm7, %mm6                 
	psubw %mm4, %mm2                     
	psubw %mm6, %mm5                     
	psraw $2, %mm2                        
	psraw $2, %mm5                        
	packuswb %mm5, %mm2                  
	movq %mm2, (%rax, %rsi)                     	# D.13359
	movq (%rax, %rsi, 2), %mm2                     	# D.13359
	movq (%rdi, %rsi, 4), %mm3                     	# src, D.13359
	movq (%rdx), %mm4                     
	pavgusb %mm0, %mm3 
	pavgusb %mm1, %mm4 
	movq %mm2, %mm5                      
	movq %mm2, %mm1                    
	punpcklbw %mm7, %mm2                 
	punpckhbw %mm7, %mm5                 
	movq %mm2, %mm6                      
	paddw %mm2, %mm2                     
	paddw %mm6, %mm2                     
	movq %mm5, %mm6                      
	paddw %mm5, %mm5                     
	paddw %mm6, %mm5                     
	movq %mm3, %mm6                      
	punpcklbw %mm7, %mm3                 
	punpckhbw %mm7, %mm6                 
	paddw %mm3, %mm3                     
	paddw %mm6, %mm6                     
	paddw %mm3, %mm2                     
	paddw %mm6, %mm5                     
	movq %mm4, %mm6                      
	punpcklbw %mm7, %mm4                 
	punpckhbw %mm7, %mm6                 
	psubw %mm4, %mm2                     
	psubw %mm6, %mm5                     
	psraw $2, %mm2                        
	psraw $2, %mm5                        
	packuswb %mm5, %mm2                  
	movq %mm2, (%rax, %rsi, 2)                     	# D.13359
	movq (%rdi, %rsi, 4), %mm2                     	# src, D.13359
	movq (%rdx), %mm3                     
	movq (%rdx, %rsi), %mm4                     	# D.13359
	pavgusb %mm1, %mm3 
	pavgusb %mm0, %mm4 
	movq %mm2, %mm5                      
	movq %mm2, %mm0                    
	punpcklbw %mm7, %mm2                 
	punpckhbw %mm7, %mm5                 
	movq %mm2, %mm6                      
	paddw %mm2, %mm2                     
	paddw %mm6, %mm2                     
	movq %mm5, %mm6                      
	paddw %mm5, %mm5                     
	paddw %mm6, %mm5                     
	movq %mm3, %mm6                      
	punpcklbw %mm7, %mm3                 
	punpckhbw %mm7, %mm6                 
	paddw %mm3, %mm3                     
	paddw %mm6, %mm6                     
	paddw %mm3, %mm2                     
	paddw %mm6, %mm5                     
	movq %mm4, %mm6                      
	punpcklbw %mm7, %mm4                 
	punpckhbw %mm7, %mm6                 
	psubw %mm4, %mm2                     
	psubw %mm6, %mm5                     
	psraw $2, %mm2                        
	psraw $2, %mm5                        
	packuswb %mm5, %mm2                  
	movq %mm2, (%rdi, %rsi, 4)                     	# src, D.13359
	movq (%rdx), %mm2                     
	movq (%rdx, %rsi), %mm3                     	# D.13359
	movq (%rdx, %rsi, 2), %mm4                     	# D.13359
	pavgusb %mm0, %mm3 
	pavgusb %mm1, %mm4 
	movq %mm2, %mm5                      
	movq %mm2, %mm1                    
	punpcklbw %mm7, %mm2                 
	punpckhbw %mm7, %mm5                 
	movq %mm2, %mm6                      
	paddw %mm2, %mm2                     
	paddw %mm6, %mm2                     
	movq %mm5, %mm6                      
	paddw %mm5, %mm5                     
	paddw %mm6, %mm5                     
	movq %mm3, %mm6                      
	punpcklbw %mm7, %mm3                 
	punpckhbw %mm7, %mm6                 
	paddw %mm3, %mm3                     
	paddw %mm6, %mm6                     
	paddw %mm3, %mm2                     
	paddw %mm6, %mm5                     
	movq %mm4, %mm6                      
	punpcklbw %mm7, %mm4                 
	punpckhbw %mm7, %mm6                 
	psubw %mm4, %mm2                     
	psubw %mm6, %mm5                     
	psraw $2, %mm2                        
	psraw $2, %mm5                        
	packuswb %mm5, %mm2                  
	movq %mm2, (%rdx)                     
	movq (%rdx, %rsi), %mm2                     	# D.13359
	movq (%rdx, %rsi, 2), %mm3                     	# D.13359
	movq (%rdi, %rsi, 8), %mm4                     	# src, D.13359
	pavgusb %mm1, %mm3 
	pavgusb %mm0, %mm4 
	movq %mm2, %mm5                      
	movq %mm2, %mm0                    
	punpcklbw %mm7, %mm2                 
	punpckhbw %mm7, %mm5                 
	movq %mm2, %mm6                      
	paddw %mm2, %mm2                     
	paddw %mm6, %mm2                     
	movq %mm5, %mm6                      
	paddw %mm5, %mm5                     
	paddw %mm6, %mm5                     
	movq %mm3, %mm6                      
	punpcklbw %mm7, %mm3                 
	punpckhbw %mm7, %mm6                 
	paddw %mm3, %mm3                     
	paddw %mm6, %mm6                     
	paddw %mm3, %mm2                     
	paddw %mm6, %mm5                     
	movq %mm4, %mm6                      
	punpcklbw %mm7, %mm4                 
	punpckhbw %mm7, %mm6                 
	psubw %mm4, %mm2                     
	psubw %mm6, %mm5                     
	psraw $2, %mm2                        
	psraw $2, %mm5                        
	packuswb %mm5, %mm2                  
	movq %mm2, (%rdx, %rsi)                     	# D.13359
	movq (%rdx, %rsi, 2), %mm2                     	# D.13359
	movq (%rdi, %rsi, 8), %mm3                     	# src, D.13359
	movq (%rdx, %rsi, 4), %mm4                     	# D.13359
	pavgusb %mm0, %mm3 
	pavgusb %mm1, %mm4 
	movq %mm2, %mm5                      
	movq %mm2, %mm1                    
	punpcklbw %mm7, %mm2                 
	punpckhbw %mm7, %mm5                 
	movq %mm2, %mm6                      
	paddw %mm2, %mm2                     
	paddw %mm6, %mm2                     
	movq %mm5, %mm6                      
	paddw %mm5, %mm5                     
	paddw %mm6, %mm5                     
	movq %mm3, %mm6                      
	punpcklbw %mm7, %mm3                 
	punpckhbw %mm7, %mm6                 
	paddw %mm3, %mm3                     
	paddw %mm6, %mm6                     
	paddw %mm3, %mm2                     
	paddw %mm6, %mm5                     
	movq %mm4, %mm6                      
	punpcklbw %mm7, %mm4                 
	punpckhbw %mm7, %mm6                 
	psubw %mm4, %mm2                     
	psubw %mm6, %mm5                     
	psraw $2, %mm2                        
	psraw $2, %mm5                        
	packuswb %mm5, %mm2                  
	movq %mm2, (%rdx, %rsi, 2)                     	# D.13359
	movq %mm0, (%r8)                       	# tmp
	movq %mm1, (%rcx)                       	# tmp2
	
# 0 "" 2
#NO_APP
	ret
	.cfi_endproc
.LFE148:
	.size	deInterlaceL5_3DNow, .-deInterlaceL5_3DNow
	.type	deInterlaceMedian_3DNow, @function
deInterlaceMedian_3DNow:
.LFB150:
	.cfi_startproc
	leal	0(,%rsi,4), %eax	#, D.13366
	cltq
	addq	%rax, %rdi	# D.13367, src
	movslq	%esi, %rsi	# stride, D.13368
#APP
# 1926 "postprocess_template.c" 1
	lea (%rdi, %rsi), %rax                	# src, D.13368
	lea (%rax, %rsi, 4), %rdx      	# D.13368
	pxor %mm7, %mm7                      
	movq (%rdi), %mm0                     	# src
	movq (%rax), %mm2                     
	movq (%rax, %rsi), %mm1                     	# D.13368
	movq %mm0, %mm3                      
	movq %mm1, %mm4                      
	movq %mm2, %mm5                      
	psubusb %mm1, %mm3                   
	psubusb %mm2, %mm4                   
	psubusb %mm0, %mm5                   
	pcmpeqb %mm7, %mm3                   
	pcmpeqb %mm7, %mm4                   
	pcmpeqb %mm7, %mm5                   
	movq %mm3, %mm6                      
	pxor %mm4, %mm3                      
	pxor %mm5, %mm4                      
	pxor %mm6, %mm5                      
	por %mm3, %mm1                       
	por %mm4, %mm2                       
	por %mm5, %mm0                       
	pand %mm2, %mm0                      
	pand %mm1, %mm0                      
	movq %mm0, (%rax)                     
	movq (%rax, %rsi), %mm0                     	# D.13368
	movq (%rax, %rsi, 2), %mm2                     	# D.13368
	movq (%rdi, %rsi, 4), %mm1                     	# src, D.13368
	movq %mm0, %mm3                      
	movq %mm1, %mm4                      
	movq %mm2, %mm5                      
	psubusb %mm1, %mm3                   
	psubusb %mm2, %mm4                   
	psubusb %mm0, %mm5                   
	pcmpeqb %mm7, %mm3                   
	pcmpeqb %mm7, %mm4                   
	pcmpeqb %mm7, %mm5                   
	movq %mm3, %mm6                      
	pxor %mm4, %mm3                      
	pxor %mm5, %mm4                      
	pxor %mm6, %mm5                      
	por %mm3, %mm1                       
	por %mm4, %mm2                       
	por %mm5, %mm0                       
	pand %mm2, %mm0                      
	pand %mm1, %mm0                      
	movq %mm0, (%rax, %rsi, 2)                     	# D.13368
	movq (%rdi, %rsi, 4), %mm0                     	# src, D.13368
	movq (%rdx), %mm2                     
	movq (%rdx, %rsi), %mm1                     	# D.13368
	movq %mm0, %mm3                      
	movq %mm1, %mm4                      
	movq %mm2, %mm5                      
	psubusb %mm1, %mm3                   
	psubusb %mm2, %mm4                   
	psubusb %mm0, %mm5                   
	pcmpeqb %mm7, %mm3                   
	pcmpeqb %mm7, %mm4                   
	pcmpeqb %mm7, %mm5                   
	movq %mm3, %mm6                      
	pxor %mm4, %mm3                      
	pxor %mm5, %mm4                      
	pxor %mm6, %mm5                      
	por %mm3, %mm1                       
	por %mm4, %mm2                       
	por %mm5, %mm0                       
	pand %mm2, %mm0                      
	pand %mm1, %mm0                      
	movq %mm0, (%rdx)                     
	movq (%rdx, %rsi), %mm0                     	# D.13368
	movq (%rdx, %rsi, 2), %mm2                     	# D.13368
	movq (%rdi, %rsi, 8), %mm1                     	# src, D.13368
	movq %mm0, %mm3                      
	movq %mm1, %mm4                      
	movq %mm2, %mm5                      
	psubusb %mm1, %mm3                   
	psubusb %mm2, %mm4                   
	psubusb %mm0, %mm5                   
	pcmpeqb %mm7, %mm3                   
	pcmpeqb %mm7, %mm4                   
	pcmpeqb %mm7, %mm5                   
	movq %mm3, %mm6                      
	pxor %mm4, %mm3                      
	pxor %mm5, %mm4                      
	pxor %mm6, %mm5                      
	por %mm3, %mm1                       
	por %mm4, %mm2                       
	por %mm5, %mm0                       
	pand %mm2, %mm0                      
	pand %mm1, %mm0                      
	movq %mm0, (%rdx, %rsi, 2)                     	# D.13368
	
# 0 "" 2
#NO_APP
	ret
	.cfi_endproc
.LFE150:
	.size	deInterlaceMedian_3DNow, .-deInterlaceMedian_3DNow
	.type	tempNoiseReducer_3DNow, @function
tempNoiseReducer_3DNow:
.LFB153:
	.cfi_startproc
	movq	%rdx, %r9	# tempBlurred, tempBlurred
	movq	%rcx, -8(%rsp)	# tempBlurredPast, tempBlurredPast
	movl	(%r8), %eax	# *maxNoise_3(D), *maxNoise_3(D)
	movl	%eax, 508(%rcx)	# *maxNoise_3(D), MEM[(uint32_t *)_2 + 508B]
	movl	4(%r8), %eax	# MEM[(const int *)maxNoise_3(D) + 4B], MEM[(const int *)maxNoise_3(D) + 4B]
	movl	%eax, 512(%rcx)	# MEM[(const int *)maxNoise_3(D) + 4B], MEM[(uint32_t *)_2 + 512B]
	movl	8(%r8), %eax	# MEM[(const int *)maxNoise_3(D) + 8B], MEM[(const int *)maxNoise_3(D) + 8B]
	movl	%eax, 516(%rcx)	# MEM[(const int *)maxNoise_3(D) + 8B], MEM[(uint32_t *)_2 + 516B]
	movslq	%esi, %rsi	# stride, D.13381
#APP
# 2169 "postprocess_template.c" 1
	lea (%rsi, %rsi, 2), %rax             	# D.13381
	lea (%rsi, %rsi, 4), %rdx             	# D.13381
	lea (%rdx, %rsi, 2), %rcx      	# D.13381
	pcmpeqb %mm7, %mm7                   
	movq b80, %mm6              
	pxor %mm0, %mm0                      
	movq (%rdi), %mm5                     	# src
	movq (%r9), %mm2                     	# tempBlurred
	pxor %mm7, %mm2                      
	pavgusb %mm2, %mm5 
	paddb %mm6, %mm5                     
	movq %mm5, %mm2                      
	psllw $8, %mm5                        
	pmaddwd %mm5, %mm5                   
	pmaddwd %mm2, %mm2                   
	paddd %mm2, %mm5                     
	psrld $14, %mm5                       
	paddd %mm5, %mm0                     
	movq (%rdi, %rsi), %mm5                     	# src, D.13381
	movq (%r9, %rsi), %mm2                     	# tempBlurred, D.13381
	pxor %mm7, %mm2                      
	pavgusb %mm2, %mm5 
	paddb %mm6, %mm5                     
	movq %mm5, %mm2                      
	psllw $8, %mm5                        
	pmaddwd %mm5, %mm5                   
	pmaddwd %mm2, %mm2                   
	paddd %mm2, %mm5                     
	psrld $14, %mm5                       
	paddd %mm5, %mm0                     
	movq (%rdi, %rsi, 2), %mm5                     	# src, D.13381
	movq (%r9, %rsi, 2), %mm2                     	# tempBlurred, D.13381
	pxor %mm7, %mm2                      
	pavgusb %mm2, %mm5 
	paddb %mm6, %mm5                     
	movq %mm5, %mm2                      
	psllw $8, %mm5                        
	pmaddwd %mm5, %mm5                   
	pmaddwd %mm2, %mm2                   
	paddd %mm2, %mm5                     
	psrld $14, %mm5                       
	paddd %mm5, %mm0                     
	movq (%rdi, %rax), %mm5                     	# src
	movq (%r9, %rax), %mm2                     	# tempBlurred
	pxor %mm7, %mm2                      
	pavgusb %mm2, %mm5 
	paddb %mm6, %mm5                     
	movq %mm5, %mm2                      
	psllw $8, %mm5                        
	pmaddwd %mm5, %mm5                   
	pmaddwd %mm2, %mm2                   
	paddd %mm2, %mm5                     
	psrld $14, %mm5                       
	paddd %mm5, %mm0                     
	movq (%rdi, %rsi, 4), %mm5                     	# src, D.13381
	movq (%r9, %rsi, 4), %mm2                     	# tempBlurred, D.13381
	pxor %mm7, %mm2                      
	pavgusb %mm2, %mm5 
	paddb %mm6, %mm5                     
	movq %mm5, %mm2                      
	psllw $8, %mm5                        
	pmaddwd %mm5, %mm5                   
	pmaddwd %mm2, %mm2                   
	paddd %mm2, %mm5                     
	psrld $14, %mm5                       
	paddd %mm5, %mm0                     
	movq (%rdi, %rdx), %mm5                     	# src
	movq (%r9, %rdx), %mm2                     	# tempBlurred
	pxor %mm7, %mm2                      
	pavgusb %mm2, %mm5 
	paddb %mm6, %mm5                     
	movq %mm5, %mm2                      
	psllw $8, %mm5                        
	pmaddwd %mm5, %mm5                   
	pmaddwd %mm2, %mm2                   
	paddd %mm2, %mm5                     
	psrld $14, %mm5                       
	paddd %mm5, %mm0                     
	movq (%rdi, %rax,2), %mm5                     	# src
	movq (%r9, %rax,2), %mm2                     	# tempBlurred
	pxor %mm7, %mm2                      
	pavgusb %mm2, %mm5 
	paddb %mm6, %mm5                     
	movq %mm5, %mm2                      
	psllw $8, %mm5                        
	pmaddwd %mm5, %mm5                   
	pmaddwd %mm2, %mm2                   
	paddd %mm2, %mm5                     
	psrld $14, %mm5                       
	paddd %mm5, %mm0                     
	movq (%rdi, %rcx), %mm5                     	# src
	movq (%r9, %rcx), %mm2                     	# tempBlurred
	pxor %mm7, %mm2                      
	pavgusb %mm2, %mm5 
	paddb %mm6, %mm5                     
	movq %mm5, %mm2                      
	psllw $8, %mm5                        
	pmaddwd %mm5, %mm5                   
	pmaddwd %mm2, %mm2                   
	paddd %mm2, %mm5                     
	psrld $14, %mm5                       
	paddd %mm5, %mm0                     
	movq %mm0, %mm4                      
	psrlq $32, %mm0                       
	paddd %mm0, %mm4                     
	movd %mm4, %ecx                      
	shll $2, %ecx                         
	mov -8(%rsp), %rdx                      	# tempBlurredPast
	addl -4(%rdx), %ecx              
	addl 4(%rdx), %ecx               
	addl -1024(%rdx), %ecx           
	addl $4, %ecx                         
	addl 1024(%rdx), %ecx            
	shrl $3, %ecx                         
	movl %ecx, (%rdx)                
	cmpl 512(%rdx), %ecx             
	 jb 2f                                 
	cmpl 516(%rdx), %ecx             
	 jb 1f                                 
	lea (%rax, %rsi, 2), %rdx      	# D.13381
	lea (%rdx, %rsi, 2), %rcx      	# D.13381
	movq (%rdi), %mm0                       	# src
	movq (%rdi, %rsi), %mm1                   	# src, D.13381
	movq (%rdi, %rsi, 2), %mm2                	# src, D.13381
	movq (%rdi, %rax), %mm3            	# src
	movq (%rdi, %rsi, 4), %mm4                	# src, D.13381
	movq (%rdi, %rdx), %mm5            	# src
	movq (%rdi, %rax, 2), %mm6         	# src
	movq (%rdi, %rcx), %mm7            	# src
	movq %mm0, (%r9)                       	# tempBlurred
	movq %mm1, (%r9, %rsi)                   	# tempBlurred, D.13381
	movq %mm2, (%r9, %rsi, 2)                	# tempBlurred, D.13381
	movq %mm3, (%r9, %rax)            	# tempBlurred
	movq %mm4, (%r9, %rsi, 4)                	# tempBlurred, D.13381
	movq %mm5, (%r9, %rdx)            	# tempBlurred
	movq %mm6, (%r9, %rax, 2)         	# tempBlurred
	movq %mm7, (%r9, %rcx)            	# tempBlurred
	jmp 4f                                 
	1:                                     
	lea (%rax, %rsi, 2), %rdx      	# D.13381
	lea (%rdx, %rsi, 2), %rcx      	# D.13381
	movq (%rdi), %mm0                       	# src
	pavgusb (%r9), %mm0 	# tempBlurred
	movq (%rdi, %rsi), %mm1                   	# src, D.13381
	pavgusb (%r9, %rsi), %mm1 	# tempBlurred, D.13381
	movq (%rdi, %rsi, 2), %mm2                	# src, D.13381
	pavgusb (%r9, %rsi, 2), %mm2 	# tempBlurred, D.13381
	movq (%rdi, %rax), %mm3            	# src
	pavgusb (%r9, %rax), %mm3 	# tempBlurred
	movq (%rdi, %rsi, 4), %mm4                	# src, D.13381
	pavgusb (%r9, %rsi, 4), %mm4 	# tempBlurred, D.13381
	movq (%rdi, %rdx), %mm5            	# src
	pavgusb (%r9, %rdx), %mm5 	# tempBlurred
	movq (%rdi, %rax, 2), %mm6         	# src
	pavgusb (%r9, %rax, 2), %mm6 	# tempBlurred
	movq (%rdi, %rcx), %mm7            	# src
	pavgusb (%r9, %rcx), %mm7 	# tempBlurred
	movq %mm0, (%r9)                       	# tempBlurred
	movq %mm1, (%r9, %rsi)                   	# tempBlurred, D.13381
	movq %mm2, (%r9, %rsi, 2)                	# tempBlurred, D.13381
	movq %mm3, (%r9, %rax)            	# tempBlurred
	movq %mm4, (%r9, %rsi, 4)                	# tempBlurred, D.13381
	movq %mm5, (%r9, %rdx)            	# tempBlurred
	movq %mm6, (%r9, %rax, 2)         	# tempBlurred
	movq %mm7, (%r9, %rcx)            	# tempBlurred
	movq %mm0, (%rdi)                       	# src
	movq %mm1, (%rdi, %rsi)                   	# src, D.13381
	movq %mm2, (%rdi, %rsi, 2)                	# src, D.13381
	movq %mm3, (%rdi, %rax)            	# src
	movq %mm4, (%rdi, %rsi, 4)                	# src, D.13381
	movq %mm5, (%rdi, %rdx)            	# src
	movq %mm6, (%rdi, %rax, 2)         	# src
	movq %mm7, (%rdi, %rcx)            	# src
	jmp 4f                                 
	2:                                     
	cmpl 508(%rdx), %ecx             
	 jb 3f                                 
	lea (%rax, %rsi, 2), %rdx      	# D.13381
	lea (%rdx, %rsi, 2), %rcx      	# D.13381
	movq (%rdi), %mm0                       	# src
	movq (%rdi, %rsi), %mm1                   	# src, D.13381
	movq (%rdi, %rsi, 2), %mm2                	# src, D.13381
	movq (%rdi, %rax), %mm3            	# src
	movq (%r9), %mm4                       	# tempBlurred
	movq (%r9, %rsi), %mm5                   	# tempBlurred, D.13381
	movq (%r9, %rsi, 2), %mm6                	# tempBlurred, D.13381
	movq (%r9, %rax), %mm7            	# tempBlurred
	pavgusb %mm4, %mm0 
	pavgusb %mm5, %mm1 
	pavgusb %mm6, %mm2 
	pavgusb %mm7, %mm3 
	pavgusb %mm4, %mm0 
	pavgusb %mm5, %mm1 
	pavgusb %mm6, %mm2 
	pavgusb %mm7, %mm3 
	movq %mm0, (%r9)                       	# tempBlurred
	movq %mm1, (%r9, %rsi)                   	# tempBlurred, D.13381
	movq %mm2, (%r9, %rsi, 2)                	# tempBlurred, D.13381
	movq %mm3, (%r9, %rax)            	# tempBlurred
	movq %mm0, (%rdi)                       	# src
	movq %mm1, (%rdi, %rsi)                   	# src, D.13381
	movq %mm2, (%rdi, %rsi, 2)                	# src, D.13381
	movq %mm3, (%rdi, %rax)            	# src
	movq (%rdi, %rsi, 4), %mm0                	# src, D.13381
	movq (%rdi, %rdx), %mm1            	# src
	movq (%rdi, %rax, 2), %mm2         	# src
	movq (%rdi, %rcx), %mm3            	# src
	movq (%r9, %rsi, 4), %mm4                	# tempBlurred, D.13381
	movq (%r9, %rdx), %mm5            	# tempBlurred
	movq (%r9, %rax, 2), %mm6         	# tempBlurred
	movq (%r9, %rcx), %mm7            	# tempBlurred
	pavgusb %mm4, %mm0 
	pavgusb %mm5, %mm1 
	pavgusb %mm6, %mm2 
	pavgusb %mm7, %mm3 
	pavgusb %mm4, %mm0 
	pavgusb %mm5, %mm1 
	pavgusb %mm6, %mm2 
	pavgusb %mm7, %mm3 
	movq %mm0, (%r9, %rsi, 4)                	# tempBlurred, D.13381
	movq %mm1, (%r9, %rdx)            	# tempBlurred
	movq %mm2, (%r9, %rax, 2)         	# tempBlurred
	movq %mm3, (%r9, %rcx)            	# tempBlurred
	movq %mm0, (%rdi, %rsi, 4)                	# src, D.13381
	movq %mm1, (%rdi, %rdx)            	# src
	movq %mm2, (%rdi, %rax, 2)         	# src
	movq %mm3, (%rdi, %rcx)            	# src
	jmp 4f                                 
	3:                                     
	lea (%rax, %rsi, 2), %rdx      	# D.13381
	lea (%rdx, %rsi, 2), %rcx      	# D.13381
	movq (%rdi), %mm0                       	# src
	movq (%rdi, %rsi), %mm1                   	# src, D.13381
	movq (%rdi, %rsi, 2), %mm2                	# src, D.13381
	movq (%rdi, %rax), %mm3            	# src
	movq (%r9), %mm4                       	# tempBlurred
	movq (%r9, %rsi), %mm5                   	# tempBlurred, D.13381
	movq (%r9, %rsi, 2), %mm6                	# tempBlurred, D.13381
	movq (%r9, %rax), %mm7            	# tempBlurred
	pavgusb %mm4, %mm0 
	pavgusb %mm5, %mm1 
	pavgusb %mm6, %mm2 
	pavgusb %mm7, %mm3 
	pavgusb %mm4, %mm0 
	pavgusb %mm5, %mm1 
	pavgusb %mm6, %mm2 
	pavgusb %mm7, %mm3 
	pavgusb %mm4, %mm0 
	pavgusb %mm5, %mm1 
	pavgusb %mm6, %mm2 
	pavgusb %mm7, %mm3 
	movq %mm0, (%r9)                       	# tempBlurred
	movq %mm1, (%r9, %rsi)                   	# tempBlurred, D.13381
	movq %mm2, (%r9, %rsi, 2)                	# tempBlurred, D.13381
	movq %mm3, (%r9, %rax)            	# tempBlurred
	movq %mm0, (%rdi)                       	# src
	movq %mm1, (%rdi, %rsi)                   	# src, D.13381
	movq %mm2, (%rdi, %rsi, 2)                	# src, D.13381
	movq %mm3, (%rdi, %rax)            	# src
	movq (%rdi, %rsi, 4), %mm0                	# src, D.13381
	movq (%rdi, %rdx), %mm1            	# src
	movq (%rdi, %rax, 2), %mm2         	# src
	movq (%rdi, %rcx), %mm3            	# src
	movq (%r9, %rsi, 4), %mm4                	# tempBlurred, D.13381
	movq (%r9, %rdx), %mm5            	# tempBlurred
	movq (%r9, %rax, 2), %mm6         	# tempBlurred
	movq (%r9, %rcx), %mm7            	# tempBlurred
	pavgusb %mm4, %mm0 
	pavgusb %mm5, %mm1 
	pavgusb %mm6, %mm2 
	pavgusb %mm7, %mm3 
	pavgusb %mm4, %mm0 
	pavgusb %mm5, %mm1 
	pavgusb %mm6, %mm2 
	pavgusb %mm7, %mm3 
	pavgusb %mm4, %mm0 
	pavgusb %mm5, %mm1 
	pavgusb %mm6, %mm2 
	pavgusb %mm7, %mm3 
	movq %mm0, (%r9, %rsi, 4)                	# tempBlurred, D.13381
	movq %mm1, (%r9, %rdx)            	# tempBlurred
	movq %mm2, (%r9, %rax, 2)         	# tempBlurred
	movq %mm3, (%r9, %rcx)            	# tempBlurred
	movq %mm0, (%rdi, %rsi, 4)                	# src, D.13381
	movq %mm1, (%rdi, %rdx)            	# src
	movq %mm2, (%rdi, %rax, 2)         	# src
	movq %mm3, (%rdi, %rcx)            	# src
	4:                                     
	
# 0 "" 2
#NO_APP
	ret
	.cfi_endproc
.LFE153:
	.size	tempNoiseReducer_3DNow, .-tempNoiseReducer_3DNow
	.type	doVertLowPass_SSE2, @function
doVertLowPass_SSE2:
.LFB159:
	.cfi_startproc
	leal	(%rsi,%rsi,2), %eax	#, D.13389
	cltq
	addq	%rax, %rdi	# D.13390, src
	movslq	%esi, %rsi	# stride, D.13391
#APP
# 232 "postprocess_template.c" 1
	movq 112(%rdx), %mm0                         	# c_8(D)->pQPb
	pxor %mm4, %mm4                      
	movq (%rdi), %mm6                       	# src
	movq (%rdi, %rsi), %mm5                   	# src, D.13391
	movq %mm5, %mm1                      
	movq %mm6, %mm2                      
	psubusb %mm6, %mm5                   
	psubusb %mm1, %mm2                   
	por %mm5, %mm2                       
	psubusb %mm0, %mm2                   
	pcmpeqb %mm4, %mm2                   
	pand %mm2, %mm6                      
	pandn %mm1, %mm2                     
	por %mm2, %mm6                       
	movq (%rdi, %rsi, 8), %mm5                	# src, D.13391
	lea (%rdi, %rsi, 4), %rax             	# src, D.13391
	lea (%rdi, %rsi, 8), %rcx             	# src, D.13391
	sub %rsi, %rcx                      	# D.13391
	add %rsi, %rdi                             	# D.13391, src
	movq (%rdi, %rsi, 8), %mm7                	# src, D.13391
	movq %mm5, %mm1                      
	movq %mm7, %mm2                      
	psubusb %mm7, %mm5                   
	psubusb %mm1, %mm2                   
	por %mm5, %mm2                       
	psubusb %mm0, %mm2                   
	pcmpeqb %mm4, %mm2                   
	pand %mm2, %mm7                      
	pandn %mm1, %mm2                     
	por %mm2, %mm7                       
	movq (%rdi, %rsi), %mm0                   	# src, D.13391
	movq %mm0, %mm1                      
	pavgb %mm6, %mm0 
	pavgb %mm6, %mm0 
	movq (%rdi, %rsi, 4), %mm2                	# src, D.13391
	movq %mm2, %mm5                      
	pavgb (%rax), %mm2 
	pavgb (%rdi, %rsi, 2), %mm2 	# src, D.13391
	movq %mm2, %mm3                      
	movq (%rdi), %mm4                       	# src
	pavgb %mm4, %mm3 
	pavgb %mm0, %mm3 
	movq %mm3, (%rdi)                       	# src
	movq %mm1, %mm0                      
	pavgb %mm6, %mm0 
	movq %mm4, %mm3                      
	pavgb (%rdi,%rsi,2), %mm3 	# src, D.13391
	pavgb (%rax,%rsi,2), %mm5 	# D.13391
	pavgb (%rax), %mm5 
	pavgb %mm5, %mm3 
	pavgb %mm0, %mm3 
	movq %mm3, (%rdi,%rsi)                    	# src, D.13391
	pavgb %mm4, %mm6 
	movq (%rcx), %mm0                
	pavgb (%rax, %rsi, 2), %mm0 	# D.13391
	movq %mm0, %mm3                      
	pavgb %mm1, %mm0 
	pavgb %mm6, %mm0 
	pavgb %mm2, %mm0 
	movq (%rdi, %rsi, 2), %mm2                	# src, D.13391
	movq %mm0, (%rdi, %rsi, 2)                	# src, D.13391
	movq (%rax, %rsi, 4), %mm0         	# D.13391
	pavgb (%rcx), %mm0 
	pavgb %mm0, %mm6 
	pavgb %mm1, %mm4 
	pavgb %mm2, %mm1 
	pavgb %mm1, %mm6 
	pavgb %mm5, %mm6 
	movq (%rax), %mm5                
	movq %mm6, (%rax)                
	movq (%rax, %rsi, 4), %mm6         	# D.13391
	pavgb %mm7, %mm6 
	pavgb %mm4, %mm6 
	pavgb %mm3, %mm6 
	pavgb %mm5, %mm2 
	movq (%rdi, %rsi, 4), %mm4                	# src, D.13391
	pavgb %mm4, %mm2 
	pavgb %mm2, %mm6 
	movq %mm6, (%rdi, %rsi, 4)                	# src, D.13391
	pavgb %mm7, %mm1 
	pavgb %mm4, %mm5 
	pavgb %mm5, %mm0 
	movq (%rax, %rsi, 2), %mm6         	# D.13391
	pavgb %mm6, %mm1 
	pavgb %mm0, %mm1 
	movq %mm1, (%rax, %rsi, 2)         	# D.13391
	pavgb (%rcx), %mm2 
	movq (%rax, %rsi, 4), %mm0         	# D.13391
	pavgb %mm0, %mm6 
	pavgb %mm7, %mm6 
	pavgb %mm2, %mm6 
	movq %mm6, (%rcx)                
	pavgb %mm7, %mm5 
	pavgb %mm7, %mm5 
	pavgb %mm3, %mm0 
	pavgb %mm0, %mm5 
	movq %mm5, (%rax, %rsi, 4)         	# D.13391
	sub %rsi, %rdi                             	# D.13391, src
	
# 0 "" 2
#NO_APP
	ret
	.cfi_endproc
.LFE159:
	.size	doVertLowPass_SSE2, .-doVertLowPass_SSE2
	.type	dering_SSE2, @function
dering_SSE2:
.LFB162:
	.cfi_startproc
	movq	%rdx, %rcx	# c, c
	movslq	%esi, %rsi	# stride, D.13393
	leaq	-32(%rsp), %r8	#, tmp88
#APP
# 1097 "postprocess_template.c" 1
	pxor %mm6, %mm6                      
	pcmpeqb %mm7, %mm7                   
	movq 112(%rcx), %mm0                         	# c_5(D)->pQPb
	punpcklbw %mm6, %mm0                 
	psrlw $1, %mm0                        
	psubw %mm7, %mm0                     
	packuswb %mm0, %mm0                  
	movq %mm0, 120(%rcx)                         	# c_5(D)->pQPb2
	lea (%rdi, %rsi), %rax                	# src, D.13393
	lea (%rax, %rsi, 4), %rdx      	# D.13393
	movq (%rax), %mm0                  
	pminub %mm0, %mm7                    
	pmaxub %mm0, %mm6                    
	movq (%rax, %rsi), %mm0                  	# D.13393
	pminub %mm0, %mm7                    
	pmaxub %mm0, %mm6                    
	movq (%rax, %rsi, 2), %mm0                  	# D.13393
	pminub %mm0, %mm7                    
	pmaxub %mm0, %mm6                    
	movq (%rdi, %rsi, 4), %mm0                  	# src, D.13393
	pminub %mm0, %mm7                    
	pmaxub %mm0, %mm6                    
	movq (%rdx), %mm0                  
	pminub %mm0, %mm7                    
	pmaxub %mm0, %mm6                    
	movq (%rdx, %rsi), %mm0                  	# D.13393
	pminub %mm0, %mm7                    
	pmaxub %mm0, %mm6                    
	movq (%rdx, %rsi, 2), %mm0                  	# D.13393
	pminub %mm0, %mm7                    
	pmaxub %mm0, %mm6                    
	movq (%rdi, %rsi, 8), %mm0                  	# src, D.13393
	pminub %mm0, %mm7                    
	pmaxub %mm0, %mm6                    
	movq %mm7, %mm4                      
	psrlq $8, %mm7                        
	pminub %mm4, %mm7                    
	pshufw $0xF9, %mm7, %mm4             
	pminub %mm4, %mm7                    
	pshufw $0xFE, %mm7, %mm4             
	pminub %mm4, %mm7                    
	movq %mm6, %mm4                      
	psrlq $8, %mm6                        
	pmaxub %mm4, %mm6                    
	pshufw $0xF9, %mm6, %mm4             
	pmaxub %mm4, %mm6                    
	pshufw $0xFE, %mm6, %mm4             
	pmaxub %mm4, %mm6                    
	movq %mm6, %mm0                      
	psubb %mm7, %mm6                     
	push %r8                              	# tmp88
	movd %mm6, %r8d                        	# tmp88
	cmpb deringThreshold, %r8b    	# tmp88
	pop %r8                               	# tmp88
	 jb .skip                                 
	pavgb %mm0, %mm7 
	punpcklbw %mm7, %mm7                 
	punpcklbw %mm7, %mm7                 
	punpcklbw %mm7, %mm7                 
	movq %mm7, (%r8)                       	# tmp88
	movq (%rdi), %mm0                       	# src
	movq %mm0, %mm1                      
	movq %mm0, %mm2                      
	psllq $8, %mm1                        
	psrlq $8, %mm2                        
.skip:
	movd -4(%rdi), %mm3                     	# src
	movd 8(%rdi), %mm4                      	# src
	psrlq $24, %mm3                       
	psllq $56, %mm4                       
	por %mm3, %mm1                       
	por %mm4, %mm2                       
	movq %mm1, %mm3                      
	pavgb %mm2, %mm1 
	pavgb %mm0, %mm1 
	psubusb %mm7, %mm0                   
	psubusb %mm7, %mm2                   
	psubusb %mm7, %mm3                   
	pcmpeqb b00, %mm0           
	pcmpeqb b00, %mm2           
	pcmpeqb b00, %mm3           
	paddb %mm2, %mm0                     
	paddb %mm3, %mm0                     
	movq (%rax), %mm2                
	movq %mm2, %mm3                      
	movq %mm2, %mm4                      
	psllq $8, %mm3                        
	psrlq $8, %mm4                        
	movd -4(%rax), %mm5              
	movd 8(%rax), %mm6               
	psrlq $24, %mm5                       
	psllq $56, %mm6                       
	por %mm5, %mm3                       
	por %mm6, %mm4                       
	movq %mm3, %mm5                      
	pavgb %mm4, %mm3 
	pavgb %mm2, %mm3 
	psubusb %mm7, %mm2                   
	psubusb %mm7, %mm4                   
	psubusb %mm7, %mm5                   
	pcmpeqb b00, %mm2           
	pcmpeqb b00, %mm4           
	pcmpeqb b00, %mm5           
	paddb %mm4, %mm2                     
	paddb %mm5, %mm2                     
	movq (%rax, %rsi), %mm4                 	# D.13393
	movq %mm4, %mm5                  
	movq %mm4, %mm6                  
	psllq $8, %mm5                      
	psrlq $8, %mm6                      
	movd -4(%rax, %rsi), %mm7               	# D.13393
	psrlq $24, %mm7                     
	por %mm7, %mm5                   
	movd 8(%rax, %rsi), %mm7                	# D.13393
	psllq $56, %mm7                     
	por %mm7, %mm6                   
	movq %mm5, %mm7                  
	pavgb %mm6, %mm5 
	pavgb %mm4, %mm5 
	pavgb %mm5, %mm1 
	movq %mm5, 8(%r8)                    	# tmp88
	movq (%r8), %mm5                     	# tmp88
	psubusb %mm5, %mm7               
	psubusb %mm5, %mm6               
	psubusb %mm5, %mm4               
	movq b00, %mm5            
	pcmpeqb %mm5, %mm7               
	pcmpeqb %mm5, %mm6               
	pcmpeqb %mm5, %mm4               
	paddb %mm7, %mm6                 
	paddb %mm6, %mm4                 
	pavgb %mm3, %mm1 
	movq (%rax), %mm6                 
	movq %mm6, %mm7                  
	psubusb 120(%rcx), %mm6                    	# c_5(D)->pQPb2
	paddusb 120(%rcx), %mm7                    	# c_5(D)->pQPb2
	pmaxub %mm6, %mm1 
	pminub %mm7, %mm1 
	paddb %mm4, %mm0               
	paddb %mm2, %mm0              
	#paddb b02, %mm0        
	pand b08, %mm0          
	pcmpeqb %mm5, %mm0             
	pand %mm0, %mm1              
	pandn (%rax), %mm0              
	por %mm1, %mm0               
	movq %mm0, (%rax)               
	movq 8(%r8), %mm5                    	# tmp88
	movq (%rax, %rsi, 2), %mm0                 	# D.13393
	movq %mm0, %mm1                  
	movq %mm0, %mm6                  
	psllq $8, %mm1                      
	psrlq $8, %mm6                      
	movd -4(%rax, %rsi, 2), %mm7               	# D.13393
	psrlq $24, %mm7                     
	por %mm7, %mm1                   
	movd 8(%rax, %rsi, 2), %mm7                	# D.13393
	psllq $56, %mm7                     
	por %mm7, %mm6                   
	movq %mm1, %mm7                  
	pavgb %mm6, %mm1 
	pavgb %mm0, %mm1 
	pavgb %mm1, %mm3 
	movq %mm1, 8(%r8)                    	# tmp88
	movq (%r8), %mm1                     	# tmp88
	psubusb %mm1, %mm7               
	psubusb %mm1, %mm6               
	psubusb %mm1, %mm0               
	movq b00, %mm1            
	pcmpeqb %mm1, %mm7               
	pcmpeqb %mm1, %mm6               
	pcmpeqb %mm1, %mm0               
	paddb %mm7, %mm6                 
	paddb %mm6, %mm0                 
	pavgb %mm5, %mm3 
	movq (%rax, %rsi), %mm6                 	# D.13393
	movq %mm6, %mm7                  
	psubusb 120(%rcx), %mm6                    	# c_5(D)->pQPb2
	paddusb 120(%rcx), %mm7                    	# c_5(D)->pQPb2
	pmaxub %mm6, %mm3 
	pminub %mm7, %mm3 
	paddb %mm0, %mm2               
	paddb %mm4, %mm2              
	#paddb b02, %mm2        
	pand b08, %mm2          
	pcmpeqb %mm1, %mm2             
	pand %mm2, %mm3              
	pandn (%rax, %rsi), %mm2              	# D.13393
	por %mm3, %mm2               
	movq %mm2, (%rax, %rsi)               	# D.13393
	movq 8(%r8), %mm1                    	# tmp88
	movq (%rdi, %rsi, 4), %mm2                 	# src, D.13393
	movq %mm2, %mm3                  
	movq %mm2, %mm6                  
	psllq $8, %mm3                      
	psrlq $8, %mm6                      
	movd -4(%rdi, %rsi, 4), %mm7               	# src, D.13393
	psrlq $24, %mm7                     
	por %mm7, %mm3                   
	movd 8(%rdi, %rsi, 4), %mm7                	# src, D.13393
	psllq $56, %mm7                     
	por %mm7, %mm6                   
	movq %mm3, %mm7                  
	pavgb %mm6, %mm3 
	pavgb %mm2, %mm3 
	pavgb %mm3, %mm5 
	movq %mm3, 8(%r8)                    	# tmp88
	movq (%r8), %mm3                     	# tmp88
	psubusb %mm3, %mm7               
	psubusb %mm3, %mm6               
	psubusb %mm3, %mm2               
	movq b00, %mm3            
	pcmpeqb %mm3, %mm7               
	pcmpeqb %mm3, %mm6               
	pcmpeqb %mm3, %mm2               
	paddb %mm7, %mm6                 
	paddb %mm6, %mm2                 
	pavgb %mm1, %mm5 
	movq (%rax, %rsi, 2), %mm6                 	# D.13393
	movq %mm6, %mm7                  
	psubusb 120(%rcx), %mm6                    	# c_5(D)->pQPb2
	paddusb 120(%rcx), %mm7                    	# c_5(D)->pQPb2
	pmaxub %mm6, %mm5 
	pminub %mm7, %mm5 
	paddb %mm2, %mm4               
	paddb %mm0, %mm4              
	#paddb b02, %mm4        
	pand b08, %mm4          
	pcmpeqb %mm3, %mm4             
	pand %mm4, %mm5              
	pandn (%rax, %rsi, 2), %mm4              	# D.13393
	por %mm5, %mm4               
	movq %mm4, (%rax, %rsi, 2)               	# D.13393
	movq 8(%r8), %mm3                    	# tmp88
	movq (%rdx), %mm4                 
	movq %mm4, %mm5                  
	movq %mm4, %mm6                  
	psllq $8, %mm5                      
	psrlq $8, %mm6                      
	movd -4(%rdx), %mm7               
	psrlq $24, %mm7                     
	por %mm7, %mm5                   
	movd 8(%rdx), %mm7                
	psllq $56, %mm7                     
	por %mm7, %mm6                   
	movq %mm5, %mm7                  
	pavgb %mm6, %mm5 
	pavgb %mm4, %mm5 
	pavgb %mm5, %mm1 
	movq %mm5, 8(%r8)                    	# tmp88
	movq (%r8), %mm5                     	# tmp88
	psubusb %mm5, %mm7               
	psubusb %mm5, %mm6               
	psubusb %mm5, %mm4               
	movq b00, %mm5            
	pcmpeqb %mm5, %mm7               
	pcmpeqb %mm5, %mm6               
	pcmpeqb %mm5, %mm4               
	paddb %mm7, %mm6                 
	paddb %mm6, %mm4                 
	pavgb %mm3, %mm1 
	movq (%rdi, %rsi, 4), %mm6                 	# src, D.13393
	movq %mm6, %mm7                  
	psubusb 120(%rcx), %mm6                    	# c_5(D)->pQPb2
	paddusb 120(%rcx), %mm7                    	# c_5(D)->pQPb2
	pmaxub %mm6, %mm1 
	pminub %mm7, %mm1 
	paddb %mm4, %mm0               
	paddb %mm2, %mm0              
	#paddb b02, %mm0        
	pand b08, %mm0          
	pcmpeqb %mm5, %mm0             
	pand %mm0, %mm1              
	pandn (%rdi, %rsi, 4), %mm0              	# src, D.13393
	por %mm1, %mm0               
	movq %mm0, (%rdi, %rsi, 4)               	# src, D.13393
	movq 8(%r8), %mm5                    	# tmp88
	movq (%rdx, %rsi), %mm0                 	# D.13393
	movq %mm0, %mm1                  
	movq %mm0, %mm6                  
	psllq $8, %mm1                      
	psrlq $8, %mm6                      
	movd -4(%rdx, %rsi), %mm7               	# D.13393
	psrlq $24, %mm7                     
	por %mm7, %mm1                   
	movd 8(%rdx, %rsi), %mm7                	# D.13393
	psllq $56, %mm7                     
	por %mm7, %mm6                   
	movq %mm1, %mm7                  
	pavgb %mm6, %mm1 
	pavgb %mm0, %mm1 
	pavgb %mm1, %mm3 
	movq %mm1, 8(%r8)                    	# tmp88
	movq (%r8), %mm1                     	# tmp88
	psubusb %mm1, %mm7               
	psubusb %mm1, %mm6               
	psubusb %mm1, %mm0               
	movq b00, %mm1            
	pcmpeqb %mm1, %mm7               
	pcmpeqb %mm1, %mm6               
	pcmpeqb %mm1, %mm0               
	paddb %mm7, %mm6                 
	paddb %mm6, %mm0                 
	pavgb %mm5, %mm3 
	movq (%rdx), %mm6                 
	movq %mm6, %mm7                  
	psubusb 120(%rcx), %mm6                    	# c_5(D)->pQPb2
	paddusb 120(%rcx), %mm7                    	# c_5(D)->pQPb2
	pmaxub %mm6, %mm3 
	pminub %mm7, %mm3 
	paddb %mm0, %mm2               
	paddb %mm4, %mm2              
	#paddb b02, %mm2        
	pand b08, %mm2          
	pcmpeqb %mm1, %mm2             
	pand %mm2, %mm3              
	pandn (%rdx), %mm2              
	por %mm3, %mm2               
	movq %mm2, (%rdx)               
	movq 8(%r8), %mm1                    	# tmp88
	movq (%rdx, %rsi, 2), %mm2                 	# D.13393
	movq %mm2, %mm3                  
	movq %mm2, %mm6                  
	psllq $8, %mm3                      
	psrlq $8, %mm6                      
	movd -4(%rdx, %rsi, 2), %mm7               	# D.13393
	psrlq $24, %mm7                     
	por %mm7, %mm3                   
	movd 8(%rdx, %rsi, 2), %mm7                	# D.13393
	psllq $56, %mm7                     
	por %mm7, %mm6                   
	movq %mm3, %mm7                  
	pavgb %mm6, %mm3 
	pavgb %mm2, %mm3 
	pavgb %mm3, %mm5 
	movq %mm3, 8(%r8)                    	# tmp88
	movq (%r8), %mm3                     	# tmp88
	psubusb %mm3, %mm7               
	psubusb %mm3, %mm6               
	psubusb %mm3, %mm2               
	movq b00, %mm3            
	pcmpeqb %mm3, %mm7               
	pcmpeqb %mm3, %mm6               
	pcmpeqb %mm3, %mm2               
	paddb %mm7, %mm6                 
	paddb %mm6, %mm2                 
	pavgb %mm1, %mm5 
	movq (%rdx, %rsi), %mm6                 	# D.13393
	movq %mm6, %mm7                  
	psubusb 120(%rcx), %mm6                    	# c_5(D)->pQPb2
	paddusb 120(%rcx), %mm7                    	# c_5(D)->pQPb2
	pmaxub %mm6, %mm5 
	pminub %mm7, %mm5 
	paddb %mm2, %mm4               
	paddb %mm0, %mm4              
	#paddb b02, %mm4        
	pand b08, %mm4          
	pcmpeqb %mm3, %mm4             
	pand %mm4, %mm5              
	pandn (%rdx, %rsi), %mm4              	# D.13393
	por %mm5, %mm4               
	movq %mm4, (%rdx, %rsi)               	# D.13393
	movq 8(%r8), %mm3                    	# tmp88
	movq (%rdi, %rsi, 8), %mm4                 	# src, D.13393
	movq %mm4, %mm5                  
	movq %mm4, %mm6                  
	psllq $8, %mm5                      
	psrlq $8, %mm6                      
	movd -4(%rdi, %rsi, 8), %mm7               	# src, D.13393
	psrlq $24, %mm7                     
	por %mm7, %mm5                   
	movd 8(%rdi, %rsi, 8), %mm7                	# src, D.13393
	psllq $56, %mm7                     
	por %mm7, %mm6                   
	movq %mm5, %mm7                  
	pavgb %mm6, %mm5 
	pavgb %mm4, %mm5 
	pavgb %mm5, %mm1 
	movq %mm5, 8(%r8)                    	# tmp88
	movq (%r8), %mm5                     	# tmp88
	psubusb %mm5, %mm7               
	psubusb %mm5, %mm6               
	psubusb %mm5, %mm4               
	movq b00, %mm5            
	pcmpeqb %mm5, %mm7               
	pcmpeqb %mm5, %mm6               
	pcmpeqb %mm5, %mm4               
	paddb %mm7, %mm6                 
	paddb %mm6, %mm4                 
	pavgb %mm3, %mm1 
	movq (%rdx, %rsi, 2), %mm6                 	# D.13393
	movq %mm6, %mm7                  
	psubusb 120(%rcx), %mm6                    	# c_5(D)->pQPb2
	paddusb 120(%rcx), %mm7                    	# c_5(D)->pQPb2
	pmaxub %mm6, %mm1 
	pminub %mm7, %mm1 
	paddb %mm4, %mm0               
	paddb %mm2, %mm0              
	#paddb b02, %mm0        
	pand b08, %mm0          
	pcmpeqb %mm5, %mm0             
	pand %mm0, %mm1              
	pandn (%rdx, %rsi, 2), %mm0              	# D.13393
	por %mm1, %mm0               
	movq %mm0, (%rdx, %rsi, 2)               	# D.13393
	movq 8(%r8), %mm5                    	# tmp88
	movq (%rdx, %rsi, 4), %mm0                 	# D.13393
	movq %mm0, %mm1                  
	movq %mm0, %mm6                  
	psllq $8, %mm1                      
	psrlq $8, %mm6                      
	movd -4(%rdx, %rsi, 4), %mm7               	# D.13393
	psrlq $24, %mm7                     
	por %mm7, %mm1                   
	movd 8(%rdx, %rsi, 4), %mm7                	# D.13393
	psllq $56, %mm7                     
	por %mm7, %mm6                   
	movq %mm1, %mm7                  
	pavgb %mm6, %mm1 
	pavgb %mm0, %mm1 
	pavgb %mm1, %mm3 
	movq %mm1, 8(%r8)                    	# tmp88
	movq (%r8), %mm1                     	# tmp88
	psubusb %mm1, %mm7               
	psubusb %mm1, %mm6               
	psubusb %mm1, %mm0               
	movq b00, %mm1            
	pcmpeqb %mm1, %mm7               
	pcmpeqb %mm1, %mm6               
	pcmpeqb %mm1, %mm0               
	paddb %mm7, %mm6                 
	paddb %mm6, %mm0                 
	pavgb %mm5, %mm3 
	movq (%rdi, %rsi, 8), %mm6                 	# src, D.13393
	movq %mm6, %mm7                  
	psubusb 120(%rcx), %mm6                    	# c_5(D)->pQPb2
	paddusb 120(%rcx), %mm7                    	# c_5(D)->pQPb2
	pmaxub %mm6, %mm3 
	pminub %mm7, %mm3 
	paddb %mm0, %mm2               
	paddb %mm4, %mm2              
	#paddb b02, %mm2        
	pand b08, %mm2          
	pcmpeqb %mm1, %mm2             
	pand %mm2, %mm3              
	pandn (%rdi, %rsi, 8), %mm2              	# src, D.13393
	por %mm3, %mm2               
	movq %mm2, (%rdi, %rsi, 8)               	# src, D.13393
	movq 8(%r8), %mm1                    	# tmp88
	1:                        
	
# 0 "" 2
#NO_APP
	ret
	.cfi_endproc
.LFE162:
	.size	dering_SSE2, .-dering_SSE2
	.type	deInterlaceFF_SSE2, @function
deInterlaceFF_SSE2:
.LFB165:
	.cfi_startproc
	movq	%rdx, %rcx	# tmp, tmp
	leal	0(,%rsi,4), %eax	#, D.13401
	cltq
	addq	%rax, %rdi	# D.13402, src
	movslq	%esi, %rsi	# stride, D.13403
#APP
# 1595 "postprocess_template.c" 1
	lea (%rdi, %rsi), %rax                	# src, D.13403
	lea (%rax, %rsi, 4), %rdx      	# D.13403
	pxor %mm7, %mm7                      
	movq (%rcx), %mm0                       	# tmp
	movq (%rdi), %mm1                     	# src
	movq (%rax), %mm2                     
	movq (%rax, %rsi), %mm3                     	# D.13403
	movq (%rax, %rsi, 2), %mm4                     	# D.13403
	pavgb %mm3, %mm1 
	pavgb %mm4, %mm0 
	movq %mm0, %mm3                      
	punpcklbw %mm7, %mm0                 
	punpckhbw %mm7, %mm3                 
	movq %mm1, %mm4                      
	punpcklbw %mm7, %mm1                 
	punpckhbw %mm7, %mm4                 
	psllw $2, %mm1                        
	psllw $2, %mm4                        
	psubw %mm0, %mm1                     
	psubw %mm3, %mm4                     
	movq %mm2, %mm5                      
	movq %mm2, %mm0                      
	punpcklbw %mm7, %mm2                 
	punpckhbw %mm7, %mm5                 
	paddw %mm2, %mm1                     
	paddw %mm5, %mm4                     
	psraw $2, %mm1                        
	psraw $2, %mm4                        
	packuswb %mm4, %mm1                  
	movq %mm1, (%rax)                     
	movq (%rax, %rsi), %mm1                     	# D.13403
	movq (%rax, %rsi, 2), %mm2                     	# D.13403
	movq (%rdi, %rsi, 4), %mm3                     	# src, D.13403
	movq (%rdx), %mm4                     
	pavgb %mm3, %mm1 
	pavgb %mm4, %mm0 
	movq %mm0, %mm3                      
	punpcklbw %mm7, %mm0                 
	punpckhbw %mm7, %mm3                 
	movq %mm1, %mm4                      
	punpcklbw %mm7, %mm1                 
	punpckhbw %mm7, %mm4                 
	psllw $2, %mm1                        
	psllw $2, %mm4                        
	psubw %mm0, %mm1                     
	psubw %mm3, %mm4                     
	movq %mm2, %mm5                      
	movq %mm2, %mm0                      
	punpcklbw %mm7, %mm2                 
	punpckhbw %mm7, %mm5                 
	paddw %mm2, %mm1                     
	paddw %mm5, %mm4                     
	psraw $2, %mm1                        
	psraw $2, %mm4                        
	packuswb %mm4, %mm1                  
	movq %mm1, (%rax, %rsi, 2)                     	# D.13403
	movq (%rdi, %rsi, 4), %mm1                     	# src, D.13403
	movq (%rdx), %mm2                     
	movq (%rdx, %rsi), %mm3                     	# D.13403
	movq (%rdx, %rsi, 2), %mm4                     	# D.13403
	pavgb %mm3, %mm1 
	pavgb %mm4, %mm0 
	movq %mm0, %mm3                      
	punpcklbw %mm7, %mm0                 
	punpckhbw %mm7, %mm3                 
	movq %mm1, %mm4                      
	punpcklbw %mm7, %mm1                 
	punpckhbw %mm7, %mm4                 
	psllw $2, %mm1                        
	psllw $2, %mm4                        
	psubw %mm0, %mm1                     
	psubw %mm3, %mm4                     
	movq %mm2, %mm5                      
	movq %mm2, %mm0                      
	punpcklbw %mm7, %mm2                 
	punpckhbw %mm7, %mm5                 
	paddw %mm2, %mm1                     
	paddw %mm5, %mm4                     
	psraw $2, %mm1                        
	psraw $2, %mm4                        
	packuswb %mm4, %mm1                  
	movq %mm1, (%rdx)                     
	movq (%rdx, %rsi), %mm1                     	# D.13403
	movq (%rdx, %rsi, 2), %mm2                     	# D.13403
	movq (%rdi, %rsi, 8), %mm3                     	# src, D.13403
	movq (%rdx, %rsi, 4), %mm4                     	# D.13403
	pavgb %mm3, %mm1 
	pavgb %mm4, %mm0 
	movq %mm0, %mm3                      
	punpcklbw %mm7, %mm0                 
	punpckhbw %mm7, %mm3                 
	movq %mm1, %mm4                      
	punpcklbw %mm7, %mm1                 
	punpckhbw %mm7, %mm4                 
	psllw $2, %mm1                        
	psllw $2, %mm4                        
	psubw %mm0, %mm1                     
	psubw %mm3, %mm4                     
	movq %mm2, %mm5                      
	movq %mm2, %mm0                      
	punpcklbw %mm7, %mm2                 
	punpckhbw %mm7, %mm5                 
	paddw %mm2, %mm1                     
	paddw %mm5, %mm4                     
	psraw $2, %mm1                        
	psraw $2, %mm4                        
	packuswb %mm4, %mm1                  
	movq %mm1, (%rdx, %rsi, 2)                     	# D.13403
	movq %mm0, (%rcx)                       	# tmp
	
# 0 "" 2
#NO_APP
	ret
	.cfi_endproc
.LFE165:
	.size	deInterlaceFF_SSE2, .-deInterlaceFF_SSE2
	.type	deInterlaceL5_SSE2, @function
deInterlaceL5_SSE2:
.LFB166:
	.cfi_startproc
	movq	%rdx, %r8	# tmp, tmp
	leal	0(,%rsi,4), %eax	#, D.13405
	cltq
	addq	%rax, %rdi	# D.13406, src
	movslq	%esi, %rsi	# stride, D.13407
#APP
# 1674 "postprocess_template.c" 1
	lea (%rdi, %rsi), %rax                	# src, D.13407
	lea (%rax, %rsi, 4), %rdx      	# D.13407
	pxor %mm7, %mm7                      
	movq (%r8), %mm0                       	# tmp
	movq (%rcx), %mm1                       	# tmp2
	movq (%rdi), %mm2                     	# src
	movq (%rax), %mm3                     
	movq (%rax, %rsi), %mm4                     	# D.13407
	pavgb %mm1, %mm3 
	pavgb %mm0, %mm4 
	movq %mm2, %mm5                      
	movq %mm2, %mm0                    
	punpcklbw %mm7, %mm2                 
	punpckhbw %mm7, %mm5                 
	movq %mm2, %mm6                      
	paddw %mm2, %mm2                     
	paddw %mm6, %mm2                     
	movq %mm5, %mm6                      
	paddw %mm5, %mm5                     
	paddw %mm6, %mm5                     
	movq %mm3, %mm6                      
	punpcklbw %mm7, %mm3                 
	punpckhbw %mm7, %mm6                 
	paddw %mm3, %mm3                     
	paddw %mm6, %mm6                     
	paddw %mm3, %mm2                     
	paddw %mm6, %mm5                     
	movq %mm4, %mm6                      
	punpcklbw %mm7, %mm4                 
	punpckhbw %mm7, %mm6                 
	psubw %mm4, %mm2                     
	psubw %mm6, %mm5                     
	psraw $2, %mm2                        
	psraw $2, %mm5                        
	packuswb %mm5, %mm2                  
	movq %mm2, (%rdi)                     	# src
	movq (%rax), %mm2                     
	movq (%rax, %rsi), %mm3                     	# D.13407
	movq (%rax, %rsi, 2), %mm4                     	# D.13407
	pavgb %mm0, %mm3 
	pavgb %mm1, %mm4 
	movq %mm2, %mm5                      
	movq %mm2, %mm1                    
	punpcklbw %mm7, %mm2                 
	punpckhbw %mm7, %mm5                 
	movq %mm2, %mm6                      
	paddw %mm2, %mm2                     
	paddw %mm6, %mm2                     
	movq %mm5, %mm6                      
	paddw %mm5, %mm5                     
	paddw %mm6, %mm5                     
	movq %mm3, %mm6                      
	punpcklbw %mm7, %mm3                 
	punpckhbw %mm7, %mm6                 
	paddw %mm3, %mm3                     
	paddw %mm6, %mm6                     
	paddw %mm3, %mm2                     
	paddw %mm6, %mm5                     
	movq %mm4, %mm6                      
	punpcklbw %mm7, %mm4                 
	punpckhbw %mm7, %mm6                 
	psubw %mm4, %mm2                     
	psubw %mm6, %mm5                     
	psraw $2, %mm2                        
	psraw $2, %mm5                        
	packuswb %mm5, %mm2                  
	movq %mm2, (%rax)                     
	movq (%rax, %rsi), %mm2                     	# D.13407
	movq (%rax, %rsi, 2), %mm3                     	# D.13407
	movq (%rdi, %rsi, 4), %mm4                     	# src, D.13407
	pavgb %mm1, %mm3 
	pavgb %mm0, %mm4 
	movq %mm2, %mm5                      
	movq %mm2, %mm0                    
	punpcklbw %mm7, %mm2                 
	punpckhbw %mm7, %mm5                 
	movq %mm2, %mm6                      
	paddw %mm2, %mm2                     
	paddw %mm6, %mm2                     
	movq %mm5, %mm6                      
	paddw %mm5, %mm5                     
	paddw %mm6, %mm5                     
	movq %mm3, %mm6                      
	punpcklbw %mm7, %mm3                 
	punpckhbw %mm7, %mm6                 
	paddw %mm3, %mm3                     
	paddw %mm6, %mm6                     
	paddw %mm3, %mm2                     
	paddw %mm6, %mm5                     
	movq %mm4, %mm6                      
	punpcklbw %mm7, %mm4                 
	punpckhbw %mm7, %mm6                 
	psubw %mm4, %mm2                     
	psubw %mm6, %mm5                     
	psraw $2, %mm2                        
	psraw $2, %mm5                        
	packuswb %mm5, %mm2                  
	movq %mm2, (%rax, %rsi)                     	# D.13407
	movq (%rax, %rsi, 2), %mm2                     	# D.13407
	movq (%rdi, %rsi, 4), %mm3                     	# src, D.13407
	movq (%rdx), %mm4                     
	pavgb %mm0, %mm3 
	pavgb %mm1, %mm4 
	movq %mm2, %mm5                      
	movq %mm2, %mm1                    
	punpcklbw %mm7, %mm2                 
	punpckhbw %mm7, %mm5                 
	movq %mm2, %mm6                      
	paddw %mm2, %mm2                     
	paddw %mm6, %mm2                     
	movq %mm5, %mm6                      
	paddw %mm5, %mm5                     
	paddw %mm6, %mm5                     
	movq %mm3, %mm6                      
	punpcklbw %mm7, %mm3                 
	punpckhbw %mm7, %mm6                 
	paddw %mm3, %mm3                     
	paddw %mm6, %mm6                     
	paddw %mm3, %mm2                     
	paddw %mm6, %mm5                     
	movq %mm4, %mm6                      
	punpcklbw %mm7, %mm4                 
	punpckhbw %mm7, %mm6                 
	psubw %mm4, %mm2                     
	psubw %mm6, %mm5                     
	psraw $2, %mm2                        
	psraw $2, %mm5                        
	packuswb %mm5, %mm2                  
	movq %mm2, (%rax, %rsi, 2)                     	# D.13407
	movq (%rdi, %rsi, 4), %mm2                     	# src, D.13407
	movq (%rdx), %mm3                     
	movq (%rdx, %rsi), %mm4                     	# D.13407
	pavgb %mm1, %mm3 
	pavgb %mm0, %mm4 
	movq %mm2, %mm5                      
	movq %mm2, %mm0                    
	punpcklbw %mm7, %mm2                 
	punpckhbw %mm7, %mm5                 
	movq %mm2, %mm6                      
	paddw %mm2, %mm2                     
	paddw %mm6, %mm2                     
	movq %mm5, %mm6                      
	paddw %mm5, %mm5                     
	paddw %mm6, %mm5                     
	movq %mm3, %mm6                      
	punpcklbw %mm7, %mm3                 
	punpckhbw %mm7, %mm6                 
	paddw %mm3, %mm3                     
	paddw %mm6, %mm6                     
	paddw %mm3, %mm2                     
	paddw %mm6, %mm5                     
	movq %mm4, %mm6                      
	punpcklbw %mm7, %mm4                 
	punpckhbw %mm7, %mm6                 
	psubw %mm4, %mm2                     
	psubw %mm6, %mm5                     
	psraw $2, %mm2                        
	psraw $2, %mm5                        
	packuswb %mm5, %mm2                  
	movq %mm2, (%rdi, %rsi, 4)                     	# src, D.13407
	movq (%rdx), %mm2                     
	movq (%rdx, %rsi), %mm3                     	# D.13407
	movq (%rdx, %rsi, 2), %mm4                     	# D.13407
	pavgb %mm0, %mm3 
	pavgb %mm1, %mm4 
	movq %mm2, %mm5                      
	movq %mm2, %mm1                    
	punpcklbw %mm7, %mm2                 
	punpckhbw %mm7, %mm5                 
	movq %mm2, %mm6                      
	paddw %mm2, %mm2                     
	paddw %mm6, %mm2                     
	movq %mm5, %mm6                      
	paddw %mm5, %mm5                     
	paddw %mm6, %mm5                     
	movq %mm3, %mm6                      
	punpcklbw %mm7, %mm3                 
	punpckhbw %mm7, %mm6                 
	paddw %mm3, %mm3                     
	paddw %mm6, %mm6                     
	paddw %mm3, %mm2                     
	paddw %mm6, %mm5                     
	movq %mm4, %mm6                      
	punpcklbw %mm7, %mm4                 
	punpckhbw %mm7, %mm6                 
	psubw %mm4, %mm2                     
	psubw %mm6, %mm5                     
	psraw $2, %mm2                        
	psraw $2, %mm5                        
	packuswb %mm5, %mm2                  
	movq %mm2, (%rdx)                     
	movq (%rdx, %rsi), %mm2                     	# D.13407
	movq (%rdx, %rsi, 2), %mm3                     	# D.13407
	movq (%rdi, %rsi, 8), %mm4                     	# src, D.13407
	pavgb %mm1, %mm3 
	pavgb %mm0, %mm4 
	movq %mm2, %mm5                      
	movq %mm2, %mm0                    
	punpcklbw %mm7, %mm2                 
	punpckhbw %mm7, %mm5                 
	movq %mm2, %mm6                      
	paddw %mm2, %mm2                     
	paddw %mm6, %mm2                     
	movq %mm5, %mm6                      
	paddw %mm5, %mm5                     
	paddw %mm6, %mm5                     
	movq %mm3, %mm6                      
	punpcklbw %mm7, %mm3                 
	punpckhbw %mm7, %mm6                 
	paddw %mm3, %mm3                     
	paddw %mm6, %mm6                     
	paddw %mm3, %mm2                     
	paddw %mm6, %mm5                     
	movq %mm4, %mm6                      
	punpcklbw %mm7, %mm4                 
	punpckhbw %mm7, %mm6                 
	psubw %mm4, %mm2                     
	psubw %mm6, %mm5                     
	psraw $2, %mm2                        
	psraw $2, %mm5                        
	packuswb %mm5, %mm2                  
	movq %mm2, (%rdx, %rsi)                     	# D.13407
	movq (%rdx, %rsi, 2), %mm2                     	# D.13407
	movq (%rdi, %rsi, 8), %mm3                     	# src, D.13407
	movq (%rdx, %rsi, 4), %mm4                     	# D.13407
	pavgb %mm0, %mm3 
	pavgb %mm1, %mm4 
	movq %mm2, %mm5                      
	movq %mm2, %mm1                    
	punpcklbw %mm7, %mm2                 
	punpckhbw %mm7, %mm5                 
	movq %mm2, %mm6                      
	paddw %mm2, %mm2                     
	paddw %mm6, %mm2                     
	movq %mm5, %mm6                      
	paddw %mm5, %mm5                     
	paddw %mm6, %mm5                     
	movq %mm3, %mm6                      
	punpcklbw %mm7, %mm3                 
	punpckhbw %mm7, %mm6                 
	paddw %mm3, %mm3                     
	paddw %mm6, %mm6                     
	paddw %mm3, %mm2                     
	paddw %mm6, %mm5                     
	movq %mm4, %mm6                      
	punpcklbw %mm7, %mm4                 
	punpckhbw %mm7, %mm6                 
	psubw %mm4, %mm2                     
	psubw %mm6, %mm5                     
	psraw $2, %mm2                        
	psraw $2, %mm5                        
	packuswb %mm5, %mm2                  
	movq %mm2, (%rdx, %rsi, 2)                     	# D.13407
	movq %mm0, (%r8)                       	# tmp
	movq %mm1, (%rcx)                       	# tmp2
	
# 0 "" 2
#NO_APP
	ret
	.cfi_endproc
.LFE166:
	.size	deInterlaceL5_SSE2, .-deInterlaceL5_SSE2
	.type	tempNoiseReducer_SSE2, @function
tempNoiseReducer_SSE2:
.LFB171:
	.cfi_startproc
	movq	%rdx, %r9	# tempBlurred, tempBlurred
	movq	%rcx, -8(%rsp)	# tempBlurredPast, tempBlurredPast
	movl	(%r8), %eax	# *maxNoise_3(D), *maxNoise_3(D)
	movl	%eax, 508(%rcx)	# *maxNoise_3(D), MEM[(uint32_t *)_2 + 508B]
	movl	4(%r8), %eax	# MEM[(const int *)maxNoise_3(D) + 4B], MEM[(const int *)maxNoise_3(D) + 4B]
	movl	%eax, 512(%rcx)	# MEM[(const int *)maxNoise_3(D) + 4B], MEM[(uint32_t *)_2 + 512B]
	movl	8(%r8), %eax	# MEM[(const int *)maxNoise_3(D) + 8B], MEM[(const int *)maxNoise_3(D) + 8B]
	movl	%eax, 516(%rcx)	# MEM[(const int *)maxNoise_3(D) + 8B], MEM[(uint32_t *)_2 + 516B]
	movslq	%esi, %rsi	# stride, D.13420
#APP
# 2169 "postprocess_template.c" 1
	lea (%rsi, %rsi, 2), %rax             	# D.13420
	lea (%rsi, %rsi, 4), %rdx             	# D.13420
	lea (%rdx, %rsi, 2), %rcx      	# D.13420
	pcmpeqb %mm7, %mm7                   
	movq b80, %mm6              
	pxor %mm0, %mm0                      
	movq (%rdi), %mm5                     	# src
	movq (%r9), %mm2                     	# tempBlurred
	pxor %mm7, %mm2                      
	pavgb %mm2, %mm5 
	paddb %mm6, %mm5                     
	movq %mm5, %mm2                      
	psllw $8, %mm5                        
	pmaddwd %mm5, %mm5                   
	pmaddwd %mm2, %mm2                   
	paddd %mm2, %mm5                     
	psrld $14, %mm5                       
	paddd %mm5, %mm0                     
	movq (%rdi, %rsi), %mm5                     	# src, D.13420
	movq (%r9, %rsi), %mm2                     	# tempBlurred, D.13420
	pxor %mm7, %mm2                      
	pavgb %mm2, %mm5 
	paddb %mm6, %mm5                     
	movq %mm5, %mm2                      
	psllw $8, %mm5                        
	pmaddwd %mm5, %mm5                   
	pmaddwd %mm2, %mm2                   
	paddd %mm2, %mm5                     
	psrld $14, %mm5                       
	paddd %mm5, %mm0                     
	movq (%rdi, %rsi, 2), %mm5                     	# src, D.13420
	movq (%r9, %rsi, 2), %mm2                     	# tempBlurred, D.13420
	pxor %mm7, %mm2                      
	pavgb %mm2, %mm5 
	paddb %mm6, %mm5                     
	movq %mm5, %mm2                      
	psllw $8, %mm5                        
	pmaddwd %mm5, %mm5                   
	pmaddwd %mm2, %mm2                   
	paddd %mm2, %mm5                     
	psrld $14, %mm5                       
	paddd %mm5, %mm0                     
	movq (%rdi, %rax), %mm5                     	# src
	movq (%r9, %rax), %mm2                     	# tempBlurred
	pxor %mm7, %mm2                      
	pavgb %mm2, %mm5 
	paddb %mm6, %mm5                     
	movq %mm5, %mm2                      
	psllw $8, %mm5                        
	pmaddwd %mm5, %mm5                   
	pmaddwd %mm2, %mm2                   
	paddd %mm2, %mm5                     
	psrld $14, %mm5                       
	paddd %mm5, %mm0                     
	movq (%rdi, %rsi, 4), %mm5                     	# src, D.13420
	movq (%r9, %rsi, 4), %mm2                     	# tempBlurred, D.13420
	pxor %mm7, %mm2                      
	pavgb %mm2, %mm5 
	paddb %mm6, %mm5                     
	movq %mm5, %mm2                      
	psllw $8, %mm5                        
	pmaddwd %mm5, %mm5                   
	pmaddwd %mm2, %mm2                   
	paddd %mm2, %mm5                     
	psrld $14, %mm5                       
	paddd %mm5, %mm0                     
	movq (%rdi, %rdx), %mm5                     	# src
	movq (%r9, %rdx), %mm2                     	# tempBlurred
	pxor %mm7, %mm2                      
	pavgb %mm2, %mm5 
	paddb %mm6, %mm5                     
	movq %mm5, %mm2                      
	psllw $8, %mm5                        
	pmaddwd %mm5, %mm5                   
	pmaddwd %mm2, %mm2                   
	paddd %mm2, %mm5                     
	psrld $14, %mm5                       
	paddd %mm5, %mm0                     
	movq (%rdi, %rax,2), %mm5                     	# src
	movq (%r9, %rax,2), %mm2                     	# tempBlurred
	pxor %mm7, %mm2                      
	pavgb %mm2, %mm5 
	paddb %mm6, %mm5                     
	movq %mm5, %mm2                      
	psllw $8, %mm5                        
	pmaddwd %mm5, %mm5                   
	pmaddwd %mm2, %mm2                   
	paddd %mm2, %mm5                     
	psrld $14, %mm5                       
	paddd %mm5, %mm0                     
	movq (%rdi, %rcx), %mm5                     	# src
	movq (%r9, %rcx), %mm2                     	# tempBlurred
	pxor %mm7, %mm2                      
	pavgb %mm2, %mm5 
	paddb %mm6, %mm5                     
	movq %mm5, %mm2                      
	psllw $8, %mm5                        
	pmaddwd %mm5, %mm5                   
	pmaddwd %mm2, %mm2                   
	paddd %mm2, %mm5                     
	psrld $14, %mm5                       
	paddd %mm5, %mm0                     
	movq %mm0, %mm4                      
	psrlq $32, %mm0                       
	paddd %mm0, %mm4                     
	movd %mm4, %ecx                      
	shll $2, %ecx                         
	mov -8(%rsp), %rdx                      	# tempBlurredPast
	addl -4(%rdx), %ecx              
	addl 4(%rdx), %ecx               
	addl -1024(%rdx), %ecx           
	addl $4, %ecx                         
	addl 1024(%rdx), %ecx            
	shrl $3, %ecx                         
	movl %ecx, (%rdx)                
	cmpl 512(%rdx), %ecx             
	 jb 2f                                 
	cmpl 516(%rdx), %ecx             
	 jb 1f                                 
	lea (%rax, %rsi, 2), %rdx      	# D.13420
	lea (%rdx, %rsi, 2), %rcx      	# D.13420
	movq (%rdi), %mm0                       	# src
	movq (%rdi, %rsi), %mm1                   	# src, D.13420
	movq (%rdi, %rsi, 2), %mm2                	# src, D.13420
	movq (%rdi, %rax), %mm3            	# src
	movq (%rdi, %rsi, 4), %mm4                	# src, D.13420
	movq (%rdi, %rdx), %mm5            	# src
	movq (%rdi, %rax, 2), %mm6         	# src
	movq (%rdi, %rcx), %mm7            	# src
	movq %mm0, (%r9)                       	# tempBlurred
	movq %mm1, (%r9, %rsi)                   	# tempBlurred, D.13420
	movq %mm2, (%r9, %rsi, 2)                	# tempBlurred, D.13420
	movq %mm3, (%r9, %rax)            	# tempBlurred
	movq %mm4, (%r9, %rsi, 4)                	# tempBlurred, D.13420
	movq %mm5, (%r9, %rdx)            	# tempBlurred
	movq %mm6, (%r9, %rax, 2)         	# tempBlurred
	movq %mm7, (%r9, %rcx)            	# tempBlurred
	jmp 4f                                 
	1:                                     
	lea (%rax, %rsi, 2), %rdx      	# D.13420
	lea (%rdx, %rsi, 2), %rcx      	# D.13420
	movq (%rdi), %mm0                       	# src
	pavgb (%r9), %mm0 	# tempBlurred
	movq (%rdi, %rsi), %mm1                   	# src, D.13420
	pavgb (%r9, %rsi), %mm1 	# tempBlurred, D.13420
	movq (%rdi, %rsi, 2), %mm2                	# src, D.13420
	pavgb (%r9, %rsi, 2), %mm2 	# tempBlurred, D.13420
	movq (%rdi, %rax), %mm3            	# src
	pavgb (%r9, %rax), %mm3 	# tempBlurred
	movq (%rdi, %rsi, 4), %mm4                	# src, D.13420
	pavgb (%r9, %rsi, 4), %mm4 	# tempBlurred, D.13420
	movq (%rdi, %rdx), %mm5            	# src
	pavgb (%r9, %rdx), %mm5 	# tempBlurred
	movq (%rdi, %rax, 2), %mm6         	# src
	pavgb (%r9, %rax, 2), %mm6 	# tempBlurred
	movq (%rdi, %rcx), %mm7            	# src
	pavgb (%r9, %rcx), %mm7 	# tempBlurred
	movq %mm0, (%r9)                       	# tempBlurred
	movq %mm1, (%r9, %rsi)                   	# tempBlurred, D.13420
	movq %mm2, (%r9, %rsi, 2)                	# tempBlurred, D.13420
	movq %mm3, (%r9, %rax)            	# tempBlurred
	movq %mm4, (%r9, %rsi, 4)                	# tempBlurred, D.13420
	movq %mm5, (%r9, %rdx)            	# tempBlurred
	movq %mm6, (%r9, %rax, 2)         	# tempBlurred
	movq %mm7, (%r9, %rcx)            	# tempBlurred
	movq %mm0, (%rdi)                       	# src
	movq %mm1, (%rdi, %rsi)                   	# src, D.13420
	movq %mm2, (%rdi, %rsi, 2)                	# src, D.13420
	movq %mm3, (%rdi, %rax)            	# src
	movq %mm4, (%rdi, %rsi, 4)                	# src, D.13420
	movq %mm5, (%rdi, %rdx)            	# src
	movq %mm6, (%rdi, %rax, 2)         	# src
	movq %mm7, (%rdi, %rcx)            	# src
	jmp 4f                                 
	2:                                     
	cmpl 508(%rdx), %ecx             
	 jb 3f                                 
	lea (%rax, %rsi, 2), %rdx      	# D.13420
	lea (%rdx, %rsi, 2), %rcx      	# D.13420
	movq (%rdi), %mm0                       	# src
	movq (%rdi, %rsi), %mm1                   	# src, D.13420
	movq (%rdi, %rsi, 2), %mm2                	# src, D.13420
	movq (%rdi, %rax), %mm3            	# src
	movq (%r9), %mm4                       	# tempBlurred
	movq (%r9, %rsi), %mm5                   	# tempBlurred, D.13420
	movq (%r9, %rsi, 2), %mm6                	# tempBlurred, D.13420
	movq (%r9, %rax), %mm7            	# tempBlurred
	pavgb %mm4, %mm0 
	pavgb %mm5, %mm1 
	pavgb %mm6, %mm2 
	pavgb %mm7, %mm3 
	pavgb %mm4, %mm0 
	pavgb %mm5, %mm1 
	pavgb %mm6, %mm2 
	pavgb %mm7, %mm3 
	movq %mm0, (%r9)                       	# tempBlurred
	movq %mm1, (%r9, %rsi)                   	# tempBlurred, D.13420
	movq %mm2, (%r9, %rsi, 2)                	# tempBlurred, D.13420
	movq %mm3, (%r9, %rax)            	# tempBlurred
	movq %mm0, (%rdi)                       	# src
	movq %mm1, (%rdi, %rsi)                   	# src, D.13420
	movq %mm2, (%rdi, %rsi, 2)                	# src, D.13420
	movq %mm3, (%rdi, %rax)            	# src
	movq (%rdi, %rsi, 4), %mm0                	# src, D.13420
	movq (%rdi, %rdx), %mm1            	# src
	movq (%rdi, %rax, 2), %mm2         	# src
	movq (%rdi, %rcx), %mm3            	# src
	movq (%r9, %rsi, 4), %mm4                	# tempBlurred, D.13420
	movq (%r9, %rdx), %mm5            	# tempBlurred
	movq (%r9, %rax, 2), %mm6         	# tempBlurred
	movq (%r9, %rcx), %mm7            	# tempBlurred
	pavgb %mm4, %mm0 
	pavgb %mm5, %mm1 
	pavgb %mm6, %mm2 
	pavgb %mm7, %mm3 
	pavgb %mm4, %mm0 
	pavgb %mm5, %mm1 
	pavgb %mm6, %mm2 
	pavgb %mm7, %mm3 
	movq %mm0, (%r9, %rsi, 4)                	# tempBlurred, D.13420
	movq %mm1, (%r9, %rdx)            	# tempBlurred
	movq %mm2, (%r9, %rax, 2)         	# tempBlurred
	movq %mm3, (%r9, %rcx)            	# tempBlurred
	movq %mm0, (%rdi, %rsi, 4)                	# src, D.13420
	movq %mm1, (%rdi, %rdx)            	# src
	movq %mm2, (%rdi, %rax, 2)         	# src
	movq %mm3, (%rdi, %rcx)            	# src
	jmp 4f                                 
	3:                                     
	lea (%rax, %rsi, 2), %rdx      	# D.13420
	lea (%rdx, %rsi, 2), %rcx      	# D.13420
	movq (%rdi), %mm0                       	# src
	movq (%rdi, %rsi), %mm1                   	# src, D.13420
	movq (%rdi, %rsi, 2), %mm2                	# src, D.13420
	movq (%rdi, %rax), %mm3            	# src
	movq (%r9), %mm4                       	# tempBlurred
	movq (%r9, %rsi), %mm5                   	# tempBlurred, D.13420
	movq (%r9, %rsi, 2), %mm6                	# tempBlurred, D.13420
	movq (%r9, %rax), %mm7            	# tempBlurred
	pavgb %mm4, %mm0 
	pavgb %mm5, %mm1 
	pavgb %mm6, %mm2 
	pavgb %mm7, %mm3 
	pavgb %mm4, %mm0 
	pavgb %mm5, %mm1 
	pavgb %mm6, %mm2 
	pavgb %mm7, %mm3 
	pavgb %mm4, %mm0 
	pavgb %mm5, %mm1 
	pavgb %mm6, %mm2 
	pavgb %mm7, %mm3 
	movq %mm0, (%r9)                       	# tempBlurred
	movq %mm1, (%r9, %rsi)                   	# tempBlurred, D.13420
	movq %mm2, (%r9, %rsi, 2)                	# tempBlurred, D.13420
	movq %mm3, (%r9, %rax)            	# tempBlurred
	movq %mm0, (%rdi)                       	# src
	movq %mm1, (%rdi, %rsi)                   	# src, D.13420
	movq %mm2, (%rdi, %rsi, 2)                	# src, D.13420
	movq %mm3, (%rdi, %rax)            	# src
	movq (%rdi, %rsi, 4), %mm0                	# src, D.13420
	movq (%rdi, %rdx), %mm1            	# src
	movq (%rdi, %rax, 2), %mm2         	# src
	movq (%rdi, %rcx), %mm3            	# src
	movq (%r9, %rsi, 4), %mm4                	# tempBlurred, D.13420
	movq (%r9, %rdx), %mm5            	# tempBlurred
	movq (%r9, %rax, 2), %mm6         	# tempBlurred
	movq (%r9, %rcx), %mm7            	# tempBlurred
	pavgb %mm4, %mm0 
	pavgb %mm5, %mm1 
	pavgb %mm6, %mm2 
	pavgb %mm7, %mm3 
	pavgb %mm4, %mm0 
	pavgb %mm5, %mm1 
	pavgb %mm6, %mm2 
	pavgb %mm7, %mm3 
	pavgb %mm4, %mm0 
	pavgb %mm5, %mm1 
	pavgb %mm6, %mm2 
	pavgb %mm7, %mm3 
	movq %mm0, (%r9, %rsi, 4)                	# tempBlurred, D.13420
	movq %mm1, (%r9, %rdx)            	# tempBlurred
	movq %mm2, (%r9, %rax, 2)         	# tempBlurred
	movq %mm3, (%r9, %rcx)            	# tempBlurred
	movq %mm0, (%rdi, %rsi, 4)                	# src, D.13420
	movq %mm1, (%rdi, %rdx)            	# src
	movq %mm2, (%rdi, %rax, 2)         	# src
	movq %mm3, (%rdi, %rcx)            	# src
	4:                                     
	
# 0 "" 2
#NO_APP
	ret
	.cfi_endproc
.LFE171:
	.size	tempNoiseReducer_SSE2, .-tempNoiseReducer_SSE2
	.section	.rodata.str1.1,"aMS",@progbits,1
.LC0:
	.string	"postproc"
	.text
	.type	context_to_name, @function
context_to_name:
.LFB181:
	.cfi_startproc
	movl	$.LC0, %eax	#,
	ret
	.cfi_endproc
.LFE181:
	.size	context_to_name, .-context_to_name
	.type	linecpy, @function
linecpy:
.LFB69:
	.cfi_startproc
	subq	$8, %rsp	#,
	.cfi_def_cfa_offset 16
	testl	%ecx, %ecx	# stride
	jle	.L147	#,
	imull	%ecx, %edx	# stride, D.13431
	movslq	%edx, %rdx	# D.13431, D.13432
	call	memcpy	#
	jmp	.L146	#
.L147:
	leal	-1(%rdx), %r8d	#, D.13431
	imull	%ecx, %r8d	# stride, D.13431
	movslq	%r8d, %rax	# D.13431, D.13433
	addq	%rax, %rdi	# D.13433, D.13435
	negl	%edx	# D.13431
	imull	%ecx, %edx	# stride, D.13431
	movslq	%edx, %rdx	# D.13431, D.13432
	addq	%rax, %rsi	# D.13433, D.13434
	call	memcpy	#
.L146:
	addq	$8, %rsp	#,
	.cfi_def_cfa_offset 8
	ret
	.cfi_endproc
.LFE69:
	.size	linecpy, .-linecpy
	.type	reallocAlign, @function
reallocAlign:
.LFB179:
	.cfi_startproc
	pushq	%rbp	#
	.cfi_def_cfa_offset 16
	.cfi_offset 6, -16
	pushq	%rbx	#
	.cfi_def_cfa_offset 24
	.cfi_offset 3, -24
	subq	$8, %rsp	#,
	.cfi_def_cfa_offset 32
	movq	%rdi, %rbp	# p, p
	movl	%esi, %ebx	# size, size
	movq	(%rdi), %rdi	# *p_2(D),
	call	av_free	#
	movslq	%ebx, %rdi	# size, D.13446
	call	av_mallocz	#
	movq	%rax, 0(%rbp)	# tmp89, *p_2(D)
	addq	$8, %rsp	#,
	.cfi_def_cfa_offset 24
	popq	%rbx	#
	.cfi_def_cfa_offset 16
	popq	%rbp	#
	.cfi_def_cfa_offset 8
	ret
	.cfi_endproc
.LFE179:
	.size	reallocAlign, .-reallocAlign
	.type	reallocBuffers, @function
reallocBuffers:
.LFB180:
	.cfi_startproc
	pushq	%r15	#
	.cfi_def_cfa_offset 16
	.cfi_offset 15, -16
	pushq	%r14	#
	.cfi_def_cfa_offset 24
	.cfi_offset 14, -24
	pushq	%r13	#
	.cfi_def_cfa_offset 32
	.cfi_offset 13, -32
	pushq	%r12	#
	.cfi_def_cfa_offset 40
	.cfi_offset 12, -40
	pushq	%rbp	#
	.cfi_def_cfa_offset 48
	.cfi_offset 6, -48
	pushq	%rbx	#
	.cfi_def_cfa_offset 56
	.cfi_offset 3, -56
	subq	$24, %rsp	#,
	.cfi_def_cfa_offset 80
	movq	%rdi, %rbx	# c, c
	movl	%esi, %r14d	# width, width
	movl	%edx, %ebp	# height, height
	movl	%ecx, %r12d	# stride, stride
	movl	%r8d, 12(%rsp)	# qpStride, %sfp
	leal	15(%rsi), %eax	#, D.13467
	sarl	$4, %eax	#, mbWidth
	movl	%eax, 8(%rsp)	# mbWidth, %sfp
	leal	15(%rdx), %eax	#, D.13467
	sarl	$4, %eax	#, mbHeight
	movl	%eax, 4(%rsp)	# mbHeight, %sfp
	movl	%ecx, 1196(%rbx)	# stride, c_12(D)->stride
	movl	%r8d, 1192(%rbx)	# qpStride, c_12(D)->qpStride
	leal	(%rcx,%rcx,2), %r13d	#, tmp136
	sall	$3, %r13d	#, tmp137
	leal	32(%r13), %esi	#, D.13467
	leaq	88(%rdi), %rdi	#, D.13466
	call	reallocAlign	#
	leaq	96(%rbx), %rdi	#, D.13466
	movl	%r13d, %esi	# tmp137,
	call	reallocAlign	#
	leaq	8(%rbx), %rdi	#, D.13466
	movl	$256, %esi	#,
	call	reallocAlign	#
	leaq	16(%rbx), %rdi	#, D.13468
	movl	$2048, %esi	#,
	call	reallocAlign	#
	movl	%r14d, %edx	# width, D.13467
	imull	%ebp, %edx	# height, D.13467
	leal	63(%rdx), %eax	#, tmp146
	testl	%edx, %edx	# D.13467
	cmovns	%edx, %eax	# tmp146,, D.13467, D.13467
	sarl	$6, %eax	#, D.13467
	movl	%eax, %ecx	# D.13467, tmp149
	sall	$4, %ecx	#, tmp149
	subl	%eax, %ecx	# D.13467, D.13467
	leal	255(%rcx), %eax	#, tmp153
	testl	%ecx, %ecx	# D.13467
	cmovs	%eax, %ecx	# tmp153,, D.13467
	sarl	$8, %ecx	#, D.13467
	movslq	%ecx, %rcx	# D.13467, D.13470
	movl	$0, %eax	#, ivtmp.537
.L153:
	movq	16(%rbx), %rdx	# c_12(D)->yHistogram, c_12(D)->yHistogram
	movq	%rcx, (%rdx,%rax)	# D.13470, *_30
	addq	$8, %rax	#, ivtmp.537
	cmpq	$2048, %rax	#, ivtmp.537
	jne	.L153	#,
	movl	%r12d, %r13d	# stride, D.13467
	imull	4(%rsp), %r13d	# %sfp, D.13467
	addl	$1088, %r13d	#, D.13467
	sall	$4, %r13d	#, D.13467
	leal	7(%rbp), %r12d	#, D.13467
	andl	$-8, %r12d	#, D.13467
	sall	$8, %r12d	#, D.13467
	sarl	%r12d	# D.13467
	addl	$17408, %r12d	#, D.13467
	leaq	40(%rbx), %rbp	#, ivtmp.527
	leaq	64(%rbx), %r15	#, D.13465
.L154:
	movl	%r13d, %esi	# D.13467,
	movq	%rbp, %rdi	# ivtmp.527,
	call	reallocAlign	#
	leaq	24(%rbp), %rdi	#, D.13465
	movl	%r12d, %esi	# D.13467,
	call	reallocAlign	#
	addq	$8, %rbp	#, ivtmp.527
	cmpq	%r15, %rbp	# D.13465, ivtmp.527
	jne	.L154	#,
	leal	32(%r14,%r14), %esi	#, D.13467
	leaq	104(%rbx), %rdi	#, D.13466
	call	reallocAlign	#
	movl	12(%rsp), %ebp	# %sfp, D.13467
	imull	4(%rsp), %ebp	# %sfp, D.13467
	leaq	1160(%rbx), %rdi	#, D.13471
	movl	%ebp, %esi	# D.13467,
	call	reallocAlign	#
	leaq	1152(%rbx), %rdi	#, D.13471
	movl	%ebp, %esi	# D.13467,
	call	reallocAlign	#
	leaq	1168(%rbx), %rdi	#, D.13471
	movl	8(%rsp), %esi	# %sfp,
	call	reallocAlign	#
	addq	$24, %rsp	#,
	.cfi_def_cfa_offset 56
	popq	%rbx	#
	.cfi_def_cfa_offset 48
	popq	%rbp	#
	.cfi_def_cfa_offset 40
	popq	%r12	#
	.cfi_def_cfa_offset 32
	popq	%r13	#
	.cfi_def_cfa_offset 24
	popq	%r14	#
	.cfi_def_cfa_offset 16
	popq	%r15	#
	.cfi_def_cfa_offset 8
	ret
	.cfi_endproc
.LFE180:
	.size	reallocBuffers, .-reallocBuffers
	.section	.rodata.str1.8,"aMS",@progbits,1
	.align 8
.LC1:
	.string	"Visualization is currently only supported with the accurate deblock filter without SIMD\n"
	.text
	.type	postProcess_C, @function
postProcess_C:
.LFB103:
	.cfi_startproc
	pushq	%r15	#
	.cfi_def_cfa_offset 16
	.cfi_offset 15, -16
	pushq	%r14	#
	.cfi_def_cfa_offset 24
	.cfi_offset 14, -24
	pushq	%r13	#
	.cfi_def_cfa_offset 32
	.cfi_offset 13, -32
	pushq	%r12	#
	.cfi_def_cfa_offset 40
	.cfi_offset 12, -40
	pushq	%rbp	#
	.cfi_def_cfa_offset 48
	.cfi_offset 6, -48
	pushq	%rbx	#
	.cfi_def_cfa_offset 56
	.cfi_offset 3, -56
	subq	$2088, %rsp	#,
	.cfi_def_cfa_offset 2144
	movq	%rdi, 584(%rsp)	# src, %sfp
	movl	%esi, 240(%rsp)	# srcStride, %sfp
	movq	%rdx, 528(%rsp)	# dst, %sfp
	movl	%ecx, 56(%rsp)	# dstStride, %sfp
	movl	%r8d, 224(%rsp)	# width, %sfp
	movl	%r9d, 228(%rsp)	# height, %sfp
	leaq	816(%rsp), %rdi	#, tmp3572
	movl	$157, %ecx	#, tmp3574
	movq	2168(%rsp), %rsi	# c2, c2
	rep movsq
	movq	2168(%rsp), %rax	# c2, tmp5728
	movq	16(%rax), %rax	# MEM[(struct PPContext *)c2_51(D) + 16B], c$yHistogram
	movq	%rax, 424(%rsp)	# c$yHistogram, %sfp
	movq	2168(%rsp), %rax	# c2, tmp5730
	movq	88(%rax), %rax	# MEM[(struct PPContext *)c2_51(D) + 88B], c$tempDst
	movq	%rax, 616(%rsp)	# c$tempDst, %sfp
	movq	2168(%rsp), %rax	# c2, tmp5732
	movq	96(%rax), %rax	# MEM[(struct PPContext *)c2_51(D) + 96B], srcBlock
	movq	%rax, 592(%rsp)	# srcBlock, %sfp
	movq	2168(%rsp), %rax	# c2, tmp5734
	movq	104(%rax), %rax	# MEM[(struct PPContext *)c2_51(D) + 104B], c$deintTemp
	movq	%rax, 472(%rsp)	# c$deintTemp, %sfp
	movq	2168(%rsp), %rax	# c2, tmp5736
	movq	1160(%rax), %rax	# MEM[(struct PPContext *)c2_51(D) + 1160B], c$nonBQPTable
	movq	%rax, 600(%rsp)	# c$nonBQPTable, %sfp
	movq	2168(%rsp), %rax	# c2, tmp5738
	movl	1176(%rax), %eax	# MEM[(struct PPContext *)c2_51(D) + 1176B], c$QP
	movl	%eax, 36(%rsp)	# c$QP, %sfp
	movq	2168(%rsp), %rax	# c2, tmp5740
	movl	1180(%rax), %eax	# MEM[(struct PPContext *)c2_51(D) + 1180B], c$nonBQP
	movl	%eax, 176(%rsp)	# c$nonBQP, %sfp
	movq	2168(%rsp), %rax	# c2, tmp5742
	movl	1184(%rax), %eax	# MEM[(struct PPContext *)c2_51(D) + 1184B], c$frameNum
	movl	%eax, 576(%rsp)	# c$frameNum, %sfp
	movq	2168(%rsp), %rax	# c2, tmp5744
	movl	1200(%rax), %eax	# MEM[(struct PPContext *)c2_51(D) + 1200B], c$hChromaSubSample
	movl	%eax, 720(%rsp)	# c$hChromaSubSample, %sfp
	movq	2168(%rsp), %rax	# c2, tmp5746
	movl	1204(%rax), %eax	# MEM[(struct PPContext *)c2_51(D) + 1204B], c$vChromaSubSample
	movl	%eax, 708(%rsp)	# c$vChromaSubSample, %sfp
	movq	2168(%rsp), %rax	# c2, tmp5748
	movl	1208(%rax), %eax	# MEM[(struct PPContext *)c2_51(D) + 1208B], c$ppMode$lumMode
	movl	%eax, 696(%rsp)	# c$ppMode$lumMode, %sfp
	movq	2168(%rsp), %rax	# c2, tmp5750
	movl	1212(%rax), %eax	# MEM[(struct PPContext *)c2_51(D) + 1212B], c$ppMode$chromMode
	movl	%eax, 704(%rsp)	# c$ppMode$chromMode, %sfp
	movq	2168(%rsp), %rax	# c2, tmp5752
	movl	1220(%rax), %eax	# MEM[(struct PPContext *)c2_51(D) + 1220B], c$ppMode$minAllowedY
	movl	%eax, 700(%rsp)	# c$ppMode$minAllowedY, %sfp
	movq	2168(%rsp), %rax	# c2, tmp5754
	movl	1224(%rax), %eax	# MEM[(struct PPContext *)c2_51(D) + 1224B], c$ppMode$maxAllowedY
	movl	%eax, 716(%rsp)	# c$ppMode$maxAllowedY, %sfp
	movq	2168(%rsp), %rax	# c2, tmp5756
	movss	1228(%rax), %xmm2	# MEM[(struct PPContext *)c2_51(D) + 1228B], c$ppMode$maxClippedThreshold
	movss	%xmm2, 712(%rsp)	# c$ppMode$maxClippedThreshold, %sfp
	movl	1232(%rax), %eax	# MEM[(struct PPContext *)c2_51(D) + 1232B], c$1232
	movl	%eax, 460(%rsp)	# c$1232, %sfp
	movq	2168(%rsp), %rax	# c2, tmp5760
	movl	1236(%rax), %eax	# MEM[(struct PPContext *)c2_51(D) + 1236B], c$1236
	movl	%eax, 420(%rsp)	# c$1236, %sfp
	movq	2168(%rsp), %rax	# c2, tmp5762
	movl	1240(%rax), %eax	# MEM[(struct PPContext *)c2_51(D) + 1240B], c$1240
	movl	%eax, 456(%rsp)	# c$1240, %sfp
	movq	2168(%rsp), %rax	# c2, tmp5764
	movl	1244(%rax), %eax	# MEM[(struct PPContext *)c2_51(D) + 1244B], c$ppMode$baseDcDiff
	movl	%eax, 408(%rsp)	# c$ppMode$baseDcDiff, %sfp
	movq	2168(%rsp), %rax	# c2, tmp5766
	movl	1248(%rax), %eax	# MEM[(struct PPContext *)c2_51(D) + 1248B], c$ppMode$flatnessThreshold
	movl	%eax, 60(%rsp)	# c$ppMode$flatnessThreshold, %sfp
	cmpl	$0, 2160(%rsp)	#, isColor
	je	.L393	#,
	movl	$4, %eax	#, tmp3575
	movl	%eax, %ebx	# tmp3575, D.14562
	subl	720(%rsp), %ebx	# %sfp, D.14562
	movl	%ebx, 480(%rsp)	# D.14562, %sfp
	subl	708(%rsp), %eax	# %sfp, D.14562
	movl	%eax, 612(%rsp)	# D.14562, %sfp
	movl	704(%rsp), %eax	# %sfp, c$ppMode$chromMode
	movl	%eax, 32(%rsp)	# c$ppMode$chromMode, %sfp
	jmp	.L159	#
.L393:
	movl	696(%rsp), %eax	# %sfp, c$ppMode$lumMode
	movl	%eax, 32(%rsp)	# c$ppMode$lumMode, %sfp
	movl	$4, 480(%rsp)	#, %sfp
	movl	$4, 612(%rsp)	#, %sfp
.L159:
	movq	592(%rsp), %rax	# %sfp, srcBlock
	movq	%rax, 536(%rsp)	# srcBlock, %sfp
	cmpl	$0, 240(%rsp)	#, %sfp
	jg	.L160	#,
	imull	$23, 240(%rsp), %eax	#, %sfp, D.14562
	cltq
	movq	592(%rsp), %rbx	# %sfp, srcBlock
	subq	%rax, %rbx	# D.14566, srcBlock
	movq	%rbx, 536(%rsp)	# srcBlock, %sfp
.L160:
	cmpl	$0, 56(%rsp)	#, %sfp
	jle	.L161	#,
	movq	616(%rsp), %rax	# %sfp, c$tempDst
	addq	$32, %rax	#, D.14565
	movq	%rax, 504(%rsp)	# D.14565, %sfp
	jmp	.L162	#
.L161:
	imull	$23, 56(%rsp), %eax	#, %sfp, D.14562
	cltq
	movq	616(%rsp), %rbx	# %sfp, D.14566
	subq	%rax, %rbx	# D.14566, D.14566
	leaq	32(%rbx), %rax	#, D.14565
	movq	%rax, 504(%rsp)	# D.14565, %sfp
.L162:
	movl	32(%rsp), %eax	# %sfp, D.14562
	andl	$33554432, %eax	#, D.14562
	movl	%eax, 244(%rsp)	# D.14562, %sfp
	je	.L163	#,
	testl	$17408, 32(%rsp)	#, %sfp
	jne	.L163	#,
	movl	$.LC1, %edx	#,
	movl	$24, %esi	#,
	movq	2168(%rsp), %rdi	# c2,
	movl	$0, %eax	#,
	call	av_log	#
.L163:
	movl	$16, 512(%rsp)	#, %sfp
	movl	32(%rsp), %eax	# %sfp, D.14562
	andl	$262144, %eax	#, D.14562
	movl	%eax, 484(%rsp)	# D.14562, %sfp
	jne	.L164	#,
	movl	$14, 512(%rsp)	#, %sfp
	testl	$12713984, 32(%rsp)	#, %sfp
	jne	.L164	#,
	movl	$13, 512(%rsp)	#, %sfp
	testl	$590849, 32(%rsp)	#, %sfp
	jne	.L164	#,
	movl	$11, 512(%rsp)	#, %sfp
	testl	$512, 32(%rsp)	#, %sfp
	jne	.L164	#,
	movl	32(%rsp), %eax	# %sfp, D.14562
	andl	$4, %eax	#, D.14562
	cmpl	$1, %eax	#, D.14562
	sbbl	%eax, %eax	# copyAhead
	addl	$9, %eax	#, copyAhead
	movl	%eax, 512(%rsp)	# copyAhead, %sfp
.L164:
	movl	512(%rsp), %eax	# %sfp, copyAhead
	subl	$8, %eax	#, copyAhead
	movl	%eax, 544(%rsp)	# copyAhead, %sfp
	cmpl	$0, 2160(%rsp)	#, isColor
	jne	.L400	#,
	addl	$1, 576(%rsp)	#, %sfp
	movl	576(%rsp), %eax	# %sfp, c$frameNum
	cmpl	$1, %eax	#, c$frameNum
	jne	.L166	#,
	movslq	224(%rsp), %rdx	# %sfp, D.14567
	movslq	228(%rsp), %rax	# %sfp, D.14567
	imulq	%rdx, %rax	# D.14567, D.14567
	shrq	$6, %rax	#, D.14567
	movq	%rax, %rdx	# D.14567, tmp3593
	salq	$4, %rdx	#, tmp3593
	subq	%rax, %rdx	# D.14567, D.14567
	movq	%rdx, %rax	# D.14567, D.14567
	shrq	$8, %rax	#, tmp3595
	movq	424(%rsp), %rbx	# %sfp, c$yHistogram
	movq	%rax, (%rbx)	# tmp3595, *c$yHistogram_141
.L166:
	movq	424(%rsp), %rax	# %sfp, c$yHistogram
	movq	%rax, %rdi	# c$yHistogram, ivtmp.1363
	leaq	2048(%rax), %rcx	#, D.14572
	movl	$0, %edx	#, clipped
.L167:
	addq	(%rax), %rdx	# MEM[base: _4113, offset: 0B], clipped
	addq	$8, %rax	#, ivtmp.1379
	cmpq	%rcx, %rax	# D.14572, ivtmp.1379
	jne	.L167	#,
	movq	%rdx, %rcx	# clipped, clipped
	testq	%rdx, %rdx	# clipped
	js	.L168	#,
	pxor	%xmm0, %xmm0	# D.14568
	cvtsi2ssq	%rdx, %xmm0	# clipped, D.14568
	jmp	.L169	#
.L168:
	movq	%rdx, %rax	# clipped, tmp3601
	shrq	%rax	# tmp3601
	movq	%rdx, %rsi	# clipped, tmp3602
	andl	$1, %esi	#, tmp3602
	orq	%rsi, %rax	# tmp3602, tmp3601
	pxor	%xmm0, %xmm0	# tmp3600
	cvtsi2ssq	%rax, %xmm0	# tmp3601, tmp3600
	addss	%xmm0, %xmm0	# tmp3600, D.14568
.L169:
