
postprocess.o:     file format elf64-x86-64


Disassembly of section .text:

0000000000000000 <deInterlaceInterpolateCubic_C>:
       0:	41 57                	push   %r15
       2:	41 56                	push   %r14
       4:	41 55                	push   %r13
       6:	41 54                	push   %r12
       8:	55                   	push   %rbp
       9:	53                   	push   %rbx
       a:	8d 1c 36             	lea    (%rsi,%rsi,1),%ebx
       d:	8d 2c 33             	lea    (%rbx,%rsi,1),%ebp
      10:	4c 63 f5             	movslq %ebp,%r14
      13:	4c 01 f7             	add    %r14,%rdi
      16:	48 63 db             	movslq %ebx,%rbx
      19:	44 8d 0c b5 00 00 00 	lea    0x0(,%rsi,4),%r9d
      20:	00 
      21:	4d 63 d9             	movslq %r9d,%r11
      24:	44 8d 64 2d 00       	lea    0x0(%rbp,%rbp,1),%r12d
      29:	4d 63 e4             	movslq %r12d,%r12
      2c:	41 01 f1             	add    %esi,%r9d
      2f:	4d 63 f9             	movslq %r9d,%r15
      32:	8d 04 f5 00 00 00 00 	lea    0x0(,%rsi,8),%eax
      39:	4c 63 d0             	movslq %eax,%r10
      3c:	41 89 c5             	mov    %eax,%r13d
      3f:	41 29 f5             	sub    %esi,%r13d
      42:	4d 63 ed             	movslq %r13d,%r13
      45:	45 01 c9             	add    %r9d,%r9d
      48:	4d 63 c9             	movslq %r9d,%r9
      4b:	01 c6                	add    %eax,%esi
      4d:	48 63 f6             	movslq %esi,%rsi
      50:	c1 e5 02             	shl    $0x2,%ebp
      53:	48 63 ed             	movslq %ebp,%rbp
      56:	4e 8d 04 27          	lea    (%rdi,%r12,1),%r8
      5a:	4a 8d 44 27 08       	lea    0x8(%rdi,%r12,1),%rax
      5f:	48 89 44 24 f0       	mov    %rax,-0x10(%rsp)
      64:	4c 89 e0             	mov    %r12,%rax
      67:	48 f7 d8             	neg    %rax
      6a:	48 89 44 24 f8       	mov    %rax,-0x8(%rsp)
      6f:	4c 89 c0             	mov    %r8,%rax
      72:	4c 29 e0             	sub    %r12,%rax
      75:	4c 89 c1             	mov    %r8,%rcx
      78:	0f b6 14 18          	movzbl (%rax,%rbx,1),%edx
      7c:	8d 14 d2             	lea    (%rdx,%rdx,8),%edx
      7f:	48 8b 7c 24 f8       	mov    -0x8(%rsp),%rdi
      84:	41 0f b6 3c 38       	movzbl (%r8,%rdi,1),%edi
      89:	29 fa                	sub    %edi,%edx
      8b:	42 0f b6 3c 18       	movzbl (%rax,%r11,1),%edi
      90:	8d 3c ff             	lea    (%rdi,%rdi,8),%edi
      93:	01 fa                	add    %edi,%edx
      95:	41 0f b6 38          	movzbl (%r8),%edi
      99:	29 fa                	sub    %edi,%edx
      9b:	c1 fa 04             	sar    $0x4,%edx
      9e:	89 d7                	mov    %edx,%edi
      a0:	f7 c2 00 ff ff ff    	test   $0xffffff00,%edx
      a6:	74 07                	je     af <deInterlaceInterpolateCubic_C+0xaf>
      a8:	f7 da                	neg    %edx
      aa:	c1 fa 1f             	sar    $0x1f,%edx
      ad:	89 d7                	mov    %edx,%edi
      af:	42 88 3c 30          	mov    %dil,(%rax,%r14,1)
      b3:	42 0f b6 14 18       	movzbl (%rax,%r11,1),%edx
      b8:	8d 14 d2             	lea    (%rdx,%rdx,8),%edx
      bb:	0f b6 3c 18          	movzbl (%rax,%rbx,1),%edi
      bf:	29 fa                	sub    %edi,%edx
      c1:	0f b6 39             	movzbl (%rcx),%edi
      c4:	8d 3c ff             	lea    (%rdi,%rdi,8),%edi
      c7:	01 fa                	add    %edi,%edx
      c9:	42 0f b6 3c 10       	movzbl (%rax,%r10,1),%edi
      ce:	29 fa                	sub    %edi,%edx
      d0:	c1 fa 04             	sar    $0x4,%edx
      d3:	89 d7                	mov    %edx,%edi
      d5:	f7 c2 00 ff ff ff    	test   $0xffffff00,%edx
      db:	74 07                	je     e4 <deInterlaceInterpolateCubic_C+0xe4>
      dd:	f7 da                	neg    %edx
      df:	c1 fa 1f             	sar    $0x1f,%edx
      e2:	89 d7                	mov    %edx,%edi
      e4:	42 88 3c 38          	mov    %dil,(%rax,%r15,1)
      e8:	0f b6 11             	movzbl (%rcx),%edx
      eb:	8d 14 d2             	lea    (%rdx,%rdx,8),%edx
      ee:	42 0f b6 3c 18       	movzbl (%rax,%r11,1),%edi
      f3:	29 fa                	sub    %edi,%edx
      f5:	42 0f b6 3c 10       	movzbl (%rax,%r10,1),%edi
      fa:	8d 3c ff             	lea    (%rdi,%rdi,8),%edi
      fd:	01 fa                	add    %edi,%edx
      ff:	42 0f b6 3c 08       	movzbl (%rax,%r9,1),%edi
     104:	29 fa                	sub    %edi,%edx
     106:	c1 fa 04             	sar    $0x4,%edx
     109:	89 d7                	mov    %edx,%edi
     10b:	f7 c2 00 ff ff ff    	test   $0xffffff00,%edx
     111:	74 07                	je     11a <deInterlaceInterpolateCubic_C+0x11a>
     113:	f7 da                	neg    %edx
     115:	c1 fa 1f             	sar    $0x1f,%edx
     118:	89 d7                	mov    %edx,%edi
     11a:	42 88 3c 28          	mov    %dil,(%rax,%r13,1)
     11e:	42 0f b6 14 10       	movzbl (%rax,%r10,1),%edx
     123:	8d 14 d2             	lea    (%rdx,%rdx,8),%edx
     126:	0f b6 09             	movzbl (%rcx),%ecx
     129:	29 ca                	sub    %ecx,%edx
     12b:	42 0f b6 0c 08       	movzbl (%rax,%r9,1),%ecx
     130:	8d 0c c9             	lea    (%rcx,%rcx,8),%ecx
     133:	01 ca                	add    %ecx,%edx
     135:	0f b6 0c 28          	movzbl (%rax,%rbp,1),%ecx
     139:	29 ca                	sub    %ecx,%edx
     13b:	c1 fa 04             	sar    $0x4,%edx
     13e:	89 d1                	mov    %edx,%ecx
     140:	f7 c2 00 ff ff ff    	test   $0xffffff00,%edx
     146:	74 07                	je     14f <deInterlaceInterpolateCubic_C+0x14f>
     148:	f7 da                	neg    %edx
     14a:	c1 fa 1f             	sar    $0x1f,%edx
     14d:	89 d1                	mov    %edx,%ecx
     14f:	88 0c 30             	mov    %cl,(%rax,%rsi,1)
     152:	49 83 c0 01          	add    $0x1,%r8
     156:	4c 3b 44 24 f0       	cmp    -0x10(%rsp),%r8
     15b:	0f 85 0e ff ff ff    	jne    6f <deInterlaceInterpolateCubic_C+0x6f>
     161:	5b                   	pop    %rbx
     162:	5d                   	pop    %rbp
     163:	41 5c                	pop    %r12
     165:	41 5d                	pop    %r13
     167:	41 5e                	pop    %r14
     169:	41 5f                	pop    %r15
     16b:	c3                   	retq   

000000000000016c <deInterlaceFF_C>:
     16c:	41 57                	push   %r15
     16e:	41 56                	push   %r14
     170:	41 55                	push   %r13
     172:	41 54                	push   %r12
     174:	55                   	push   %rbp
     175:	53                   	push   %rbx
     176:	44 8d 0c b5 00 00 00 	lea    0x0(,%rsi,4),%r9d
     17d:	00 
     17e:	49 63 e9             	movslq %r9d,%rbp
     181:	48 01 ef             	add    %rbp,%rdi
     184:	44 8d 04 36          	lea    (%rsi,%rsi,1),%r8d
     188:	4d 63 d0             	movslq %r8d,%r10
     18b:	41 01 f0             	add    %esi,%r8d
     18e:	49 63 c8             	movslq %r8d,%rcx
     191:	41 01 f1             	add    %esi,%r9d
     194:	4d 63 c9             	movslq %r9d,%r9
     197:	45 01 c0             	add    %r8d,%r8d
     19a:	4d 63 c0             	movslq %r8d,%r8
     19d:	44 8d 2c f5 00 00 00 	lea    0x0(,%rsi,8),%r13d
     1a4:	00 
     1a5:	44 89 eb             	mov    %r13d,%ebx
     1a8:	29 f3                	sub    %esi,%ebx
     1aa:	48 63 db             	movslq %ebx,%rbx
     1ad:	4d 63 fd             	movslq %r13d,%r15
     1b0:	41 01 f5             	add    %esi,%r13d
     1b3:	4d 63 ed             	movslq %r13d,%r13
     1b6:	b8 00 00 00 00       	mov    $0x0,%eax
     1bb:	48 63 f6             	movslq %esi,%rsi
     1be:	4c 8d 24 37          	lea    (%rdi,%rsi,1),%r12
     1c2:	4d 8d 34 34          	lea    (%r12,%rsi,1),%r14
     1c6:	4c 01 f6             	add    %r14,%rsi
     1c9:	48 89 74 24 e8       	mov    %rsi,-0x18(%rsp)
     1ce:	48 01 fd             	add    %rdi,%rbp
     1d1:	49 01 f9             	add    %rdi,%r9
     1d4:	4a 8d 34 17          	lea    (%rdi,%r10,1),%rsi
     1d8:	48 89 74 24 f0       	mov    %rsi,-0x10(%rsp)
     1dd:	48 8d 34 0f          	lea    (%rdi,%rcx,1),%rsi
     1e1:	48 89 74 24 f8       	mov    %rsi,-0x8(%rsp)
     1e6:	49 01 f8             	add    %rdi,%r8
     1e9:	48 01 fb             	add    %rdi,%rbx
     1ec:	41 0f b6 34 04       	movzbl (%r12,%rax,1),%esi
     1f1:	0f b6 0c 07          	movzbl (%rdi,%rax,1),%ecx
     1f5:	c1 e1 02             	shl    $0x2,%ecx
     1f8:	44 0f b6 14 02       	movzbl (%rdx,%rax,1),%r10d
     1fd:	44 29 d1             	sub    %r10d,%ecx
     200:	8d 0c 71             	lea    (%rcx,%rsi,2),%ecx
     203:	45 0f b6 14 06       	movzbl (%r14,%rax,1),%r10d
     208:	42 8d 0c 91          	lea    (%rcx,%r10,4),%ecx
     20c:	4c 8b 5c 24 e8       	mov    -0x18(%rsp),%r11
     211:	45 0f b6 14 03       	movzbl (%r11,%rax,1),%r10d
     216:	44 29 d1             	sub    %r10d,%ecx
     219:	83 c1 04             	add    $0x4,%ecx
     21c:	c1 f9 03             	sar    $0x3,%ecx
     21f:	41 89 ca             	mov    %ecx,%r10d
     222:	f7 c1 00 ff ff ff    	test   $0xffffff00,%ecx
     228:	74 08                	je     232 <deInterlaceFF_C+0xc6>
     22a:	f7 d9                	neg    %ecx
     22c:	c1 f9 1f             	sar    $0x1f,%ecx
     22f:	41 89 ca             	mov    %ecx,%r10d
     232:	45 88 14 04          	mov    %r10b,(%r12,%rax,1)
     236:	44 0f b6 54 05 00    	movzbl 0x0(%rbp,%rax,1),%r10d
     23c:	48 8b 4c 24 f0       	mov    -0x10(%rsp),%rcx
     241:	0f b6 0c 01          	movzbl (%rcx,%rax,1),%ecx
     245:	c1 e1 02             	shl    $0x2,%ecx
     248:	29 f1                	sub    %esi,%ecx
     24a:	42 8d 0c 51          	lea    (%rcx,%r10,2),%ecx
     24e:	42 8d 0c 91          	lea    (%rcx,%r10,4),%ecx
     252:	41 0f b6 34 01       	movzbl (%r9,%rax,1),%esi
     257:	29 f1                	sub    %esi,%ecx
     259:	83 c1 04             	add    $0x4,%ecx
     25c:	c1 f9 03             	sar    $0x3,%ecx
     25f:	89 ce                	mov    %ecx,%esi
     261:	f7 c1 00 ff ff ff    	test   $0xffffff00,%ecx
     267:	74 07                	je     270 <deInterlaceFF_C+0x104>
     269:	f7 d9                	neg    %ecx
     26b:	c1 f9 1f             	sar    $0x1f,%ecx
     26e:	89 ce                	mov    %ecx,%esi
     270:	48 8b 4c 24 f8       	mov    -0x8(%rsp),%rcx
     275:	40 88 34 01          	mov    %sil,(%rcx,%rax,1)
     279:	41 0f b6 34 00       	movzbl (%r8,%rax,1),%esi
     27e:	0f b6 4c 05 00       	movzbl 0x0(%rbp,%rax,1),%ecx
     283:	c1 e1 02             	shl    $0x2,%ecx
     286:	44 29 d1             	sub    %r10d,%ecx
     289:	8d 0c 71             	lea    (%rcx,%rsi,2),%ecx
     28c:	8d 0c b1             	lea    (%rcx,%rsi,4),%ecx
     28f:	44 0f b6 14 03       	movzbl (%rbx,%rax,1),%r10d
     294:	44 29 d1             	sub    %r10d,%ecx
     297:	83 c1 04             	add    $0x4,%ecx
     29a:	c1 f9 03             	sar    $0x3,%ecx
     29d:	41 89 ca             	mov    %ecx,%r10d
     2a0:	f7 c1 00 ff ff ff    	test   $0xffffff00,%ecx
     2a6:	74 08                	je     2b0 <deInterlaceFF_C+0x144>
     2a8:	f7 d9                	neg    %ecx
     2aa:	c1 f9 1f             	sar    $0x1f,%ecx
     2ad:	41 89 ca             	mov    %ecx,%r10d
     2b0:	45 88 14 01          	mov    %r10b,(%r9,%rax,1)
     2b4:	4a 8d 0c 3f          	lea    (%rdi,%r15,1),%rcx
     2b8:	44 0f b6 14 01       	movzbl (%rcx,%rax,1),%r10d
     2bd:	45 0f b6 da          	movzbl %r10b,%r11d
     2c1:	41 0f b6 0c 00       	movzbl (%r8,%rax,1),%ecx
     2c6:	c1 e1 02             	shl    $0x2,%ecx
     2c9:	29 f1                	sub    %esi,%ecx
     2cb:	42 8d 0c 59          	lea    (%rcx,%r11,2),%ecx
     2cf:	42 8d 0c 99          	lea    (%rcx,%r11,4),%ecx
     2d3:	4a 8d 34 2f          	lea    (%rdi,%r13,1),%rsi
     2d7:	0f b6 34 06          	movzbl (%rsi,%rax,1),%esi
     2db:	29 f1                	sub    %esi,%ecx
     2dd:	83 c1 04             	add    $0x4,%ecx
     2e0:	c1 f9 03             	sar    $0x3,%ecx
     2e3:	89 ce                	mov    %ecx,%esi
     2e5:	f7 c1 00 ff ff ff    	test   $0xffffff00,%ecx
     2eb:	74 07                	je     2f4 <deInterlaceFF_C+0x188>
     2ed:	f7 d9                	neg    %ecx
     2ef:	c1 f9 1f             	sar    $0x1f,%ecx
     2f2:	89 ce                	mov    %ecx,%esi
     2f4:	40 88 34 03          	mov    %sil,(%rbx,%rax,1)
     2f8:	44 88 14 02          	mov    %r10b,(%rdx,%rax,1)
     2fc:	48 83 c0 01          	add    $0x1,%rax
     300:	48 83 f8 08          	cmp    $0x8,%rax
     304:	0f 85 e2 fe ff ff    	jne    1ec <deInterlaceFF_C+0x80>
     30a:	5b                   	pop    %rbx
     30b:	5d                   	pop    %rbp
     30c:	41 5c                	pop    %r12
     30e:	41 5d                	pop    %r13
     310:	41 5e                	pop    %r14
     312:	41 5f                	pop    %r15
     314:	c3                   	retq   

0000000000000315 <deInterlaceL5_C>:
     315:	41 57                	push   %r15
     317:	41 56                	push   %r14
     319:	41 55                	push   %r13
     31b:	41 54                	push   %r12
     31d:	55                   	push   %rbp
     31e:	53                   	push   %rbx
     31f:	44 8d 0c b5 00 00 00 	lea    0x0(,%rsi,4),%r9d
     326:	00 
     327:	49 63 c1             	movslq %r9d,%rax
     32a:	48 89 44 24 b8       	mov    %rax,-0x48(%rsp)
     32f:	48 01 c7             	add    %rax,%rdi
     332:	8d 04 36             	lea    (%rsi,%rsi,1),%eax
     335:	4c 63 c0             	movslq %eax,%r8
     338:	01 f0                	add    %esi,%eax
     33a:	4c 63 e8             	movslq %eax,%r13
     33d:	41 01 f1             	add    %esi,%r9d
     340:	49 63 d9             	movslq %r9d,%rbx
     343:	48 89 5c 24 c0       	mov    %rbx,-0x40(%rsp)
     348:	01 c0                	add    %eax,%eax
     34a:	48 98                	cltq   
     34c:	48 89 44 24 c8       	mov    %rax,-0x38(%rsp)
     351:	8d 04 f5 00 00 00 00 	lea    0x0(,%rsi,8),%eax
     358:	29 f0                	sub    %esi,%eax
     35a:	48 98                	cltq   
     35c:	48 89 44 24 d0       	mov    %rax,-0x30(%rsp)
     361:	b8 00 00 00 00       	mov    $0x0,%eax
     366:	48 63 f6             	movslq %esi,%rsi
     369:	48 8d 2c 37          	lea    (%rdi,%rsi,1),%rbp
     36d:	48 8d 5c 35 00       	lea    0x0(%rbp,%rsi,1),%rbx
     372:	4c 8d 34 33          	lea    (%rbx,%rsi,1),%r14
     376:	4d 8d 3c 36          	lea    (%r14,%rsi,1),%r15
     37a:	4c 89 7c 24 d8       	mov    %r15,-0x28(%rsp)
     37f:	4e 8d 3c 07          	lea    (%rdi,%r8,1),%r15
     383:	4c 89 7c 24 e0       	mov    %r15,-0x20(%rsp)
     388:	49 01 f7             	add    %rsi,%r15
     38b:	4c 89 7c 24 e8       	mov    %r15,-0x18(%rsp)
     390:	49 01 f7             	add    %rsi,%r15
     393:	4c 89 7c 24 f0       	mov    %r15,-0x10(%rsp)
     398:	49 01 f7             	add    %rsi,%r15
     39b:	4c 89 7c 24 f8       	mov    %r15,-0x8(%rsp)
     3a0:	49 01 fd             	add    %rdi,%r13
     3a3:	44 0f b6 0c 01       	movzbl (%rcx,%rax,1),%r9d
     3a8:	44 0f b6 14 07       	movzbl (%rdi,%rax,1),%r10d
     3ad:	44 0f b6 44 05 00    	movzbl 0x0(%rbp,%rax,1),%r8d
     3b3:	45 01 c8             	add    %r9d,%r8d
     3b6:	45 01 c0             	add    %r8d,%r8d
     3b9:	44 0f b6 24 03       	movzbl (%rbx,%rax,1),%r12d
     3be:	44 0f b6 1c 02       	movzbl (%rdx,%rax,1),%r11d
     3c3:	45 01 e3             	add    %r12d,%r11d
     3c6:	45 29 d8             	sub    %r11d,%r8d
     3c9:	47 8d 1c 52          	lea    (%r10,%r10,2),%r11d
     3cd:	47 8d 44 58 04       	lea    0x4(%r8,%r11,2),%r8d
     3d2:	41 c1 f8 03          	sar    $0x3,%r8d
     3d6:	45 89 c3             	mov    %r8d,%r11d
     3d9:	41 f7 c0 00 ff ff ff 	test   $0xffffff00,%r8d
     3e0:	74 0a                	je     3ec <deInterlaceL5_C+0xd7>
     3e2:	41 f7 d8             	neg    %r8d
     3e5:	41 c1 f8 1f          	sar    $0x1f,%r8d
     3e9:	45 89 c3             	mov    %r8d,%r11d
     3ec:	44 88 1c 07          	mov    %r11b,(%rdi,%rax,1)
     3f0:	44 0f b6 5c 05 00    	movzbl 0x0(%rbp,%rax,1),%r11d
     3f6:	44 0f b6 04 03       	movzbl (%rbx,%rax,1),%r8d
     3fb:	45 01 d0             	add    %r10d,%r8d
     3fe:	45 01 c0             	add    %r8d,%r8d
     401:	45 0f b6 24 06       	movzbl (%r14,%rax,1),%r12d
     406:	45 01 e1             	add    %r12d,%r9d
     409:	45 29 c8             	sub    %r9d,%r8d
     40c:	47 8d 0c 5b          	lea    (%r11,%r11,2),%r9d
     410:	47 8d 44 48 04       	lea    0x4(%r8,%r9,2),%r8d
     415:	41 c1 f8 03          	sar    $0x3,%r8d
     419:	45 89 c1             	mov    %r8d,%r9d
     41c:	41 f7 c0 00 ff ff ff 	test   $0xffffff00,%r8d
     423:	74 0a                	je     42f <deInterlaceL5_C+0x11a>
     425:	41 f7 d8             	neg    %r8d
     428:	41 c1 f8 1f          	sar    $0x1f,%r8d
     42c:	45 89 c1             	mov    %r8d,%r9d
     42f:	44 88 4c 05 00       	mov    %r9b,0x0(%rbp,%rax,1)
     434:	44 0f b6 0c 03       	movzbl (%rbx,%rax,1),%r9d
     439:	45 0f b6 04 06       	movzbl (%r14,%rax,1),%r8d
     43e:	45 01 d8             	add    %r11d,%r8d
     441:	45 01 c0             	add    %r8d,%r8d
     444:	4c 8b 7c 24 d8       	mov    -0x28(%rsp),%r15
     449:	45 0f b6 24 07       	movzbl (%r15,%rax,1),%r12d
     44e:	45 01 e2             	add    %r12d,%r10d
     451:	45 29 d0             	sub    %r10d,%r8d
     454:	47 8d 14 49          	lea    (%r9,%r9,2),%r10d
     458:	47 8d 44 50 04       	lea    0x4(%r8,%r10,2),%r8d
     45d:	41 c1 f8 03          	sar    $0x3,%r8d
     461:	45 89 c2             	mov    %r8d,%r10d
     464:	41 f7 c0 00 ff ff ff 	test   $0xffffff00,%r8d
     46b:	74 0a                	je     477 <deInterlaceL5_C+0x162>
     46d:	41 f7 d8             	neg    %r8d
     470:	41 c1 f8 1f          	sar    $0x1f,%r8d
     474:	45 89 c2             	mov    %r8d,%r10d
     477:	4c 8b 7c 24 e0       	mov    -0x20(%rsp),%r15
     47c:	45 88 14 07          	mov    %r10b,(%r15,%rax,1)
     480:	4c 8b 7c 24 e8       	mov    -0x18(%rsp),%r15
     485:	45 0f b6 14 07       	movzbl (%r15,%rax,1),%r10d
     48a:	4c 8b 7c 24 f0       	mov    -0x10(%rsp),%r15
     48f:	45 0f b6 04 07       	movzbl (%r15,%rax,1),%r8d
     494:	45 01 c8             	add    %r9d,%r8d
     497:	45 01 c0             	add    %r8d,%r8d
     49a:	4c 8b 7c 24 f8       	mov    -0x8(%rsp),%r15
     49f:	45 0f b6 24 07       	movzbl (%r15,%rax,1),%r12d
     4a4:	45 01 e3             	add    %r12d,%r11d
     4a7:	45 29 d8             	sub    %r11d,%r8d
     4aa:	47 8d 1c 52          	lea    (%r10,%r10,2),%r11d
     4ae:	47 8d 44 58 04       	lea    0x4(%r8,%r11,2),%r8d
     4b3:	41 c1 f8 03          	sar    $0x3,%r8d
     4b7:	45 89 c3             	mov    %r8d,%r11d
     4ba:	41 f7 c0 00 ff ff ff 	test   $0xffffff00,%r8d
     4c1:	74 0a                	je     4cd <deInterlaceL5_C+0x1b8>
     4c3:	41 f7 d8             	neg    %r8d
     4c6:	41 c1 f8 1f          	sar    $0x1f,%r8d
     4ca:	45 89 c3             	mov    %r8d,%r11d
     4cd:	45 88 5c 05 00       	mov    %r11b,0x0(%r13,%rax,1)
     4d2:	4d 8d 44 35 00       	lea    0x0(%r13,%rsi,1),%r8
     4d7:	45 0f b6 3c 00       	movzbl (%r8,%rax,1),%r15d
     4dc:	49 01 f0             	add    %rsi,%r8
     4df:	45 0f b6 1c 00       	movzbl (%r8,%rax,1),%r11d
     4e4:	45 01 d3             	add    %r10d,%r11d
     4e7:	45 01 db             	add    %r11d,%r11d
     4ea:	49 01 f0             	add    %rsi,%r8
     4ed:	45 0f b6 04 00       	movzbl (%r8,%rax,1),%r8d
     4f2:	45 01 c1             	add    %r8d,%r9d
     4f5:	45 29 cb             	sub    %r9d,%r11d
     4f8:	47 8d 04 7f          	lea    (%r15,%r15,2),%r8d
     4fc:	47 8d 44 43 04       	lea    0x4(%r11,%r8,2),%r8d
     501:	41 c1 f8 03          	sar    $0x3,%r8d
     505:	45 89 c1             	mov    %r8d,%r9d
     508:	41 f7 c0 00 ff ff ff 	test   $0xffffff00,%r8d
     50f:	74 0a                	je     51b <deInterlaceL5_C+0x206>
     511:	41 f7 d8             	neg    %r8d
     514:	41 c1 f8 1f          	sar    $0x1f,%r8d
     518:	45 89 c1             	mov    %r8d,%r9d
     51b:	4c 8b 5c 24 b8       	mov    -0x48(%rsp),%r11
     520:	4e 8d 04 1f          	lea    (%rdi,%r11,1),%r8
     524:	45 88 0c 00          	mov    %r9b,(%r8,%rax,1)
     528:	49 01 f0             	add    %rsi,%r8
     52b:	45 0f b6 1c 00       	movzbl (%r8,%rax,1),%r11d
     530:	49 01 f0             	add    %rsi,%r8
     533:	45 0f b6 0c 00       	movzbl (%r8,%rax,1),%r9d
     538:	45 01 f9             	add    %r15d,%r9d
     53b:	45 01 c9             	add    %r9d,%r9d
     53e:	49 01 f0             	add    %rsi,%r8
     541:	45 0f b6 04 00       	movzbl (%r8,%rax,1),%r8d
     546:	45 01 c2             	add    %r8d,%r10d
     549:	45 29 d1             	sub    %r10d,%r9d
     54c:	47 8d 04 5b          	lea    (%r11,%r11,2),%r8d
     550:	47 8d 44 41 04       	lea    0x4(%r9,%r8,2),%r8d
     555:	41 c1 f8 03          	sar    $0x3,%r8d
     559:	45 89 c1             	mov    %r8d,%r9d
     55c:	41 f7 c0 00 ff ff ff 	test   $0xffffff00,%r8d
     563:	74 0a                	je     56f <deInterlaceL5_C+0x25a>
     565:	41 f7 d8             	neg    %r8d
     568:	41 c1 f8 1f          	sar    $0x1f,%r8d
     56c:	45 89 c1             	mov    %r8d,%r9d
     56f:	4c 8b 54 24 c0       	mov    -0x40(%rsp),%r10
     574:	4e 8d 04 17          	lea    (%rdi,%r10,1),%r8
     578:	45 88 0c 00          	mov    %r9b,(%r8,%rax,1)
     57c:	49 01 f0             	add    %rsi,%r8
     57f:	45 0f b6 24 00       	movzbl (%r8,%rax,1),%r12d
     584:	45 0f b6 cc          	movzbl %r12b,%r9d
     588:	49 01 f0             	add    %rsi,%r8
     58b:	45 0f b6 14 00       	movzbl (%r8,%rax,1),%r10d
     590:	45 01 da             	add    %r11d,%r10d
     593:	45 01 d2             	add    %r10d,%r10d
     596:	49 01 f0             	add    %rsi,%r8
     599:	45 0f b6 04 00       	movzbl (%r8,%rax,1),%r8d
     59e:	45 01 c7             	add    %r8d,%r15d
     5a1:	45 29 fa             	sub    %r15d,%r10d
     5a4:	47 8d 04 49          	lea    (%r9,%r9,2),%r8d
     5a8:	47 8d 44 42 04       	lea    0x4(%r10,%r8,2),%r8d
     5ad:	41 c1 f8 03          	sar    $0x3,%r8d
     5b1:	45 89 c2             	mov    %r8d,%r10d
     5b4:	41 f7 c0 00 ff ff ff 	test   $0xffffff00,%r8d
     5bb:	74 0a                	je     5c7 <deInterlaceL5_C+0x2b2>
     5bd:	41 f7 d8             	neg    %r8d
     5c0:	41 c1 f8 1f          	sar    $0x1f,%r8d
     5c4:	45 89 c2             	mov    %r8d,%r10d
     5c7:	4c 8b 7c 24 c8       	mov    -0x38(%rsp),%r15
     5cc:	4e 8d 04 3f          	lea    (%rdi,%r15,1),%r8
     5d0:	45 88 14 00          	mov    %r10b,(%r8,%rax,1)
     5d4:	49 01 f0             	add    %rsi,%r8
     5d7:	45 0f b6 14 00       	movzbl (%r8,%rax,1),%r10d
     5dc:	49 01 f0             	add    %rsi,%r8
     5df:	45 0f b6 3c 00       	movzbl (%r8,%rax,1),%r15d
     5e4:	45 01 f9             	add    %r15d,%r9d
     5e7:	45 01 c9             	add    %r9d,%r9d
     5ea:	49 01 f0             	add    %rsi,%r8
     5ed:	45 0f b6 04 00       	movzbl (%r8,%rax,1),%r8d
     5f2:	45 01 c3             	add    %r8d,%r11d
     5f5:	45 29 d9             	sub    %r11d,%r9d
     5f8:	45 0f b6 c2          	movzbl %r10b,%r8d
     5fc:	47 8d 04 40          	lea    (%r8,%r8,2),%r8d
     600:	47 8d 44 41 04       	lea    0x4(%r9,%r8,2),%r8d
     605:	41 c1 f8 03          	sar    $0x3,%r8d
     609:	45 89 c1             	mov    %r8d,%r9d
     60c:	41 f7 c0 00 ff ff ff 	test   $0xffffff00,%r8d
     613:	74 0a                	je     61f <deInterlaceL5_C+0x30a>
     615:	41 f7 d8             	neg    %r8d
     618:	41 c1 f8 1f          	sar    $0x1f,%r8d
     61c:	45 89 c1             	mov    %r8d,%r9d
     61f:	4c 8b 7c 24 d0       	mov    -0x30(%rsp),%r15
     624:	4e 8d 04 3f          	lea    (%rdi,%r15,1),%r8
     628:	45 88 0c 00          	mov    %r9b,(%r8,%rax,1)
     62c:	44 88 24 02          	mov    %r12b,(%rdx,%rax,1)
     630:	44 88 14 01          	mov    %r10b,(%rcx,%rax,1)
     634:	48 83 c0 01          	add    $0x1,%rax
     638:	48 83 f8 08          	cmp    $0x8,%rax
     63c:	0f 85 61 fd ff ff    	jne    3a3 <deInterlaceL5_C+0x8e>
     642:	5b                   	pop    %rbx
     643:	5d                   	pop    %rbp
     644:	41 5c                	pop    %r12
     646:	41 5d                	pop    %r13
     648:	41 5e                	pop    %r14
     64a:	41 5f                	pop    %r15
     64c:	c3                   	retq   

000000000000064d <deInterlaceBlendLinear_C>:
     64d:	41 57                	push   %r15
     64f:	41 56                	push   %r14
     651:	41 55                	push   %r13
     653:	41 54                	push   %r12
     655:	55                   	push   %rbp
     656:	53                   	push   %rbx
     657:	44 8d 0c b5 00 00 00 	lea    0x0(,%rsi,4),%r9d
     65e:	00 
     65f:	49 63 e9             	movslq %r9d,%rbp
     662:	48 01 ef             	add    %rbp,%rdi
     665:	8d 0c 36             	lea    (%rsi,%rsi,1),%ecx
     668:	4c 63 e9             	movslq %ecx,%r13
     66b:	01 f1                	add    %esi,%ecx
     66d:	4c 63 e1             	movslq %ecx,%r12
     670:	41 01 f1             	add    %esi,%r9d
     673:	4d 63 c9             	movslq %r9d,%r9
     676:	01 c9                	add    %ecx,%ecx
     678:	48 63 c9             	movslq %ecx,%rcx
     67b:	8d 1c f5 00 00 00 00 	lea    0x0(,%rsi,8),%ebx
     682:	41 89 db             	mov    %ebx,%r11d
     685:	41 29 f3             	sub    %esi,%r11d
     688:	4d 63 db             	movslq %r11d,%r11
     68b:	48 63 db             	movslq %ebx,%rbx
     68e:	4c 8d 77 08          	lea    0x8(%rdi),%r14
     692:	48 63 f6             	movslq %esi,%rsi
     695:	44 8b 07             	mov    (%rdi),%r8d
     698:	8b 04 37             	mov    (%rdi,%rsi,1),%eax
     69b:	41 89 c2             	mov    %eax,%r10d
     69e:	44 33 12             	xor    (%rdx),%r10d
     6a1:	41 81 e2 fe fe fe fe 	and    $0xfefefefe,%r10d
     6a8:	4d 89 d7             	mov    %r10,%r15
     6ab:	49 d1 ef             	shr    %r15
     6ae:	41 89 c2             	mov    %eax,%r10d
     6b1:	44 23 12             	and    (%rdx),%r10d
     6b4:	45 01 fa             	add    %r15d,%r10d
     6b7:	45 89 d7             	mov    %r10d,%r15d
     6ba:	45 09 c7             	or     %r8d,%r15d
     6bd:	45 31 c2             	xor    %r8d,%r10d
     6c0:	41 81 e2 fe fe fe fe 	and    $0xfefefefe,%r10d
     6c7:	49 d1 ea             	shr    %r10
     6ca:	45 29 d7             	sub    %r10d,%r15d
     6cd:	44 89 3f             	mov    %r15d,(%rdi)
     6d0:	46 8b 14 2f          	mov    (%rdi,%r13,1),%r10d
     6d4:	45 89 d7             	mov    %r10d,%r15d
     6d7:	45 31 c7             	xor    %r8d,%r15d
     6da:	41 81 e7 fe fe fe fe 	and    $0xfefefefe,%r15d
     6e1:	49 d1 ef             	shr    %r15
     6e4:	45 21 d0             	and    %r10d,%r8d
     6e7:	45 01 f8             	add    %r15d,%r8d
     6ea:	45 89 c7             	mov    %r8d,%r15d
     6ed:	41 09 c7             	or     %eax,%r15d
     6f0:	41 31 c0             	xor    %eax,%r8d
     6f3:	41 81 e0 fe fe fe fe 	and    $0xfefefefe,%r8d
     6fa:	49 d1 e8             	shr    %r8
     6fd:	45 29 c7             	sub    %r8d,%r15d
     700:	44 89 3c 37          	mov    %r15d,(%rdi,%rsi,1)
     704:	46 8b 04 27          	mov    (%rdi,%r12,1),%r8d
     708:	45 89 c7             	mov    %r8d,%r15d
     70b:	41 31 c7             	xor    %eax,%r15d
     70e:	41 81 e7 fe fe fe fe 	and    $0xfefefefe,%r15d
     715:	49 d1 ef             	shr    %r15
     718:	44 21 c0             	and    %r8d,%eax
     71b:	44 01 f8             	add    %r15d,%eax
     71e:	41 89 c7             	mov    %eax,%r15d
     721:	45 09 d7             	or     %r10d,%r15d
     724:	44 31 d0             	xor    %r10d,%eax
     727:	25 fe fe fe fe       	and    $0xfefefefe,%eax
     72c:	48 d1 e8             	shr    %rax
     72f:	41 29 c7             	sub    %eax,%r15d
     732:	46 89 3c 2f          	mov    %r15d,(%rdi,%r13,1)
     736:	8b 04 2f             	mov    (%rdi,%rbp,1),%eax
     739:	41 89 c7             	mov    %eax,%r15d
     73c:	45 31 d7             	xor    %r10d,%r15d
     73f:	41 81 e7 fe fe fe fe 	and    $0xfefefefe,%r15d
     746:	49 d1 ef             	shr    %r15
     749:	41 21 c2             	and    %eax,%r10d
     74c:	45 01 fa             	add    %r15d,%r10d
     74f:	45 89 d7             	mov    %r10d,%r15d
     752:	45 09 c7             	or     %r8d,%r15d
     755:	45 31 c2             	xor    %r8d,%r10d
     758:	41 81 e2 fe fe fe fe 	and    $0xfefefefe,%r10d
     75f:	49 d1 ea             	shr    %r10
     762:	45 29 d7             	sub    %r10d,%r15d
     765:	46 89 3c 27          	mov    %r15d,(%rdi,%r12,1)
     769:	46 8b 14 0f          	mov    (%rdi,%r9,1),%r10d
     76d:	45 89 d7             	mov    %r10d,%r15d
     770:	45 31 c7             	xor    %r8d,%r15d
     773:	41 81 e7 fe fe fe fe 	and    $0xfefefefe,%r15d
     77a:	49 d1 ef             	shr    %r15
     77d:	45 21 d0             	and    %r10d,%r8d
     780:	45 01 f8             	add    %r15d,%r8d
     783:	45 89 c7             	mov    %r8d,%r15d
     786:	41 09 c7             	or     %eax,%r15d
     789:	41 31 c0             	xor    %eax,%r8d
     78c:	41 81 e0 fe fe fe fe 	and    $0xfefefefe,%r8d
     793:	49 d1 e8             	shr    %r8
     796:	45 29 c7             	sub    %r8d,%r15d
     799:	44 89 3c 2f          	mov    %r15d,(%rdi,%rbp,1)
     79d:	44 8b 3c 0f          	mov    (%rdi,%rcx,1),%r15d
     7a1:	45 89 f8             	mov    %r15d,%r8d
     7a4:	41 31 c0             	xor    %eax,%r8d
     7a7:	41 81 e0 fe fe fe fe 	and    $0xfefefefe,%r8d
     7ae:	49 d1 e8             	shr    %r8
     7b1:	44 21 f8             	and    %r15d,%eax
     7b4:	44 01 c0             	add    %r8d,%eax
     7b7:	41 89 c0             	mov    %eax,%r8d
     7ba:	45 09 d0             	or     %r10d,%r8d
     7bd:	44 31 d0             	xor    %r10d,%eax
     7c0:	25 fe fe fe fe       	and    $0xfefefefe,%eax
     7c5:	48 d1 e8             	shr    %rax
     7c8:	41 29 c0             	sub    %eax,%r8d
     7cb:	46 89 04 0f          	mov    %r8d,(%rdi,%r9,1)
     7cf:	46 8b 04 1f          	mov    (%rdi,%r11,1),%r8d
     7d3:	44 89 c0             	mov    %r8d,%eax
     7d6:	44 31 d0             	xor    %r10d,%eax
     7d9:	25 fe fe fe fe       	and    $0xfefefefe,%eax
     7de:	48 d1 e8             	shr    %rax
     7e1:	45 21 c2             	and    %r8d,%r10d
     7e4:	41 01 c2             	add    %eax,%r10d
     7e7:	44 89 d0             	mov    %r10d,%eax
     7ea:	44 09 f8             	or     %r15d,%eax
     7ed:	45 31 fa             	xor    %r15d,%r10d
     7f0:	41 81 e2 fe fe fe fe 	and    $0xfefefefe,%r10d
     7f7:	49 d1 ea             	shr    %r10
     7fa:	44 29 d0             	sub    %r10d,%eax
     7fd:	89 04 0f             	mov    %eax,(%rdi,%rcx,1)
     800:	8b 04 1f             	mov    (%rdi,%rbx,1),%eax
     803:	41 89 c2             	mov    %eax,%r10d
     806:	45 31 fa             	xor    %r15d,%r10d
     809:	41 81 e2 fe fe fe fe 	and    $0xfefefefe,%r10d
     810:	49 d1 ea             	shr    %r10
     813:	41 21 c7             	and    %eax,%r15d
     816:	43 8d 04 17          	lea    (%r15,%r10,1),%eax
     81a:	41 89 c2             	mov    %eax,%r10d
     81d:	45 09 c2             	or     %r8d,%r10d
     820:	44 31 c0             	xor    %r8d,%eax
     823:	25 fe fe fe fe       	and    $0xfefefefe,%eax
     828:	48 d1 e8             	shr    %rax
     82b:	41 29 c2             	sub    %eax,%r10d
     82e:	46 89 14 1f          	mov    %r10d,(%rdi,%r11,1)
     832:	44 89 02             	mov    %r8d,(%rdx)
     835:	48 83 c7 04          	add    $0x4,%rdi
     839:	48 83 c2 04          	add    $0x4,%rdx
     83d:	4c 39 f7             	cmp    %r14,%rdi
     840:	0f 85 4f fe ff ff    	jne    695 <deInterlaceBlendLinear_C+0x48>
     846:	5b                   	pop    %rbx
     847:	5d                   	pop    %rbp
     848:	41 5c                	pop    %r12
     84a:	41 5d                	pop    %r13
     84c:	41 5e                	pop    %r14
     84e:	41 5f                	pop    %r15
     850:	c3                   	retq   

0000000000000851 <doVertLowPass_MMX>:
     851:	41 57                	push   %r15
     853:	41 56                	push   %r14
     855:	41 55                	push   %r13
     857:	41 54                	push   %r12
     859:	55                   	push   %rbp
     85a:	53                   	push   %rbx
     85b:	48 89 54 24 e8       	mov    %rdx,-0x18(%rsp)
     860:	8d 2c 36             	lea    (%rsi,%rsi,1),%ebp
     863:	44 8d 14 2e          	lea    (%rsi,%rbp,1),%r10d
     867:	46 8d 0c 16          	lea    (%rsi,%r10,1),%r9d
     86b:	42 8d 0c 0e          	lea    (%rsi,%r9,1),%ecx
     86f:	8d 14 0e             	lea    (%rsi,%rcx,1),%edx
     872:	8d 04 16             	lea    (%rsi,%rdx,1),%eax
     875:	8d 1c 06             	lea    (%rsi,%rax,1),%ebx
     878:	44 8d 1c 1e          	lea    (%rsi,%rbx,1),%r11d
     87c:	4d 63 c2             	movslq %r10d,%r8
     87f:	4c 01 c7             	add    %r8,%rdi
     882:	4c 63 c5             	movslq %ebp,%r8
     885:	4d 89 c6             	mov    %r8,%r14
     888:	4c 89 44 24 d8       	mov    %r8,-0x28(%rsp)
     88d:	49 01 f8             	add    %rdi,%r8
     890:	4a 8d 7c 37 08       	lea    0x8(%rdi,%r14,1),%rdi
     895:	48 89 7c 24 e0       	mov    %rdi,-0x20(%rsp)
     89a:	49 f7 de             	neg    %r14
     89d:	4c 89 74 24 f0       	mov    %r14,-0x10(%rsp)
     8a2:	48 63 fe             	movslq %esi,%rdi
     8a5:	48 89 7c 24 a0       	mov    %rdi,-0x60(%rsp)
     8aa:	48 63 db             	movslq %ebx,%rbx
     8ad:	48 89 5c 24 a8       	mov    %rbx,-0x58(%rsp)
     8b2:	49 63 db             	movslq %r11d,%rbx
     8b5:	48 89 5c 24 f8       	mov    %rbx,-0x8(%rsp)
     8ba:	49 63 da             	movslq %r10d,%rbx
     8bd:	48 89 5c 24 b0       	mov    %rbx,-0x50(%rsp)
     8c2:	49 63 d9             	movslq %r9d,%rbx
     8c5:	48 89 5c 24 b8       	mov    %rbx,-0x48(%rsp)
     8ca:	48 63 c9             	movslq %ecx,%rcx
     8cd:	48 89 4c 24 c0       	mov    %rcx,-0x40(%rsp)
     8d2:	48 63 ca             	movslq %edx,%rcx
     8d5:	48 89 4c 24 c8       	mov    %rcx,-0x38(%rsp)
     8da:	48 63 e8             	movslq %eax,%rbp
     8dd:	48 8b 44 24 f0       	mov    -0x10(%rsp),%rax
     8e2:	41 0f b6 14 00       	movzbl (%r8,%rax,1),%edx
     8e7:	4c 89 c0             	mov    %r8,%rax
     8ea:	48 2b 44 24 d8       	sub    -0x28(%rsp),%rax
     8ef:	48 8b 5c 24 a0       	mov    -0x60(%rsp),%rbx
     8f4:	44 0f b6 14 18       	movzbl (%rax,%rbx,1),%r10d
     8f9:	48 8b 4c 24 e8       	mov    -0x18(%rsp),%rcx
     8fe:	8b b9 98 04 00 00    	mov    0x498(%rcx),%edi
     904:	89 d1                	mov    %edx,%ecx
     906:	44 29 d1             	sub    %r10d,%ecx
     909:	89 ce                	mov    %ecx,%esi
     90b:	c1 fe 1f             	sar    $0x1f,%esi
     90e:	31 f1                	xor    %esi,%ecx
     910:	29 f1                	sub    %esi,%ecx
     912:	39 f9                	cmp    %edi,%ecx
     914:	41 0f 4d d2          	cmovge %r10d,%edx
     918:	48 8b 5c 24 a8       	mov    -0x58(%rsp),%rbx
     91d:	0f b6 1c 18          	movzbl (%rax,%rbx,1),%ebx
     921:	48 8b 4c 24 f8       	mov    -0x8(%rsp),%rcx
     926:	0f b6 0c 08          	movzbl (%rax,%rcx,1),%ecx
     92a:	89 de                	mov    %ebx,%esi
     92c:	29 ce                	sub    %ecx,%esi
     92e:	41 89 f1             	mov    %esi,%r9d
     931:	41 c1 f9 1f          	sar    $0x1f,%r9d
     935:	44 31 ce             	xor    %r9d,%esi
     938:	44 29 ce             	sub    %r9d,%esi
     93b:	39 f7                	cmp    %esi,%edi
     93d:	0f 4e cb             	cmovle %ebx,%ecx
     940:	45 0f b6 30          	movzbl (%r8),%r14d
     944:	48 8b 7c 24 b0       	mov    -0x50(%rsp),%rdi
     949:	44 0f b6 2c 38       	movzbl (%rax,%rdi,1),%r13d
     94e:	41 8d 34 92          	lea    (%r10,%rdx,4),%esi
     952:	44 01 f6             	add    %r14d,%esi
     955:	45 8d 5c 35 04       	lea    0x4(%r13,%rsi,1),%r11d
     95a:	48 8b 74 24 b8       	mov    -0x48(%rsp),%rsi
     95f:	44 0f b6 24 30       	movzbl (%rax,%rsi,1),%r12d
     964:	45 89 d9             	mov    %r11d,%r9d
     967:	41 29 d1             	sub    %edx,%r9d
     96a:	45 01 e1             	add    %r12d,%r9d
     96d:	4c 8b 7c 24 c0       	mov    -0x40(%rsp),%r15
     972:	42 0f b6 34 38       	movzbl (%rax,%r15,1),%esi
     977:	45 89 cf             	mov    %r9d,%r15d
     97a:	41 29 d7             	sub    %edx,%r15d
     97d:	44 89 ff             	mov    %r15d,%edi
     980:	89 74 24 d4          	mov    %esi,-0x2c(%rsp)
     984:	01 f7                	add    %esi,%edi
     986:	41 89 ff             	mov    %edi,%r15d
     989:	41 29 d7             	sub    %edx,%r15d
     98c:	48 8b 74 24 c8       	mov    -0x38(%rsp),%rsi
     991:	0f b6 34 30          	movzbl (%rax,%rsi,1),%esi
     995:	44 01 fe             	add    %r15d,%esi
     998:	41 89 f7             	mov    %esi,%r15d
     99b:	41 29 d7             	sub    %edx,%r15d
     99e:	0f b6 14 28          	movzbl (%rax,%rbp,1),%edx
     9a2:	41 01 d7             	add    %edx,%r15d
     9a5:	44 89 fa             	mov    %r15d,%edx
     9a8:	44 29 d2             	sub    %r10d,%edx
     9ab:	01 da                	add    %ebx,%edx
     9ad:	89 d3                	mov    %edx,%ebx
     9af:	44 29 f3             	sub    %r14d,%ebx
     9b2:	41 89 de             	mov    %ebx,%r14d
     9b5:	41 01 ce             	add    %ecx,%r14d
     9b8:	44 89 f3             	mov    %r14d,%ebx
     9bb:	44 29 eb             	sub    %r13d,%ebx
     9be:	41 89 dd             	mov    %ebx,%r13d
     9c1:	41 01 cd             	add    %ecx,%r13d
     9c4:	44 89 eb             	mov    %r13d,%ebx
     9c7:	44 29 e3             	sub    %r12d,%ebx
     9ca:	41 89 dc             	mov    %ebx,%r12d
     9cd:	41 01 cc             	add    %ecx,%r12d
     9d0:	41 01 fb             	add    %edi,%r11d
     9d3:	47 8d 14 53          	lea    (%r11,%r10,2),%r10d
     9d7:	41 c1 fa 04          	sar    $0x4,%r10d
     9db:	4c 8b 5c 24 a0       	mov    -0x60(%rsp),%r11
     9e0:	46 88 14 18          	mov    %r10b,(%rax,%r11,1)
     9e4:	41 01 f1             	add    %esi,%r9d
     9e7:	45 0f b6 10          	movzbl (%r8),%r10d
     9eb:	47 8d 0c 51          	lea    (%r9,%r10,2),%r9d
     9ef:	41 c1 f9 04          	sar    $0x4,%r9d
     9f3:	45 88 08             	mov    %r9b,(%r8)
     9f6:	44 01 ff             	add    %r15d,%edi
     9f9:	4c 8b 5c 24 b0       	mov    -0x50(%rsp),%r11
     9fe:	46 0f b6 0c 18       	movzbl (%rax,%r11,1),%r9d
     a03:	42 8d 3c 4f          	lea    (%rdi,%r9,2),%edi
     a07:	c1 ff 04             	sar    $0x4,%edi
     a0a:	42 88 3c 18          	mov    %dil,(%rax,%r11,1)
     a0e:	01 d6                	add    %edx,%esi
     a10:	4c 8b 5c 24 b8       	mov    -0x48(%rsp),%r11
     a15:	42 0f b6 3c 18       	movzbl (%rax,%r11,1),%edi
     a1a:	8d 34 7e             	lea    (%rsi,%rdi,2),%esi
     a1d:	c1 fe 04             	sar    $0x4,%esi
     a20:	42 88 34 18          	mov    %sil,(%rax,%r11,1)
     a24:	45 01 f7             	add    %r14d,%r15d
     a27:	48 8b 7c 24 c0       	mov    -0x40(%rsp),%rdi
     a2c:	0f b6 34 38          	movzbl (%rax,%rdi,1),%esi
     a30:	41 8d 34 77          	lea    (%r15,%rsi,2),%esi
     a34:	c1 fe 04             	sar    $0x4,%esi
     a37:	40 88 34 38          	mov    %sil,(%rax,%rdi,1)
     a3b:	44 01 ea             	add    %r13d,%edx
     a3e:	48 8b 7c 24 c8       	mov    -0x38(%rsp),%rdi
     a43:	0f b6 34 38          	movzbl (%rax,%rdi,1),%esi
     a47:	8d 14 72             	lea    (%rdx,%rsi,2),%edx
     a4a:	c1 fa 04             	sar    $0x4,%edx
     a4d:	88 14 38             	mov    %dl,(%rax,%rdi,1)
     a50:	45 01 e6             	add    %r12d,%r14d
     a53:	0f b6 14 28          	movzbl (%rax,%rbp,1),%edx
     a57:	41 8d 14 56          	lea    (%r14,%rdx,2),%edx
     a5b:	c1 fa 04             	sar    $0x4,%edx
     a5e:	88 14 28             	mov    %dl,(%rax,%rbp,1)
     a61:	44 2b 64 24 d4       	sub    -0x2c(%rsp),%r12d
     a66:	41 01 cc             	add    %ecx,%r12d
     a69:	45 01 e5             	add    %r12d,%r13d
     a6c:	48 8b 5c 24 a8       	mov    -0x58(%rsp),%rbx
     a71:	0f b6 14 18          	movzbl (%rax,%rbx,1),%edx
     a75:	41 8d 54 55 00       	lea    0x0(%r13,%rdx,2),%edx
     a7a:	c1 fa 04             	sar    $0x4,%edx
     a7d:	88 14 18             	mov    %dl,(%rax,%rbx,1)
     a80:	49 83 c0 01          	add    $0x1,%r8
     a84:	4c 3b 44 24 e0       	cmp    -0x20(%rsp),%r8
     a89:	0f 85 4e fe ff ff    	jne    8dd <doVertLowPass_MMX+0x8c>
     a8f:	5b                   	pop    %rbx
     a90:	5d                   	pop    %rbp
     a91:	41 5c                	pop    %r12
     a93:	41 5d                	pop    %r13
     a95:	41 5e                	pop    %r14
     a97:	41 5f                	pop    %r15
     a99:	c3                   	retq   

0000000000000a9a <doVertDefFilter_MMX>:
     a9a:	8d 04 b5 00 00 00 00 	lea    0x0(,%rsi,4),%eax
     aa1:	48 98                	cltq   
     aa3:	48 01 c7             	add    %rax,%rdi
     aa6:	48 63 f6             	movslq %esi,%rsi
     aa9:	48 8d 4c 24 e0       	lea    -0x20(%rsp),%rcx
     aae:	0f ef ff             	pxor   %mm7,%mm7
     ab1:	0f 6f 07             	movq   (%rdi),%mm0
     ab4:	0f 6f c8             	movq   %mm0,%mm1
     ab7:	0f 60 c7             	punpcklbw %mm7,%mm0
     aba:	0f 68 cf             	punpckhbw %mm7,%mm1
     abd:	0f 6f 14 37          	movq   (%rdi,%rsi,1),%mm2
     ac1:	48 8d 04 77          	lea    (%rdi,%rsi,2),%rax
     ac5:	0f 6f da             	movq   %mm2,%mm3
     ac8:	0f 60 d7             	punpcklbw %mm7,%mm2
     acb:	0f 68 df             	punpckhbw %mm7,%mm3
     ace:	0f 6f 20             	movq   (%rax),%mm4
     ad1:	0f 6f ec             	movq   %mm4,%mm5
     ad4:	0f 60 e7             	punpcklbw %mm7,%mm4
     ad7:	0f 68 ef             	punpckhbw %mm7,%mm5
     ada:	0f fd c0             	paddw  %mm0,%mm0
     add:	0f fd c9             	paddw  %mm1,%mm1
     ae0:	0f f9 d4             	psubw  %mm4,%mm2
     ae3:	0f f9 dd             	psubw  %mm5,%mm3
     ae6:	0f f9 c2             	psubw  %mm2,%mm0
     ae9:	0f f9 cb             	psubw  %mm3,%mm1
     aec:	0f 71 f2 02          	psllw  $0x2,%mm2
     af0:	0f 71 f3 02          	psllw  $0x2,%mm3
     af4:	0f f9 c2             	psubw  %mm2,%mm0
     af7:	0f f9 cb             	psubw  %mm3,%mm1
     afa:	0f 6f 14 30          	movq   (%rax,%rsi,1),%mm2
     afe:	0f 6f da             	movq   %mm2,%mm3
     b01:	0f 60 d7             	punpcklbw %mm7,%mm2
     b04:	0f 68 df             	punpckhbw %mm7,%mm3
     b07:	0f f9 c2             	psubw  %mm2,%mm0
     b0a:	0f f9 cb             	psubw  %mm3,%mm1
     b0d:	0f f9 c2             	psubw  %mm2,%mm0
     b10:	0f f9 cb             	psubw  %mm3,%mm1
     b13:	0f 7f 01             	movq   %mm0,(%rcx)
     b16:	0f 7f 49 08          	movq   %mm1,0x8(%rcx)
     b1a:	0f 6f 04 70          	movq   (%rax,%rsi,2),%mm0
     b1e:	0f 6f c8             	movq   %mm0,%mm1
     b21:	0f 60 c7             	punpcklbw %mm7,%mm0
     b24:	0f 68 cf             	punpckhbw %mm7,%mm1
     b27:	0f f9 d0             	psubw  %mm0,%mm2
     b2a:	0f f9 d9             	psubw  %mm1,%mm3
     b2d:	0f 7f 51 10          	movq   %mm2,0x10(%rcx)
     b31:	0f 7f 59 18          	movq   %mm3,0x18(%rcx)
     b35:	0f fd e4             	paddw  %mm4,%mm4
     b38:	0f fd ed             	paddw  %mm5,%mm5
     b3b:	0f f9 e2             	psubw  %mm2,%mm4
     b3e:	0f f9 eb             	psubw  %mm3,%mm5
     b41:	48 8d 3c 30          	lea    (%rax,%rsi,1),%rdi
     b45:	0f 71 f2 02          	psllw  $0x2,%mm2
     b49:	0f 71 f3 02          	psllw  $0x2,%mm3
     b4d:	0f f9 e2             	psubw  %mm2,%mm4
     b50:	0f f9 eb             	psubw  %mm3,%mm5
     b53:	0f 6f 14 77          	movq   (%rdi,%rsi,2),%mm2
     b57:	0f 6f da             	movq   %mm2,%mm3
     b5a:	0f 60 d7             	punpcklbw %mm7,%mm2
     b5d:	0f 68 df             	punpckhbw %mm7,%mm3
     b60:	0f f9 e2             	psubw  %mm2,%mm4
     b63:	0f f9 eb             	psubw  %mm3,%mm5
     b66:	0f f9 e2             	psubw  %mm2,%mm4
     b69:	0f f9 eb             	psubw  %mm3,%mm5
     b6c:	0f 6f 34 b0          	movq   (%rax,%rsi,4),%mm6
     b70:	0f 60 f7             	punpcklbw %mm7,%mm6
     b73:	0f f9 d6             	psubw  %mm6,%mm2
     b76:	0f 6f 34 b0          	movq   (%rax,%rsi,4),%mm6
     b7a:	0f 68 f7             	punpckhbw %mm7,%mm6
     b7d:	0f f9 de             	psubw  %mm6,%mm3
     b80:	0f fd c0             	paddw  %mm0,%mm0
     b83:	0f fd c9             	paddw  %mm1,%mm1
     b86:	0f f9 c2             	psubw  %mm2,%mm0
     b89:	0f f9 cb             	psubw  %mm3,%mm1
     b8c:	0f 71 f2 02          	psllw  $0x2,%mm2
     b90:	0f 71 f3 02          	psllw  $0x2,%mm3
     b94:	0f f9 c2             	psubw  %mm2,%mm0
     b97:	0f f9 cb             	psubw  %mm3,%mm1
     b9a:	0f 6f 14 b7          	movq   (%rdi,%rsi,4),%mm2
     b9e:	0f 6f da             	movq   %mm2,%mm3
     ba1:	0f 60 d7             	punpcklbw %mm7,%mm2
     ba4:	0f 68 df             	punpckhbw %mm7,%mm3
     ba7:	0f fd d2             	paddw  %mm2,%mm2
     baa:	0f fd db             	paddw  %mm3,%mm3
     bad:	0f f9 c2             	psubw  %mm2,%mm0
     bb0:	0f f9 cb             	psubw  %mm3,%mm1
     bb3:	0f 6f 11             	movq   (%rcx),%mm2
     bb6:	0f 6f 59 08          	movq   0x8(%rcx),%mm3
     bba:	0f 6f f7             	movq   %mm7,%mm6
     bbd:	0f 65 f0             	pcmpgtw %mm0,%mm6
     bc0:	0f ef c6             	pxor   %mm6,%mm0
     bc3:	0f f9 c6             	psubw  %mm6,%mm0
     bc6:	0f 6f f7             	movq   %mm7,%mm6
     bc9:	0f 65 f1             	pcmpgtw %mm1,%mm6
     bcc:	0f ef ce             	pxor   %mm6,%mm1
     bcf:	0f f9 ce             	psubw  %mm6,%mm1
     bd2:	0f 6f f7             	movq   %mm7,%mm6
     bd5:	0f 65 f2             	pcmpgtw %mm2,%mm6
     bd8:	0f ef d6             	pxor   %mm6,%mm2
     bdb:	0f f9 d6             	psubw  %mm6,%mm2
     bde:	0f 6f f7             	movq   %mm7,%mm6
     be1:	0f 65 f3             	pcmpgtw %mm3,%mm6
     be4:	0f ef de             	pxor   %mm6,%mm3
     be7:	0f f9 de             	psubw  %mm6,%mm3
     bea:	0f 6f f0             	movq   %mm0,%mm6
     bed:	0f d9 f2             	psubusw %mm2,%mm6
     bf0:	0f f9 c6             	psubw  %mm6,%mm0
     bf3:	0f 6f f1             	movq   %mm1,%mm6
     bf6:	0f d9 f3             	psubusw %mm3,%mm6
     bf9:	0f f9 ce             	psubw  %mm6,%mm1
     bfc:	0f 6e 52 70          	movd   0x70(%rdx),%mm2
     c00:	0f 60 d7             	punpcklbw %mm7,%mm2
     c03:	0f 6f f7             	movq   %mm7,%mm6
     c06:	0f 65 f4             	pcmpgtw %mm4,%mm6
     c09:	0f ef e6             	pxor   %mm6,%mm4
     c0c:	0f f9 e6             	psubw  %mm6,%mm4
     c0f:	0f 65 fd             	pcmpgtw %mm5,%mm7
     c12:	0f ef ef             	pxor   %mm7,%mm5
     c15:	0f f9 ef             	psubw  %mm7,%mm5
     c18:	0f 71 f2 03          	psllw  $0x3,%mm2
     c1c:	0f 6f da             	movq   %mm2,%mm3
     c1f:	0f 65 d4             	pcmpgtw %mm4,%mm2
     c22:	0f 65 dd             	pcmpgtw %mm5,%mm3
     c25:	0f db e2             	pand   %mm2,%mm4
     c28:	0f db eb             	pand   %mm3,%mm5
     c2b:	0f d9 e0             	psubusw %mm0,%mm4
     c2e:	0f d9 e9             	psubusw %mm1,%mm5
     c31:	0f 6f 14 25 00 00 00 	movq   0x0,%mm2
     c38:	00 
     c39:	0f d5 e2             	pmullw %mm2,%mm4
     c3c:	0f d5 ea             	pmullw %mm2,%mm5
     c3f:	0f 6f 14 25 00 00 00 	movq   0x0,%mm2
     c46:	00 
     c47:	0f fd e2             	paddw  %mm2,%mm4
     c4a:	0f fd ea             	paddw  %mm2,%mm5
     c4d:	0f 71 d4 06          	psrlw  $0x6,%mm4
     c51:	0f 71 d5 06          	psrlw  $0x6,%mm5
     c55:	0f 6f 41 10          	movq   0x10(%rcx),%mm0
     c59:	0f 6f 49 18          	movq   0x18(%rcx),%mm1
     c5d:	0f ef d2             	pxor   %mm2,%mm2
     c60:	0f ef db             	pxor   %mm3,%mm3
     c63:	0f 65 d0             	pcmpgtw %mm0,%mm2
     c66:	0f 65 d9             	pcmpgtw %mm1,%mm3
     c69:	0f ef c2             	pxor   %mm2,%mm0
     c6c:	0f ef cb             	pxor   %mm3,%mm1
     c6f:	0f f9 c2             	psubw  %mm2,%mm0
     c72:	0f f9 cb             	psubw  %mm3,%mm1
     c75:	0f 71 d0 01          	psrlw  $0x1,%mm0
     c79:	0f 71 d1 01          	psrlw  $0x1,%mm1
     c7d:	0f ef d6             	pxor   %mm6,%mm2
     c80:	0f ef df             	pxor   %mm7,%mm3
     c83:	0f db e2             	pand   %mm2,%mm4
     c86:	0f db eb             	pand   %mm3,%mm5
     c89:	0f 6f d4             	movq   %mm4,%mm2
     c8c:	0f d9 d0             	psubusw %mm0,%mm2
     c8f:	0f f9 e2             	psubw  %mm2,%mm4
     c92:	0f 6f d5             	movq   %mm5,%mm2
     c95:	0f d9 d1             	psubusw %mm1,%mm2
     c98:	0f f9 ea             	psubw  %mm2,%mm5
     c9b:	0f ef e6             	pxor   %mm6,%mm4
     c9e:	0f ef ef             	pxor   %mm7,%mm5
     ca1:	0f f9 e6             	psubw  %mm6,%mm4
     ca4:	0f f9 ef             	psubw  %mm7,%mm5
     ca7:	0f 63 e5             	packsswb %mm5,%mm4
     caa:	0f 6f 07             	movq   (%rdi),%mm0
     cad:	0f fc c4             	paddb  %mm4,%mm0
     cb0:	0f 7f 07             	movq   %mm0,(%rdi)
     cb3:	0f 6f 04 37          	movq   (%rdi,%rsi,1),%mm0
     cb7:	0f f8 c4             	psubb  %mm4,%mm0
     cba:	0f 7f 04 37          	movq   %mm0,(%rdi,%rsi,1)
     cbe:	c3                   	retq   

0000000000000cbf <deInterlaceInterpolateCubic_MMX>:
     cbf:	41 57                	push   %r15
     cc1:	41 56                	push   %r14
     cc3:	41 55                	push   %r13
     cc5:	41 54                	push   %r12
     cc7:	55                   	push   %rbp
     cc8:	53                   	push   %rbx
     cc9:	8d 1c 36             	lea    (%rsi,%rsi,1),%ebx
     ccc:	8d 2c 33             	lea    (%rbx,%rsi,1),%ebp
     ccf:	4c 63 f5             	movslq %ebp,%r14
     cd2:	4c 01 f7             	add    %r14,%rdi
     cd5:	48 63 db             	movslq %ebx,%rbx
     cd8:	44 8d 0c b5 00 00 00 	lea    0x0(,%rsi,4),%r9d
     cdf:	00 
     ce0:	4d 63 d9             	movslq %r9d,%r11
     ce3:	44 8d 64 2d 00       	lea    0x0(%rbp,%rbp,1),%r12d
     ce8:	4d 63 e4             	movslq %r12d,%r12
     ceb:	41 01 f1             	add    %esi,%r9d
     cee:	4d 63 f9             	movslq %r9d,%r15
     cf1:	8d 04 f5 00 00 00 00 	lea    0x0(,%rsi,8),%eax
     cf8:	4c 63 d0             	movslq %eax,%r10
     cfb:	41 89 c5             	mov    %eax,%r13d
     cfe:	41 29 f5             	sub    %esi,%r13d
     d01:	4d 63 ed             	movslq %r13d,%r13
     d04:	45 01 c9             	add    %r9d,%r9d
     d07:	4d 63 c9             	movslq %r9d,%r9
     d0a:	01 c6                	add    %eax,%esi
     d0c:	48 63 f6             	movslq %esi,%rsi
     d0f:	c1 e5 02             	shl    $0x2,%ebp
     d12:	48 63 ed             	movslq %ebp,%rbp
     d15:	4e 8d 04 27          	lea    (%rdi,%r12,1),%r8
     d19:	4a 8d 44 27 08       	lea    0x8(%rdi,%r12,1),%rax
     d1e:	48 89 44 24 f0       	mov    %rax,-0x10(%rsp)
     d23:	4c 89 e0             	mov    %r12,%rax
     d26:	48 f7 d8             	neg    %rax
     d29:	48 89 44 24 f8       	mov    %rax,-0x8(%rsp)
     d2e:	4c 89 c0             	mov    %r8,%rax
     d31:	4c 29 e0             	sub    %r12,%rax
     d34:	4c 89 c1             	mov    %r8,%rcx
     d37:	0f b6 14 18          	movzbl (%rax,%rbx,1),%edx
     d3b:	8d 14 d2             	lea    (%rdx,%rdx,8),%edx
     d3e:	48 8b 7c 24 f8       	mov    -0x8(%rsp),%rdi
     d43:	41 0f b6 3c 38       	movzbl (%r8,%rdi,1),%edi
     d48:	29 fa                	sub    %edi,%edx
     d4a:	42 0f b6 3c 18       	movzbl (%rax,%r11,1),%edi
     d4f:	8d 3c ff             	lea    (%rdi,%rdi,8),%edi
     d52:	01 fa                	add    %edi,%edx
     d54:	41 0f b6 38          	movzbl (%r8),%edi
     d58:	29 fa                	sub    %edi,%edx
     d5a:	c1 fa 04             	sar    $0x4,%edx
     d5d:	89 d7                	mov    %edx,%edi
     d5f:	f7 c2 00 ff ff ff    	test   $0xffffff00,%edx
     d65:	74 07                	je     d6e <deInterlaceInterpolateCubic_MMX+0xaf>
     d67:	f7 da                	neg    %edx
     d69:	c1 fa 1f             	sar    $0x1f,%edx
     d6c:	89 d7                	mov    %edx,%edi
     d6e:	42 88 3c 30          	mov    %dil,(%rax,%r14,1)
     d72:	42 0f b6 14 18       	movzbl (%rax,%r11,1),%edx
     d77:	8d 14 d2             	lea    (%rdx,%rdx,8),%edx
     d7a:	0f b6 3c 18          	movzbl (%rax,%rbx,1),%edi
     d7e:	29 fa                	sub    %edi,%edx
     d80:	0f b6 39             	movzbl (%rcx),%edi
     d83:	8d 3c ff             	lea    (%rdi,%rdi,8),%edi
     d86:	01 fa                	add    %edi,%edx
     d88:	42 0f b6 3c 10       	movzbl (%rax,%r10,1),%edi
     d8d:	29 fa                	sub    %edi,%edx
     d8f:	c1 fa 04             	sar    $0x4,%edx
     d92:	89 d7                	mov    %edx,%edi
     d94:	f7 c2 00 ff ff ff    	test   $0xffffff00,%edx
     d9a:	74 07                	je     da3 <deInterlaceInterpolateCubic_MMX+0xe4>
     d9c:	f7 da                	neg    %edx
     d9e:	c1 fa 1f             	sar    $0x1f,%edx
     da1:	89 d7                	mov    %edx,%edi
     da3:	42 88 3c 38          	mov    %dil,(%rax,%r15,1)
     da7:	0f b6 11             	movzbl (%rcx),%edx
     daa:	8d 14 d2             	lea    (%rdx,%rdx,8),%edx
     dad:	42 0f b6 3c 18       	movzbl (%rax,%r11,1),%edi
     db2:	29 fa                	sub    %edi,%edx
     db4:	42 0f b6 3c 10       	movzbl (%rax,%r10,1),%edi
     db9:	8d 3c ff             	lea    (%rdi,%rdi,8),%edi
     dbc:	01 fa                	add    %edi,%edx
     dbe:	42 0f b6 3c 08       	movzbl (%rax,%r9,1),%edi
     dc3:	29 fa                	sub    %edi,%edx
     dc5:	c1 fa 04             	sar    $0x4,%edx
     dc8:	89 d7                	mov    %edx,%edi
     dca:	f7 c2 00 ff ff ff    	test   $0xffffff00,%edx
     dd0:	74 07                	je     dd9 <deInterlaceInterpolateCubic_MMX+0x11a>
     dd2:	f7 da                	neg    %edx
     dd4:	c1 fa 1f             	sar    $0x1f,%edx
     dd7:	89 d7                	mov    %edx,%edi
     dd9:	42 88 3c 28          	mov    %dil,(%rax,%r13,1)
     ddd:	42 0f b6 14 10       	movzbl (%rax,%r10,1),%edx
     de2:	8d 14 d2             	lea    (%rdx,%rdx,8),%edx
     de5:	0f b6 09             	movzbl (%rcx),%ecx
     de8:	29 ca                	sub    %ecx,%edx
     dea:	42 0f b6 0c 08       	movzbl (%rax,%r9,1),%ecx
     def:	8d 0c c9             	lea    (%rcx,%rcx,8),%ecx
     df2:	01 ca                	add    %ecx,%edx
     df4:	0f b6 0c 28          	movzbl (%rax,%rbp,1),%ecx
     df8:	29 ca                	sub    %ecx,%edx
     dfa:	c1 fa 04             	sar    $0x4,%edx
     dfd:	89 d1                	mov    %edx,%ecx
     dff:	f7 c2 00 ff ff ff    	test   $0xffffff00,%edx
     e05:	74 07                	je     e0e <deInterlaceInterpolateCubic_MMX+0x14f>
     e07:	f7 da                	neg    %edx
     e09:	c1 fa 1f             	sar    $0x1f,%edx
     e0c:	89 d1                	mov    %edx,%ecx
     e0e:	88 0c 30             	mov    %cl,(%rax,%rsi,1)
     e11:	49 83 c0 01          	add    $0x1,%r8
     e15:	4c 3b 44 24 f0       	cmp    -0x10(%rsp),%r8
     e1a:	0f 85 0e ff ff ff    	jne    d2e <deInterlaceInterpolateCubic_MMX+0x6f>
     e20:	5b                   	pop    %rbx
     e21:	5d                   	pop    %rbp
     e22:	41 5c                	pop    %r12
     e24:	41 5d                	pop    %r13
     e26:	41 5e                	pop    %r14
     e28:	41 5f                	pop    %r15
     e2a:	c3                   	retq   

0000000000000e2b <deInterlaceFF_MMX>:
     e2b:	41 57                	push   %r15
     e2d:	41 56                	push   %r14
     e2f:	41 55                	push   %r13
     e31:	41 54                	push   %r12
     e33:	55                   	push   %rbp
     e34:	53                   	push   %rbx
     e35:	44 8d 0c b5 00 00 00 	lea    0x0(,%rsi,4),%r9d
     e3c:	00 
     e3d:	49 63 e9             	movslq %r9d,%rbp
     e40:	48 01 ef             	add    %rbp,%rdi
     e43:	44 8d 04 36          	lea    (%rsi,%rsi,1),%r8d
     e47:	4d 63 d0             	movslq %r8d,%r10
     e4a:	41 01 f0             	add    %esi,%r8d
     e4d:	49 63 c8             	movslq %r8d,%rcx
     e50:	41 01 f1             	add    %esi,%r9d
     e53:	4d 63 c9             	movslq %r9d,%r9
     e56:	45 01 c0             	add    %r8d,%r8d
     e59:	4d 63 c0             	movslq %r8d,%r8
     e5c:	44 8d 2c f5 00 00 00 	lea    0x0(,%rsi,8),%r13d
     e63:	00 
     e64:	44 89 eb             	mov    %r13d,%ebx
     e67:	29 f3                	sub    %esi,%ebx
     e69:	48 63 db             	movslq %ebx,%rbx
     e6c:	4d 63 fd             	movslq %r13d,%r15
     e6f:	41 01 f5             	add    %esi,%r13d
     e72:	4d 63 ed             	movslq %r13d,%r13
     e75:	b8 00 00 00 00       	mov    $0x0,%eax
     e7a:	48 63 f6             	movslq %esi,%rsi
     e7d:	4c 8d 24 37          	lea    (%rdi,%rsi,1),%r12
     e81:	4d 8d 34 34          	lea    (%r12,%rsi,1),%r14
     e85:	4c 01 f6             	add    %r14,%rsi
     e88:	48 89 74 24 e8       	mov    %rsi,-0x18(%rsp)
     e8d:	48 01 fd             	add    %rdi,%rbp
     e90:	49 01 f9             	add    %rdi,%r9
     e93:	4a 8d 34 17          	lea    (%rdi,%r10,1),%rsi
     e97:	48 89 74 24 f0       	mov    %rsi,-0x10(%rsp)
     e9c:	48 8d 34 0f          	lea    (%rdi,%rcx,1),%rsi
     ea0:	48 89 74 24 f8       	mov    %rsi,-0x8(%rsp)
     ea5:	49 01 f8             	add    %rdi,%r8
     ea8:	48 01 fb             	add    %rdi,%rbx
     eab:	41 0f b6 34 04       	movzbl (%r12,%rax,1),%esi
     eb0:	0f b6 0c 07          	movzbl (%rdi,%rax,1),%ecx
     eb4:	c1 e1 02             	shl    $0x2,%ecx
     eb7:	44 0f b6 14 02       	movzbl (%rdx,%rax,1),%r10d
     ebc:	44 29 d1             	sub    %r10d,%ecx
     ebf:	8d 0c 71             	lea    (%rcx,%rsi,2),%ecx
     ec2:	45 0f b6 14 06       	movzbl (%r14,%rax,1),%r10d
     ec7:	42 8d 0c 91          	lea    (%rcx,%r10,4),%ecx
     ecb:	4c 8b 5c 24 e8       	mov    -0x18(%rsp),%r11
     ed0:	45 0f b6 14 03       	movzbl (%r11,%rax,1),%r10d
     ed5:	44 29 d1             	sub    %r10d,%ecx
     ed8:	83 c1 04             	add    $0x4,%ecx
     edb:	c1 f9 03             	sar    $0x3,%ecx
     ede:	41 89 ca             	mov    %ecx,%r10d
     ee1:	f7 c1 00 ff ff ff    	test   $0xffffff00,%ecx
     ee7:	74 08                	je     ef1 <deInterlaceFF_MMX+0xc6>
     ee9:	f7 d9                	neg    %ecx
     eeb:	c1 f9 1f             	sar    $0x1f,%ecx
     eee:	41 89 ca             	mov    %ecx,%r10d
     ef1:	45 88 14 04          	mov    %r10b,(%r12,%rax,1)
     ef5:	44 0f b6 54 05 00    	movzbl 0x0(%rbp,%rax,1),%r10d
     efb:	48 8b 4c 24 f0       	mov    -0x10(%rsp),%rcx
     f00:	0f b6 0c 01          	movzbl (%rcx,%rax,1),%ecx
     f04:	c1 e1 02             	shl    $0x2,%ecx
     f07:	29 f1                	sub    %esi,%ecx
     f09:	42 8d 0c 51          	lea    (%rcx,%r10,2),%ecx
     f0d:	42 8d 0c 91          	lea    (%rcx,%r10,4),%ecx
     f11:	41 0f b6 34 01       	movzbl (%r9,%rax,1),%esi
     f16:	29 f1                	sub    %esi,%ecx
     f18:	83 c1 04             	add    $0x4,%ecx
     f1b:	c1 f9 03             	sar    $0x3,%ecx
     f1e:	89 ce                	mov    %ecx,%esi
     f20:	f7 c1 00 ff ff ff    	test   $0xffffff00,%ecx
     f26:	74 07                	je     f2f <deInterlaceFF_MMX+0x104>
     f28:	f7 d9                	neg    %ecx
     f2a:	c1 f9 1f             	sar    $0x1f,%ecx
     f2d:	89 ce                	mov    %ecx,%esi
     f2f:	48 8b 4c 24 f8       	mov    -0x8(%rsp),%rcx
     f34:	40 88 34 01          	mov    %sil,(%rcx,%rax,1)
     f38:	41 0f b6 34 00       	movzbl (%r8,%rax,1),%esi
     f3d:	0f b6 4c 05 00       	movzbl 0x0(%rbp,%rax,1),%ecx
     f42:	c1 e1 02             	shl    $0x2,%ecx
     f45:	44 29 d1             	sub    %r10d,%ecx
     f48:	8d 0c 71             	lea    (%rcx,%rsi,2),%ecx
     f4b:	8d 0c b1             	lea    (%rcx,%rsi,4),%ecx
     f4e:	44 0f b6 14 03       	movzbl (%rbx,%rax,1),%r10d
     f53:	44 29 d1             	sub    %r10d,%ecx
     f56:	83 c1 04             	add    $0x4,%ecx
     f59:	c1 f9 03             	sar    $0x3,%ecx
     f5c:	41 89 ca             	mov    %ecx,%r10d
     f5f:	f7 c1 00 ff ff ff    	test   $0xffffff00,%ecx
     f65:	74 08                	je     f6f <deInterlaceFF_MMX+0x144>
     f67:	f7 d9                	neg    %ecx
     f69:	c1 f9 1f             	sar    $0x1f,%ecx
     f6c:	41 89 ca             	mov    %ecx,%r10d
     f6f:	45 88 14 01          	mov    %r10b,(%r9,%rax,1)
     f73:	4a 8d 0c 3f          	lea    (%rdi,%r15,1),%rcx
     f77:	44 0f b6 14 01       	movzbl (%rcx,%rax,1),%r10d
     f7c:	45 0f b6 da          	movzbl %r10b,%r11d
     f80:	41 0f b6 0c 00       	movzbl (%r8,%rax,1),%ecx
     f85:	c1 e1 02             	shl    $0x2,%ecx
     f88:	29 f1                	sub    %esi,%ecx
     f8a:	42 8d 0c 59          	lea    (%rcx,%r11,2),%ecx
     f8e:	42 8d 0c 99          	lea    (%rcx,%r11,4),%ecx
     f92:	4a 8d 34 2f          	lea    (%rdi,%r13,1),%rsi
     f96:	0f b6 34 06          	movzbl (%rsi,%rax,1),%esi
     f9a:	29 f1                	sub    %esi,%ecx
     f9c:	83 c1 04             	add    $0x4,%ecx
     f9f:	c1 f9 03             	sar    $0x3,%ecx
     fa2:	89 ce                	mov    %ecx,%esi
     fa4:	f7 c1 00 ff ff ff    	test   $0xffffff00,%ecx
     faa:	74 07                	je     fb3 <deInterlaceFF_MMX+0x188>
     fac:	f7 d9                	neg    %ecx
     fae:	c1 f9 1f             	sar    $0x1f,%ecx
     fb1:	89 ce                	mov    %ecx,%esi
     fb3:	40 88 34 03          	mov    %sil,(%rbx,%rax,1)
     fb7:	44 88 14 02          	mov    %r10b,(%rdx,%rax,1)
     fbb:	48 83 c0 01          	add    $0x1,%rax
     fbf:	48 83 f8 08          	cmp    $0x8,%rax
     fc3:	0f 85 e2 fe ff ff    	jne    eab <deInterlaceFF_MMX+0x80>
     fc9:	5b                   	pop    %rbx
     fca:	5d                   	pop    %rbp
     fcb:	41 5c                	pop    %r12
     fcd:	41 5d                	pop    %r13
     fcf:	41 5e                	pop    %r14
     fd1:	41 5f                	pop    %r15
     fd3:	c3                   	retq   

0000000000000fd4 <deInterlaceL5_MMX>:
     fd4:	41 57                	push   %r15
     fd6:	41 56                	push   %r14
     fd8:	41 55                	push   %r13
     fda:	41 54                	push   %r12
     fdc:	55                   	push   %rbp
     fdd:	53                   	push   %rbx
     fde:	44 8d 0c b5 00 00 00 	lea    0x0(,%rsi,4),%r9d
     fe5:	00 
     fe6:	49 63 c1             	movslq %r9d,%rax
     fe9:	48 89 44 24 b8       	mov    %rax,-0x48(%rsp)
     fee:	48 01 c7             	add    %rax,%rdi
     ff1:	8d 04 36             	lea    (%rsi,%rsi,1),%eax
     ff4:	4c 63 c0             	movslq %eax,%r8
     ff7:	01 f0                	add    %esi,%eax
     ff9:	4c 63 e8             	movslq %eax,%r13
     ffc:	41 01 f1             	add    %esi,%r9d
     fff:	49 63 d9             	movslq %r9d,%rbx
    1002:	48 89 5c 24 c0       	mov    %rbx,-0x40(%rsp)
    1007:	01 c0                	add    %eax,%eax
    1009:	48 98                	cltq   
    100b:	48 89 44 24 c8       	mov    %rax,-0x38(%rsp)
    1010:	8d 04 f5 00 00 00 00 	lea    0x0(,%rsi,8),%eax
    1017:	29 f0                	sub    %esi,%eax
    1019:	48 98                	cltq   
    101b:	48 89 44 24 d0       	mov    %rax,-0x30(%rsp)
    1020:	b8 00 00 00 00       	mov    $0x0,%eax
    1025:	48 63 f6             	movslq %esi,%rsi
    1028:	48 8d 2c 37          	lea    (%rdi,%rsi,1),%rbp
    102c:	48 8d 5c 35 00       	lea    0x0(%rbp,%rsi,1),%rbx
    1031:	4c 8d 34 33          	lea    (%rbx,%rsi,1),%r14
    1035:	4d 8d 3c 36          	lea    (%r14,%rsi,1),%r15
    1039:	4c 89 7c 24 d8       	mov    %r15,-0x28(%rsp)
    103e:	4e 8d 3c 07          	lea    (%rdi,%r8,1),%r15
    1042:	4c 89 7c 24 e0       	mov    %r15,-0x20(%rsp)
    1047:	49 01 f7             	add    %rsi,%r15
    104a:	4c 89 7c 24 e8       	mov    %r15,-0x18(%rsp)
    104f:	49 01 f7             	add    %rsi,%r15
    1052:	4c 89 7c 24 f0       	mov    %r15,-0x10(%rsp)
    1057:	49 01 f7             	add    %rsi,%r15
    105a:	4c 89 7c 24 f8       	mov    %r15,-0x8(%rsp)
    105f:	49 01 fd             	add    %rdi,%r13
    1062:	44 0f b6 0c 01       	movzbl (%rcx,%rax,1),%r9d
    1067:	44 0f b6 14 07       	movzbl (%rdi,%rax,1),%r10d
    106c:	44 0f b6 44 05 00    	movzbl 0x0(%rbp,%rax,1),%r8d
    1072:	45 01 c8             	add    %r9d,%r8d
    1075:	45 01 c0             	add    %r8d,%r8d
    1078:	44 0f b6 24 03       	movzbl (%rbx,%rax,1),%r12d
    107d:	44 0f b6 1c 02       	movzbl (%rdx,%rax,1),%r11d
    1082:	45 01 e3             	add    %r12d,%r11d
    1085:	45 29 d8             	sub    %r11d,%r8d
    1088:	47 8d 1c 52          	lea    (%r10,%r10,2),%r11d
    108c:	47 8d 44 58 04       	lea    0x4(%r8,%r11,2),%r8d
    1091:	41 c1 f8 03          	sar    $0x3,%r8d
    1095:	45 89 c3             	mov    %r8d,%r11d
    1098:	41 f7 c0 00 ff ff ff 	test   $0xffffff00,%r8d
    109f:	74 0a                	je     10ab <deInterlaceL5_MMX+0xd7>
    10a1:	41 f7 d8             	neg    %r8d
    10a4:	41 c1 f8 1f          	sar    $0x1f,%r8d
    10a8:	45 89 c3             	mov    %r8d,%r11d
    10ab:	44 88 1c 07          	mov    %r11b,(%rdi,%rax,1)
    10af:	44 0f b6 5c 05 00    	movzbl 0x0(%rbp,%rax,1),%r11d
    10b5:	44 0f b6 04 03       	movzbl (%rbx,%rax,1),%r8d
    10ba:	45 01 d0             	add    %r10d,%r8d
    10bd:	45 01 c0             	add    %r8d,%r8d
    10c0:	45 0f b6 24 06       	movzbl (%r14,%rax,1),%r12d
    10c5:	45 01 e1             	add    %r12d,%r9d
    10c8:	45 29 c8             	sub    %r9d,%r8d
    10cb:	47 8d 0c 5b          	lea    (%r11,%r11,2),%r9d
    10cf:	47 8d 44 48 04       	lea    0x4(%r8,%r9,2),%r8d
    10d4:	41 c1 f8 03          	sar    $0x3,%r8d
    10d8:	45 89 c1             	mov    %r8d,%r9d
    10db:	41 f7 c0 00 ff ff ff 	test   $0xffffff00,%r8d
    10e2:	74 0a                	je     10ee <deInterlaceL5_MMX+0x11a>
    10e4:	41 f7 d8             	neg    %r8d
    10e7:	41 c1 f8 1f          	sar    $0x1f,%r8d
    10eb:	45 89 c1             	mov    %r8d,%r9d
    10ee:	44 88 4c 05 00       	mov    %r9b,0x0(%rbp,%rax,1)
    10f3:	44 0f b6 0c 03       	movzbl (%rbx,%rax,1),%r9d
    10f8:	45 0f b6 04 06       	movzbl (%r14,%rax,1),%r8d
    10fd:	45 01 d8             	add    %r11d,%r8d
    1100:	45 01 c0             	add    %r8d,%r8d
    1103:	4c 8b 7c 24 d8       	mov    -0x28(%rsp),%r15
    1108:	45 0f b6 24 07       	movzbl (%r15,%rax,1),%r12d
    110d:	45 01 e2             	add    %r12d,%r10d
    1110:	45 29 d0             	sub    %r10d,%r8d
    1113:	47 8d 14 49          	lea    (%r9,%r9,2),%r10d
    1117:	47 8d 44 50 04       	lea    0x4(%r8,%r10,2),%r8d
    111c:	41 c1 f8 03          	sar    $0x3,%r8d
    1120:	45 89 c2             	mov    %r8d,%r10d
    1123:	41 f7 c0 00 ff ff ff 	test   $0xffffff00,%r8d
    112a:	74 0a                	je     1136 <deInterlaceL5_MMX+0x162>
    112c:	41 f7 d8             	neg    %r8d
    112f:	41 c1 f8 1f          	sar    $0x1f,%r8d
    1133:	45 89 c2             	mov    %r8d,%r10d
    1136:	4c 8b 7c 24 e0       	mov    -0x20(%rsp),%r15
    113b:	45 88 14 07          	mov    %r10b,(%r15,%rax,1)
    113f:	4c 8b 7c 24 e8       	mov    -0x18(%rsp),%r15
    1144:	45 0f b6 14 07       	movzbl (%r15,%rax,1),%r10d
    1149:	4c 8b 7c 24 f0       	mov    -0x10(%rsp),%r15
    114e:	45 0f b6 04 07       	movzbl (%r15,%rax,1),%r8d
    1153:	45 01 c8             	add    %r9d,%r8d
    1156:	45 01 c0             	add    %r8d,%r8d
    1159:	4c 8b 7c 24 f8       	mov    -0x8(%rsp),%r15
    115e:	45 0f b6 24 07       	movzbl (%r15,%rax,1),%r12d
    1163:	45 01 e3             	add    %r12d,%r11d
    1166:	45 29 d8             	sub    %r11d,%r8d
    1169:	47 8d 1c 52          	lea    (%r10,%r10,2),%r11d
    116d:	47 8d 44 58 04       	lea    0x4(%r8,%r11,2),%r8d
    1172:	41 c1 f8 03          	sar    $0x3,%r8d
    1176:	45 89 c3             	mov    %r8d,%r11d
    1179:	41 f7 c0 00 ff ff ff 	test   $0xffffff00,%r8d
    1180:	74 0a                	je     118c <deInterlaceL5_MMX+0x1b8>
    1182:	41 f7 d8             	neg    %r8d
    1185:	41 c1 f8 1f          	sar    $0x1f,%r8d
    1189:	45 89 c3             	mov    %r8d,%r11d
    118c:	45 88 5c 05 00       	mov    %r11b,0x0(%r13,%rax,1)
    1191:	4d 8d 44 35 00       	lea    0x0(%r13,%rsi,1),%r8
    1196:	45 0f b6 3c 00       	movzbl (%r8,%rax,1),%r15d
    119b:	49 01 f0             	add    %rsi,%r8
    119e:	45 0f b6 1c 00       	movzbl (%r8,%rax,1),%r11d
    11a3:	45 01 d3             	add    %r10d,%r11d
    11a6:	45 01 db             	add    %r11d,%r11d
    11a9:	49 01 f0             	add    %rsi,%r8
    11ac:	45 0f b6 04 00       	movzbl (%r8,%rax,1),%r8d
    11b1:	45 01 c1             	add    %r8d,%r9d
    11b4:	45 29 cb             	sub    %r9d,%r11d
    11b7:	47 8d 04 7f          	lea    (%r15,%r15,2),%r8d
    11bb:	47 8d 44 43 04       	lea    0x4(%r11,%r8,2),%r8d
    11c0:	41 c1 f8 03          	sar    $0x3,%r8d
    11c4:	45 89 c1             	mov    %r8d,%r9d
    11c7:	41 f7 c0 00 ff ff ff 	test   $0xffffff00,%r8d
    11ce:	74 0a                	je     11da <deInterlaceL5_MMX+0x206>
    11d0:	41 f7 d8             	neg    %r8d
    11d3:	41 c1 f8 1f          	sar    $0x1f,%r8d
    11d7:	45 89 c1             	mov    %r8d,%r9d
    11da:	4c 8b 5c 24 b8       	mov    -0x48(%rsp),%r11
    11df:	4e 8d 04 1f          	lea    (%rdi,%r11,1),%r8
    11e3:	45 88 0c 00          	mov    %r9b,(%r8,%rax,1)
    11e7:	49 01 f0             	add    %rsi,%r8
    11ea:	45 0f b6 1c 00       	movzbl (%r8,%rax,1),%r11d
    11ef:	49 01 f0             	add    %rsi,%r8
    11f2:	45 0f b6 0c 00       	movzbl (%r8,%rax,1),%r9d
    11f7:	45 01 f9             	add    %r15d,%r9d
    11fa:	45 01 c9             	add    %r9d,%r9d
    11fd:	49 01 f0             	add    %rsi,%r8
    1200:	45 0f b6 04 00       	movzbl (%r8,%rax,1),%r8d
    1205:	45 01 c2             	add    %r8d,%r10d
    1208:	45 29 d1             	sub    %r10d,%r9d
    120b:	47 8d 04 5b          	lea    (%r11,%r11,2),%r8d
    120f:	47 8d 44 41 04       	lea    0x4(%r9,%r8,2),%r8d
    1214:	41 c1 f8 03          	sar    $0x3,%r8d
    1218:	45 89 c1             	mov    %r8d,%r9d
    121b:	41 f7 c0 00 ff ff ff 	test   $0xffffff00,%r8d
    1222:	74 0a                	je     122e <deInterlaceL5_MMX+0x25a>
    1224:	41 f7 d8             	neg    %r8d
    1227:	41 c1 f8 1f          	sar    $0x1f,%r8d
    122b:	45 89 c1             	mov    %r8d,%r9d
    122e:	4c 8b 54 24 c0       	mov    -0x40(%rsp),%r10
    1233:	4e 8d 04 17          	lea    (%rdi,%r10,1),%r8
    1237:	45 88 0c 00          	mov    %r9b,(%r8,%rax,1)
    123b:	49 01 f0             	add    %rsi,%r8
    123e:	45 0f b6 24 00       	movzbl (%r8,%rax,1),%r12d
    1243:	45 0f b6 cc          	movzbl %r12b,%r9d
    1247:	49 01 f0             	add    %rsi,%r8
    124a:	45 0f b6 14 00       	movzbl (%r8,%rax,1),%r10d
    124f:	45 01 da             	add    %r11d,%r10d
    1252:	45 01 d2             	add    %r10d,%r10d
    1255:	49 01 f0             	add    %rsi,%r8
    1258:	45 0f b6 04 00       	movzbl (%r8,%rax,1),%r8d
    125d:	45 01 c7             	add    %r8d,%r15d
    1260:	45 29 fa             	sub    %r15d,%r10d
    1263:	47 8d 04 49          	lea    (%r9,%r9,2),%r8d
    1267:	47 8d 44 42 04       	lea    0x4(%r10,%r8,2),%r8d
    126c:	41 c1 f8 03          	sar    $0x3,%r8d
    1270:	45 89 c2             	mov    %r8d,%r10d
    1273:	41 f7 c0 00 ff ff ff 	test   $0xffffff00,%r8d
    127a:	74 0a                	je     1286 <deInterlaceL5_MMX+0x2b2>
    127c:	41 f7 d8             	neg    %r8d
    127f:	41 c1 f8 1f          	sar    $0x1f,%r8d
    1283:	45 89 c2             	mov    %r8d,%r10d
    1286:	4c 8b 7c 24 c8       	mov    -0x38(%rsp),%r15
    128b:	4e 8d 04 3f          	lea    (%rdi,%r15,1),%r8
    128f:	45 88 14 00          	mov    %r10b,(%r8,%rax,1)
    1293:	49 01 f0             	add    %rsi,%r8
    1296:	45 0f b6 14 00       	movzbl (%r8,%rax,1),%r10d
    129b:	49 01 f0             	add    %rsi,%r8
    129e:	45 0f b6 3c 00       	movzbl (%r8,%rax,1),%r15d
    12a3:	45 01 f9             	add    %r15d,%r9d
    12a6:	45 01 c9             	add    %r9d,%r9d
    12a9:	49 01 f0             	add    %rsi,%r8
    12ac:	45 0f b6 04 00       	movzbl (%r8,%rax,1),%r8d
    12b1:	45 01 c3             	add    %r8d,%r11d
    12b4:	45 29 d9             	sub    %r11d,%r9d
    12b7:	45 0f b6 c2          	movzbl %r10b,%r8d
    12bb:	47 8d 04 40          	lea    (%r8,%r8,2),%r8d
    12bf:	47 8d 44 41 04       	lea    0x4(%r9,%r8,2),%r8d
    12c4:	41 c1 f8 03          	sar    $0x3,%r8d
    12c8:	45 89 c1             	mov    %r8d,%r9d
    12cb:	41 f7 c0 00 ff ff ff 	test   $0xffffff00,%r8d
    12d2:	74 0a                	je     12de <deInterlaceL5_MMX+0x30a>
    12d4:	41 f7 d8             	neg    %r8d
    12d7:	41 c1 f8 1f          	sar    $0x1f,%r8d
    12db:	45 89 c1             	mov    %r8d,%r9d
    12de:	4c 8b 7c 24 d0       	mov    -0x30(%rsp),%r15
    12e3:	4e 8d 04 3f          	lea    (%rdi,%r15,1),%r8
    12e7:	45 88 0c 00          	mov    %r9b,(%r8,%rax,1)
    12eb:	44 88 24 02          	mov    %r12b,(%rdx,%rax,1)
    12ef:	44 88 14 01          	mov    %r10b,(%rcx,%rax,1)
    12f3:	48 83 c0 01          	add    $0x1,%rax
    12f7:	48 83 f8 08          	cmp    $0x8,%rax
    12fb:	0f 85 61 fd ff ff    	jne    1062 <deInterlaceL5_MMX+0x8e>
    1301:	5b                   	pop    %rbx
    1302:	5d                   	pop    %rbp
    1303:	41 5c                	pop    %r12
    1305:	41 5d                	pop    %r13
    1307:	41 5e                	pop    %r14
    1309:	41 5f                	pop    %r15
    130b:	c3                   	retq   

000000000000130c <deInterlaceBlendLinear_MMX>:
    130c:	41 57                	push   %r15
    130e:	41 56                	push   %r14
    1310:	41 55                	push   %r13
    1312:	41 54                	push   %r12
    1314:	55                   	push   %rbp
    1315:	53                   	push   %rbx
    1316:	44 8d 0c b5 00 00 00 	lea    0x0(,%rsi,4),%r9d
    131d:	00 
    131e:	49 63 e9             	movslq %r9d,%rbp
    1321:	48 01 ef             	add    %rbp,%rdi
    1324:	8d 0c 36             	lea    (%rsi,%rsi,1),%ecx
    1327:	4c 63 e9             	movslq %ecx,%r13
    132a:	01 f1                	add    %esi,%ecx
    132c:	4c 63 e1             	movslq %ecx,%r12
    132f:	41 01 f1             	add    %esi,%r9d
    1332:	4d 63 c9             	movslq %r9d,%r9
    1335:	01 c9                	add    %ecx,%ecx
    1337:	48 63 c9             	movslq %ecx,%rcx
    133a:	8d 1c f5 00 00 00 00 	lea    0x0(,%rsi,8),%ebx
    1341:	41 89 db             	mov    %ebx,%r11d
    1344:	41 29 f3             	sub    %esi,%r11d
    1347:	4d 63 db             	movslq %r11d,%r11
    134a:	48 63 db             	movslq %ebx,%rbx
    134d:	4c 8d 77 08          	lea    0x8(%rdi),%r14
    1351:	48 63 f6             	movslq %esi,%rsi
    1354:	44 8b 07             	mov    (%rdi),%r8d
    1357:	8b 04 37             	mov    (%rdi,%rsi,1),%eax
    135a:	41 89 c2             	mov    %eax,%r10d
    135d:	44 33 12             	xor    (%rdx),%r10d
    1360:	41 81 e2 fe fe fe fe 	and    $0xfefefefe,%r10d
    1367:	4d 89 d7             	mov    %r10,%r15
    136a:	49 d1 ef             	shr    %r15
    136d:	41 89 c2             	mov    %eax,%r10d
    1370:	44 23 12             	and    (%rdx),%r10d
    1373:	45 01 fa             	add    %r15d,%r10d
    1376:	45 89 d7             	mov    %r10d,%r15d
    1379:	45 09 c7             	or     %r8d,%r15d
    137c:	45 31 c2             	xor    %r8d,%r10d
    137f:	41 81 e2 fe fe fe fe 	and    $0xfefefefe,%r10d
    1386:	49 d1 ea             	shr    %r10
    1389:	45 29 d7             	sub    %r10d,%r15d
    138c:	44 89 3f             	mov    %r15d,(%rdi)
    138f:	46 8b 14 2f          	mov    (%rdi,%r13,1),%r10d
    1393:	45 89 d7             	mov    %r10d,%r15d
    1396:	45 31 c7             	xor    %r8d,%r15d
    1399:	41 81 e7 fe fe fe fe 	and    $0xfefefefe,%r15d
    13a0:	49 d1 ef             	shr    %r15
    13a3:	45 21 d0             	and    %r10d,%r8d
    13a6:	45 01 f8             	add    %r15d,%r8d
    13a9:	45 89 c7             	mov    %r8d,%r15d
    13ac:	41 09 c7             	or     %eax,%r15d
    13af:	41 31 c0             	xor    %eax,%r8d
    13b2:	41 81 e0 fe fe fe fe 	and    $0xfefefefe,%r8d
    13b9:	49 d1 e8             	shr    %r8
    13bc:	45 29 c7             	sub    %r8d,%r15d
    13bf:	44 89 3c 37          	mov    %r15d,(%rdi,%rsi,1)
    13c3:	46 8b 04 27          	mov    (%rdi,%r12,1),%r8d
    13c7:	45 89 c7             	mov    %r8d,%r15d
    13ca:	41 31 c7             	xor    %eax,%r15d
    13cd:	41 81 e7 fe fe fe fe 	and    $0xfefefefe,%r15d
    13d4:	49 d1 ef             	shr    %r15
    13d7:	44 21 c0             	and    %r8d,%eax
    13da:	44 01 f8             	add    %r15d,%eax
    13dd:	41 89 c7             	mov    %eax,%r15d
    13e0:	45 09 d7             	or     %r10d,%r15d
    13e3:	44 31 d0             	xor    %r10d,%eax
    13e6:	25 fe fe fe fe       	and    $0xfefefefe,%eax
    13eb:	48 d1 e8             	shr    %rax
    13ee:	41 29 c7             	sub    %eax,%r15d
    13f1:	46 89 3c 2f          	mov    %r15d,(%rdi,%r13,1)
    13f5:	8b 04 2f             	mov    (%rdi,%rbp,1),%eax
    13f8:	41 89 c7             	mov    %eax,%r15d
    13fb:	45 31 d7             	xor    %r10d,%r15d
    13fe:	41 81 e7 fe fe fe fe 	and    $0xfefefefe,%r15d
    1405:	49 d1 ef             	shr    %r15
    1408:	41 21 c2             	and    %eax,%r10d
    140b:	45 01 fa             	add    %r15d,%r10d
    140e:	45 89 d7             	mov    %r10d,%r15d
    1411:	45 09 c7             	or     %r8d,%r15d
    1414:	45 31 c2             	xor    %r8d,%r10d
    1417:	41 81 e2 fe fe fe fe 	and    $0xfefefefe,%r10d
    141e:	49 d1 ea             	shr    %r10
    1421:	45 29 d7             	sub    %r10d,%r15d
    1424:	46 89 3c 27          	mov    %r15d,(%rdi,%r12,1)
    1428:	46 8b 14 0f          	mov    (%rdi,%r9,1),%r10d
    142c:	45 89 d7             	mov    %r10d,%r15d
    142f:	45 31 c7             	xor    %r8d,%r15d
    1432:	41 81 e7 fe fe fe fe 	and    $0xfefefefe,%r15d
    1439:	49 d1 ef             	shr    %r15
    143c:	45 21 d0             	and    %r10d,%r8d
    143f:	45 01 f8             	add    %r15d,%r8d
    1442:	45 89 c7             	mov    %r8d,%r15d
    1445:	41 09 c7             	or     %eax,%r15d
    1448:	41 31 c0             	xor    %eax,%r8d
    144b:	41 81 e0 fe fe fe fe 	and    $0xfefefefe,%r8d
    1452:	49 d1 e8             	shr    %r8
    1455:	45 29 c7             	sub    %r8d,%r15d
    1458:	44 89 3c 2f          	mov    %r15d,(%rdi,%rbp,1)
    145c:	44 8b 3c 0f          	mov    (%rdi,%rcx,1),%r15d
    1460:	45 89 f8             	mov    %r15d,%r8d
    1463:	41 31 c0             	xor    %eax,%r8d
    1466:	41 81 e0 fe fe fe fe 	and    $0xfefefefe,%r8d
    146d:	49 d1 e8             	shr    %r8
    1470:	44 21 f8             	and    %r15d,%eax
    1473:	44 01 c0             	add    %r8d,%eax
    1476:	41 89 c0             	mov    %eax,%r8d
    1479:	45 09 d0             	or     %r10d,%r8d
    147c:	44 31 d0             	xor    %r10d,%eax
    147f:	25 fe fe fe fe       	and    $0xfefefefe,%eax
    1484:	48 d1 e8             	shr    %rax
    1487:	41 29 c0             	sub    %eax,%r8d
    148a:	46 89 04 0f          	mov    %r8d,(%rdi,%r9,1)
    148e:	46 8b 04 1f          	mov    (%rdi,%r11,1),%r8d
    1492:	44 89 c0             	mov    %r8d,%eax
    1495:	44 31 d0             	xor    %r10d,%eax
    1498:	25 fe fe fe fe       	and    $0xfefefefe,%eax
    149d:	48 d1 e8             	shr    %rax
    14a0:	45 21 c2             	and    %r8d,%r10d
    14a3:	41 01 c2             	add    %eax,%r10d
    14a6:	44 89 d0             	mov    %r10d,%eax
    14a9:	44 09 f8             	or     %r15d,%eax
    14ac:	45 31 fa             	xor    %r15d,%r10d
    14af:	41 81 e2 fe fe fe fe 	and    $0xfefefefe,%r10d
    14b6:	49 d1 ea             	shr    %r10
    14b9:	44 29 d0             	sub    %r10d,%eax
    14bc:	89 04 0f             	mov    %eax,(%rdi,%rcx,1)
    14bf:	8b 04 1f             	mov    (%rdi,%rbx,1),%eax
    14c2:	41 89 c2             	mov    %eax,%r10d
    14c5:	45 31 fa             	xor    %r15d,%r10d
    14c8:	41 81 e2 fe fe fe fe 	and    $0xfefefefe,%r10d
    14cf:	49 d1 ea             	shr    %r10
    14d2:	41 21 c7             	and    %eax,%r15d
    14d5:	43 8d 04 17          	lea    (%r15,%r10,1),%eax
    14d9:	41 89 c2             	mov    %eax,%r10d
    14dc:	45 09 c2             	or     %r8d,%r10d
    14df:	44 31 c0             	xor    %r8d,%eax
    14e2:	25 fe fe fe fe       	and    $0xfefefefe,%eax
    14e7:	48 d1 e8             	shr    %rax
    14ea:	41 29 c2             	sub    %eax,%r10d
    14ed:	46 89 14 1f          	mov    %r10d,(%rdi,%r11,1)
    14f1:	44 89 02             	mov    %r8d,(%rdx)
    14f4:	48 83 c7 04          	add    $0x4,%rdi
    14f8:	48 83 c2 04          	add    $0x4,%rdx
    14fc:	4c 39 f7             	cmp    %r14,%rdi
    14ff:	0f 85 4f fe ff ff    	jne    1354 <deInterlaceBlendLinear_MMX+0x48>
    1505:	5b                   	pop    %rbx
    1506:	5d                   	pop    %rbp
    1507:	41 5c                	pop    %r12
    1509:	41 5d                	pop    %r13
    150b:	41 5e                	pop    %r14
    150d:	41 5f                	pop    %r15
    150f:	c3                   	retq   

0000000000001510 <deInterlaceMedian_MMX>:
    1510:	8d 04 b5 00 00 00 00 	lea    0x0(,%rsi,4),%eax
    1517:	48 98                	cltq   
    1519:	48 01 c7             	add    %rax,%rdi
    151c:	48 63 f6             	movslq %esi,%rsi
    151f:	48 8d 04 37          	lea    (%rdi,%rsi,1),%rax
    1523:	48 8d 14 b0          	lea    (%rax,%rsi,4),%rdx
    1527:	0f ef ff             	pxor   %mm7,%mm7
    152a:	0f 6f 07             	movq   (%rdi),%mm0
    152d:	0f 6f 10             	movq   (%rax),%mm2
    1530:	0f 6f 0c 30          	movq   (%rax,%rsi,1),%mm1
    1534:	0f 6f d8             	movq   %mm0,%mm3
    1537:	0f 6f e1             	movq   %mm1,%mm4
    153a:	0f 6f ea             	movq   %mm2,%mm5
    153d:	0f d8 d9             	psubusb %mm1,%mm3
    1540:	0f d8 e2             	psubusb %mm2,%mm4
    1543:	0f d8 e8             	psubusb %mm0,%mm5
    1546:	0f 74 df             	pcmpeqb %mm7,%mm3
    1549:	0f 74 e7             	pcmpeqb %mm7,%mm4
    154c:	0f 74 ef             	pcmpeqb %mm7,%mm5
    154f:	0f 6f f3             	movq   %mm3,%mm6
    1552:	0f ef dc             	pxor   %mm4,%mm3
    1555:	0f ef e5             	pxor   %mm5,%mm4
    1558:	0f ef ee             	pxor   %mm6,%mm5
    155b:	0f eb cb             	por    %mm3,%mm1
    155e:	0f eb d4             	por    %mm4,%mm2
    1561:	0f eb c5             	por    %mm5,%mm0
    1564:	0f db c2             	pand   %mm2,%mm0
    1567:	0f db c1             	pand   %mm1,%mm0
    156a:	0f 7f 00             	movq   %mm0,(%rax)
    156d:	0f 6f 04 30          	movq   (%rax,%rsi,1),%mm0
    1571:	0f 6f 14 70          	movq   (%rax,%rsi,2),%mm2
    1575:	0f 6f 0c b7          	movq   (%rdi,%rsi,4),%mm1
    1579:	0f 6f d8             	movq   %mm0,%mm3
    157c:	0f 6f e1             	movq   %mm1,%mm4
    157f:	0f 6f ea             	movq   %mm2,%mm5
    1582:	0f d8 d9             	psubusb %mm1,%mm3
    1585:	0f d8 e2             	psubusb %mm2,%mm4
    1588:	0f d8 e8             	psubusb %mm0,%mm5
    158b:	0f 74 df             	pcmpeqb %mm7,%mm3
    158e:	0f 74 e7             	pcmpeqb %mm7,%mm4
    1591:	0f 74 ef             	pcmpeqb %mm7,%mm5
    1594:	0f 6f f3             	movq   %mm3,%mm6
    1597:	0f ef dc             	pxor   %mm4,%mm3
    159a:	0f ef e5             	pxor   %mm5,%mm4
    159d:	0f ef ee             	pxor   %mm6,%mm5
    15a0:	0f eb cb             	por    %mm3,%mm1
    15a3:	0f eb d4             	por    %mm4,%mm2
    15a6:	0f eb c5             	por    %mm5,%mm0
    15a9:	0f db c2             	pand   %mm2,%mm0
    15ac:	0f db c1             	pand   %mm1,%mm0
    15af:	0f 7f 04 70          	movq   %mm0,(%rax,%rsi,2)
    15b3:	0f 6f 04 b7          	movq   (%rdi,%rsi,4),%mm0
    15b7:	0f 6f 12             	movq   (%rdx),%mm2
    15ba:	0f 6f 0c 32          	movq   (%rdx,%rsi,1),%mm1
    15be:	0f 6f d8             	movq   %mm0,%mm3
    15c1:	0f 6f e1             	movq   %mm1,%mm4
    15c4:	0f 6f ea             	movq   %mm2,%mm5
    15c7:	0f d8 d9             	psubusb %mm1,%mm3
    15ca:	0f d8 e2             	psubusb %mm2,%mm4
    15cd:	0f d8 e8             	psubusb %mm0,%mm5
    15d0:	0f 74 df             	pcmpeqb %mm7,%mm3
    15d3:	0f 74 e7             	pcmpeqb %mm7,%mm4
    15d6:	0f 74 ef             	pcmpeqb %mm7,%mm5
    15d9:	0f 6f f3             	movq   %mm3,%mm6
    15dc:	0f ef dc             	pxor   %mm4,%mm3
    15df:	0f ef e5             	pxor   %mm5,%mm4
    15e2:	0f ef ee             	pxor   %mm6,%mm5
    15e5:	0f eb cb             	por    %mm3,%mm1
    15e8:	0f eb d4             	por    %mm4,%mm2
    15eb:	0f eb c5             	por    %mm5,%mm0
    15ee:	0f db c2             	pand   %mm2,%mm0
    15f1:	0f db c1             	pand   %mm1,%mm0
    15f4:	0f 7f 02             	movq   %mm0,(%rdx)
    15f7:	0f 6f 04 32          	movq   (%rdx,%rsi,1),%mm0
    15fb:	0f 6f 14 72          	movq   (%rdx,%rsi,2),%mm2
    15ff:	0f 6f 0c f7          	movq   (%rdi,%rsi,8),%mm1
    1603:	0f 6f d8             	movq   %mm0,%mm3
    1606:	0f 6f e1             	movq   %mm1,%mm4
    1609:	0f 6f ea             	movq   %mm2,%mm5
    160c:	0f d8 d9             	psubusb %mm1,%mm3
    160f:	0f d8 e2             	psubusb %mm2,%mm4
    1612:	0f d8 e8             	psubusb %mm0,%mm5
    1615:	0f 74 df             	pcmpeqb %mm7,%mm3
    1618:	0f 74 e7             	pcmpeqb %mm7,%mm4
    161b:	0f 74 ef             	pcmpeqb %mm7,%mm5
    161e:	0f 6f f3             	movq   %mm3,%mm6
    1621:	0f ef dc             	pxor   %mm4,%mm3
    1624:	0f ef e5             	pxor   %mm5,%mm4
    1627:	0f ef ee             	pxor   %mm6,%mm5
    162a:	0f eb cb             	por    %mm3,%mm1
    162d:	0f eb d4             	por    %mm4,%mm2
    1630:	0f eb c5             	por    %mm5,%mm0
    1633:	0f db c2             	pand   %mm2,%mm0
    1636:	0f db c1             	pand   %mm1,%mm0
    1639:	0f 7f 04 72          	movq   %mm0,(%rdx,%rsi,2)
    163d:	c3                   	retq   

000000000000163e <tempNoiseReducer_MMX>:
    163e:	41 54                	push   %r12
    1640:	55                   	push   %rbp
    1641:	53                   	push   %rbx
    1642:	41 8b 00             	mov    (%r8),%eax
    1645:	89 81 fc 01 00 00    	mov    %eax,0x1fc(%rcx)
    164b:	41 8b 40 04          	mov    0x4(%r8),%eax
    164f:	89 81 00 02 00 00    	mov    %eax,0x200(%rcx)
    1655:	41 8b 40 08          	mov    0x8(%r8),%eax
    1659:	89 81 04 02 00 00    	mov    %eax,0x204(%rcx)
    165f:	41 bc 00 00 00 00    	mov    $0x0,%r12d
    1665:	bb 08 00 00 00       	mov    $0x8,%ebx
    166a:	41 bb 00 00 00 00    	mov    $0x0,%r11d
    1670:	eb 27                	jmp    1699 <tempNoiseReducer_MMX+0x5b>
    1672:	4d 63 d1             	movslq %r9d,%r10
    1675:	42 0f b6 04 12       	movzbl (%rdx,%r10,1),%eax
    167a:	46 0f b6 14 17       	movzbl (%rdi,%r10,1),%r10d
    167f:	44 29 d0             	sub    %r10d,%eax
    1682:	0f af c0             	imul   %eax,%eax
    1685:	41 01 c3             	add    %eax,%r11d
    1688:	41 83 c1 01          	add    $0x1,%r9d
    168c:	41 39 e9             	cmp    %ebp,%r9d
    168f:	75 e1                	jne    1672 <tempNoiseReducer_MMX+0x34>
    1691:	41 01 f4             	add    %esi,%r12d
    1694:	83 eb 01             	sub    $0x1,%ebx
    1697:	74 0a                	je     16a3 <tempNoiseReducer_MMX+0x65>
    1699:	41 8d 6c 24 08       	lea    0x8(%r12),%ebp
    169e:	45 89 e1             	mov    %r12d,%r9d
    16a1:	eb cf                	jmp    1672 <tempNoiseReducer_MMX+0x34>
    16a3:	8b 41 fc             	mov    -0x4(%rcx),%eax
    16a6:	03 81 00 fc ff ff    	add    -0x400(%rcx),%eax
    16ac:	44 8b 49 04          	mov    0x4(%rcx),%r9d
    16b0:	42 8d 44 08 04       	lea    0x4(%rax,%r9,1),%eax
    16b5:	03 81 00 04 00 00    	add    0x400(%rcx),%eax
    16bb:	42 8d 04 98          	lea    (%rax,%r11,4),%eax
    16bf:	c1 e8 03             	shr    $0x3,%eax
    16c2:	44 89 19             	mov    %r11d,(%rcx)
    16c5:	41 3b 40 04          	cmp    0x4(%r8),%eax
    16c9:	7e 75                	jle    1740 <tempNoiseReducer_MMX+0x102>
    16cb:	41 ba 08 00 00 00    	mov    $0x8,%r10d
    16d1:	bd 08 00 00 00       	mov    $0x8,%ebp
    16d6:	41 3b 40 08          	cmp    0x8(%r8),%eax
    16da:	7c 33                	jl     170f <tempNoiseReducer_MMX+0xd1>
    16dc:	eb 5a                	jmp    1738 <tempNoiseReducer_MMX+0xfa>
    16de:	49 63 c0             	movslq %r8d,%rax
    16e1:	4c 8d 0c 02          	lea    (%rdx,%rax,1),%r9
    16e5:	48 01 f8             	add    %rdi,%rax
    16e8:	45 0f b6 11          	movzbl (%r9),%r10d
    16ec:	0f b6 08             	movzbl (%rax),%ecx
    16ef:	41 8d 4c 0a 01       	lea    0x1(%r10,%rcx,1),%ecx
    16f4:	d1 f9                	sar    %ecx
    16f6:	88 08                	mov    %cl,(%rax)
    16f8:	41 88 09             	mov    %cl,(%r9)
    16fb:	41 83 c0 01          	add    $0x1,%r8d
    16ff:	45 39 d8             	cmp    %r11d,%r8d
    1702:	75 da                	jne    16de <tempNoiseReducer_MMX+0xa0>
    1704:	01 f3                	add    %esi,%ebx
    1706:	83 ed 01             	sub    $0x1,%ebp
    1709:	0f 84 c0 00 00 00    	je     17cf <tempNoiseReducer_MMX+0x191>
    170f:	44 8d 5b 08          	lea    0x8(%rbx),%r11d
    1713:	41 89 d8             	mov    %ebx,%r8d
    1716:	eb c6                	jmp    16de <tempNoiseReducer_MMX+0xa0>
    1718:	48 63 c8             	movslq %eax,%rcx
    171b:	44 0f b6 04 0f       	movzbl (%rdi,%rcx,1),%r8d
    1720:	44 88 04 0a          	mov    %r8b,(%rdx,%rcx,1)
    1724:	83 c0 01             	add    $0x1,%eax
    1727:	44 39 c8             	cmp    %r9d,%eax
    172a:	75 ec                	jne    1718 <tempNoiseReducer_MMX+0xda>
    172c:	01 f3                	add    %esi,%ebx
    172e:	41 83 ea 01          	sub    $0x1,%r10d
    1732:	0f 84 97 00 00 00    	je     17cf <tempNoiseReducer_MMX+0x191>
    1738:	44 8d 4b 08          	lea    0x8(%rbx),%r9d
    173c:	89 d8                	mov    %ebx,%eax
    173e:	eb d8                	jmp    1718 <tempNoiseReducer_MMX+0xda>
    1740:	bd 08 00 00 00       	mov    $0x8,%ebp
    1745:	41 3b 00             	cmp    (%r8),%eax
    1748:	7d 7c                	jge    17c6 <tempNoiseReducer_MMX+0x188>
    174a:	bd 08 00 00 00       	mov    $0x8,%ebp
    174f:	eb 3a                	jmp    178b <tempNoiseReducer_MMX+0x14d>
    1751:	49 63 c0             	movslq %r8d,%rax
    1754:	4c 8d 0c 02          	lea    (%rdx,%rax,1),%r9
    1758:	48 01 f8             	add    %rdi,%rax
    175b:	45 0f b6 11          	movzbl (%r9),%r10d
    175f:	42 8d 0c d5 00 00 00 	lea    0x0(,%r10,8),%ecx
    1766:	00 
    1767:	44 29 d1             	sub    %r10d,%ecx
    176a:	44 0f b6 10          	movzbl (%rax),%r10d
    176e:	42 8d 4c 11 04       	lea    0x4(%rcx,%r10,1),%ecx
    1773:	c1 f9 03             	sar    $0x3,%ecx
    1776:	88 08                	mov    %cl,(%rax)
    1778:	41 88 09             	mov    %cl,(%r9)
    177b:	41 83 c0 01          	add    $0x1,%r8d
    177f:	45 39 d8             	cmp    %r11d,%r8d
    1782:	75 cd                	jne    1751 <tempNoiseReducer_MMX+0x113>
    1784:	01 f3                	add    %esi,%ebx
    1786:	83 ed 01             	sub    $0x1,%ebp
    1789:	74 44                	je     17cf <tempNoiseReducer_MMX+0x191>
    178b:	44 8d 5b 08          	lea    0x8(%rbx),%r11d
    178f:	41 89 d8             	mov    %ebx,%r8d
    1792:	eb bd                	jmp    1751 <tempNoiseReducer_MMX+0x113>
    1794:	49 63 c0             	movslq %r8d,%rax
    1797:	4c 8d 0c 02          	lea    (%rdx,%rax,1),%r9
    179b:	48 01 f8             	add    %rdi,%rax
    179e:	41 0f b6 09          	movzbl (%r9),%ecx
    17a2:	44 8d 14 49          	lea    (%rcx,%rcx,2),%r10d
    17a6:	0f b6 08             	movzbl (%rax),%ecx
    17a9:	41 8d 4c 0a 02       	lea    0x2(%r10,%rcx,1),%ecx
    17ae:	c1 f9 02             	sar    $0x2,%ecx
    17b1:	88 08                	mov    %cl,(%rax)
    17b3:	41 88 09             	mov    %cl,(%r9)
    17b6:	41 83 c0 01          	add    $0x1,%r8d
    17ba:	45 39 d8             	cmp    %r11d,%r8d
    17bd:	75 d5                	jne    1794 <tempNoiseReducer_MMX+0x156>
    17bf:	01 f3                	add    %esi,%ebx
    17c1:	83 ed 01             	sub    $0x1,%ebp
    17c4:	74 09                	je     17cf <tempNoiseReducer_MMX+0x191>
    17c6:	44 8d 5b 08          	lea    0x8(%rbx),%r11d
    17ca:	41 89 d8             	mov    %ebx,%r8d
    17cd:	eb c5                	jmp    1794 <tempNoiseReducer_MMX+0x156>
    17cf:	5b                   	pop    %rbx
    17d0:	5d                   	pop    %rbp
    17d1:	41 5c                	pop    %r12
    17d3:	c3                   	retq   

00000000000017d4 <doVertLowPass_MMX2>:
    17d4:	8d 04 76             	lea    (%rsi,%rsi,2),%eax
    17d7:	48 98                	cltq   
    17d9:	48 01 c7             	add    %rax,%rdi
    17dc:	48 63 f6             	movslq %esi,%rsi
    17df:	0f 6f 42 70          	movq   0x70(%rdx),%mm0
    17e3:	0f ef e4             	pxor   %mm4,%mm4
    17e6:	0f 6f 37             	movq   (%rdi),%mm6
    17e9:	0f 6f 2c 37          	movq   (%rdi,%rsi,1),%mm5
    17ed:	0f 6f cd             	movq   %mm5,%mm1
    17f0:	0f 6f d6             	movq   %mm6,%mm2
    17f3:	0f d8 ee             	psubusb %mm6,%mm5
    17f6:	0f d8 d1             	psubusb %mm1,%mm2
    17f9:	0f eb d5             	por    %mm5,%mm2
    17fc:	0f d8 d0             	psubusb %mm0,%mm2
    17ff:	0f 74 d4             	pcmpeqb %mm4,%mm2
    1802:	0f db f2             	pand   %mm2,%mm6
    1805:	0f df d1             	pandn  %mm1,%mm2
    1808:	0f eb f2             	por    %mm2,%mm6
    180b:	0f 6f 2c f7          	movq   (%rdi,%rsi,8),%mm5
    180f:	48 8d 04 b7          	lea    (%rdi,%rsi,4),%rax
    1813:	48 8d 0c f7          	lea    (%rdi,%rsi,8),%rcx
    1817:	48 29 f1             	sub    %rsi,%rcx
    181a:	48 01 f7             	add    %rsi,%rdi
    181d:	0f 6f 3c f7          	movq   (%rdi,%rsi,8),%mm7
    1821:	0f 6f cd             	movq   %mm5,%mm1
    1824:	0f 6f d7             	movq   %mm7,%mm2
    1827:	0f d8 ef             	psubusb %mm7,%mm5
    182a:	0f d8 d1             	psubusb %mm1,%mm2
    182d:	0f eb d5             	por    %mm5,%mm2
    1830:	0f d8 d0             	psubusb %mm0,%mm2
    1833:	0f 74 d4             	pcmpeqb %mm4,%mm2
    1836:	0f db fa             	pand   %mm2,%mm7
    1839:	0f df d1             	pandn  %mm1,%mm2
    183c:	0f eb fa             	por    %mm2,%mm7
    183f:	0f 6f 04 37          	movq   (%rdi,%rsi,1),%mm0
    1843:	0f 6f c8             	movq   %mm0,%mm1
    1846:	0f e0 c6             	pavgb  %mm6,%mm0
    1849:	0f e0 c6             	pavgb  %mm6,%mm0
    184c:	0f 6f 14 b7          	movq   (%rdi,%rsi,4),%mm2
    1850:	0f 6f ea             	movq   %mm2,%mm5
    1853:	0f e0 10             	pavgb  (%rax),%mm2
    1856:	0f e0 14 77          	pavgb  (%rdi,%rsi,2),%mm2
    185a:	0f 6f da             	movq   %mm2,%mm3
    185d:	0f 6f 27             	movq   (%rdi),%mm4
    1860:	0f e0 dc             	pavgb  %mm4,%mm3
    1863:	0f e0 d8             	pavgb  %mm0,%mm3
    1866:	0f 7f 1f             	movq   %mm3,(%rdi)
    1869:	0f 6f c1             	movq   %mm1,%mm0
    186c:	0f e0 c6             	pavgb  %mm6,%mm0
    186f:	0f 6f dc             	movq   %mm4,%mm3
    1872:	0f e0 1c 77          	pavgb  (%rdi,%rsi,2),%mm3
    1876:	0f e0 2c 70          	pavgb  (%rax,%rsi,2),%mm5
    187a:	0f e0 28             	pavgb  (%rax),%mm5
    187d:	0f e0 dd             	pavgb  %mm5,%mm3
    1880:	0f e0 d8             	pavgb  %mm0,%mm3
    1883:	0f 7f 1c 37          	movq   %mm3,(%rdi,%rsi,1)
    1887:	0f e0 f4             	pavgb  %mm4,%mm6
    188a:	0f 6f 01             	movq   (%rcx),%mm0
    188d:	0f e0 04 70          	pavgb  (%rax,%rsi,2),%mm0
    1891:	0f 6f d8             	movq   %mm0,%mm3
    1894:	0f e0 c1             	pavgb  %mm1,%mm0
    1897:	0f e0 c6             	pavgb  %mm6,%mm0
    189a:	0f e0 c2             	pavgb  %mm2,%mm0
    189d:	0f 6f 14 77          	movq   (%rdi,%rsi,2),%mm2
    18a1:	0f 7f 04 77          	movq   %mm0,(%rdi,%rsi,2)
    18a5:	0f 6f 04 b0          	movq   (%rax,%rsi,4),%mm0
    18a9:	0f e0 01             	pavgb  (%rcx),%mm0
    18ac:	0f e0 f0             	pavgb  %mm0,%mm6
    18af:	0f e0 e1             	pavgb  %mm1,%mm4
    18b2:	0f e0 ca             	pavgb  %mm2,%mm1
    18b5:	0f e0 f1             	pavgb  %mm1,%mm6
    18b8:	0f e0 f5             	pavgb  %mm5,%mm6
    18bb:	0f 6f 28             	movq   (%rax),%mm5
    18be:	0f 7f 30             	movq   %mm6,(%rax)
    18c1:	0f 6f 34 b0          	movq   (%rax,%rsi,4),%mm6
    18c5:	0f e0 f7             	pavgb  %mm7,%mm6
    18c8:	0f e0 f4             	pavgb  %mm4,%mm6
    18cb:	0f e0 f3             	pavgb  %mm3,%mm6
    18ce:	0f e0 d5             	pavgb  %mm5,%mm2
    18d1:	0f 6f 24 b7          	movq   (%rdi,%rsi,4),%mm4
    18d5:	0f e0 d4             	pavgb  %mm4,%mm2
    18d8:	0f e0 f2             	pavgb  %mm2,%mm6
    18db:	0f 7f 34 b7          	movq   %mm6,(%rdi,%rsi,4)
    18df:	0f e0 cf             	pavgb  %mm7,%mm1
    18e2:	0f e0 ec             	pavgb  %mm4,%mm5
    18e5:	0f e0 c5             	pavgb  %mm5,%mm0
    18e8:	0f 6f 34 70          	movq   (%rax,%rsi,2),%mm6
    18ec:	0f e0 ce             	pavgb  %mm6,%mm1
    18ef:	0f e0 c8             	pavgb  %mm0,%mm1
    18f2:	0f 7f 0c 70          	movq   %mm1,(%rax,%rsi,2)
    18f6:	0f e0 11             	pavgb  (%rcx),%mm2
    18f9:	0f 6f 04 b0          	movq   (%rax,%rsi,4),%mm0
    18fd:	0f e0 f0             	pavgb  %mm0,%mm6
    1900:	0f e0 f7             	pavgb  %mm7,%mm6
    1903:	0f e0 f2             	pavgb  %mm2,%mm6
    1906:	0f 7f 31             	movq   %mm6,(%rcx)
    1909:	0f e0 ef             	pavgb  %mm7,%mm5
    190c:	0f e0 ef             	pavgb  %mm7,%mm5
    190f:	0f e0 c3             	pavgb  %mm3,%mm0
    1912:	0f e0 e8             	pavgb  %mm0,%mm5
    1915:	0f 7f 2c b0          	movq   %mm5,(%rax,%rsi,4)
    1919:	48 29 f7             	sub    %rsi,%rdi
    191c:	c3                   	retq   

000000000000191d <dering_MMX2>:
    191d:	48 89 d1             	mov    %rdx,%rcx
    1920:	48 63 f6             	movslq %esi,%rsi
    1923:	4c 8d 44 24 e0       	lea    -0x20(%rsp),%r8
    1928:	0f ef f6             	pxor   %mm6,%mm6
    192b:	0f 74 ff             	pcmpeqb %mm7,%mm7
    192e:	0f 6f 41 70          	movq   0x70(%rcx),%mm0
    1932:	0f 60 c6             	punpcklbw %mm6,%mm0
    1935:	0f 71 d0 01          	psrlw  $0x1,%mm0
    1939:	0f f9 c7             	psubw  %mm7,%mm0
    193c:	0f 67 c0             	packuswb %mm0,%mm0
    193f:	0f 7f 41 78          	movq   %mm0,0x78(%rcx)
    1943:	48 8d 04 37          	lea    (%rdi,%rsi,1),%rax
    1947:	48 8d 14 b0          	lea    (%rax,%rsi,4),%rdx
    194b:	0f 6f 00             	movq   (%rax),%mm0
    194e:	0f da f8             	pminub %mm0,%mm7
    1951:	0f de f0             	pmaxub %mm0,%mm6
    1954:	0f 6f 04 30          	movq   (%rax,%rsi,1),%mm0
    1958:	0f da f8             	pminub %mm0,%mm7
    195b:	0f de f0             	pmaxub %mm0,%mm6
    195e:	0f 6f 04 70          	movq   (%rax,%rsi,2),%mm0
    1962:	0f da f8             	pminub %mm0,%mm7
    1965:	0f de f0             	pmaxub %mm0,%mm6
    1968:	0f 6f 04 b7          	movq   (%rdi,%rsi,4),%mm0
    196c:	0f da f8             	pminub %mm0,%mm7
    196f:	0f de f0             	pmaxub %mm0,%mm6
    1972:	0f 6f 02             	movq   (%rdx),%mm0
    1975:	0f da f8             	pminub %mm0,%mm7
    1978:	0f de f0             	pmaxub %mm0,%mm6
    197b:	0f 6f 04 32          	movq   (%rdx,%rsi,1),%mm0
    197f:	0f da f8             	pminub %mm0,%mm7
    1982:	0f de f0             	pmaxub %mm0,%mm6
    1985:	0f 6f 04 72          	movq   (%rdx,%rsi,2),%mm0
    1989:	0f da f8             	pminub %mm0,%mm7
    198c:	0f de f0             	pmaxub %mm0,%mm6
    198f:	0f 6f 04 f7          	movq   (%rdi,%rsi,8),%mm0
    1993:	0f da f8             	pminub %mm0,%mm7
    1996:	0f de f0             	pmaxub %mm0,%mm6
    1999:	0f 6f e7             	movq   %mm7,%mm4
    199c:	0f 73 d7 08          	psrlq  $0x8,%mm7
    19a0:	0f da fc             	pminub %mm4,%mm7
    19a3:	0f 70 e7 f9          	pshufw $0xf9,%mm7,%mm4
    19a7:	0f da fc             	pminub %mm4,%mm7
    19aa:	0f 70 e7 fe          	pshufw $0xfe,%mm7,%mm4
    19ae:	0f da fc             	pminub %mm4,%mm7
    19b1:	0f 6f e6             	movq   %mm6,%mm4
    19b4:	0f 73 d6 08          	psrlq  $0x8,%mm6
    19b8:	0f de f4             	pmaxub %mm4,%mm6
    19bb:	0f 70 e6 f9          	pshufw $0xf9,%mm6,%mm4
    19bf:	0f de f4             	pmaxub %mm4,%mm6
    19c2:	0f 70 e6 fe          	pshufw $0xfe,%mm6,%mm4
    19c6:	0f de f4             	pmaxub %mm4,%mm6
    19c9:	0f 6f c6             	movq   %mm6,%mm0
    19cc:	0f f8 f7             	psubb  %mm7,%mm6
    19cf:	41 50                	push   %r8
    19d1:	41 0f 7e f0          	movd   %mm6,%r8d
    19d5:	44 3a 04 25 00 00 00 	cmp    0x0,%r8b
    19dc:	00 
    19dd:	41 58                	pop    %r8
    19df:	72 0c                	jb     19ed <dering_MMX2+0xd0>
    19e1:	0f e0 f8             	pavgb  %mm0,%mm7
    19e4:	0f 60 ff             	punpcklbw %mm7,%mm7
    19e7:	0f 60 ff             	punpcklbw %mm7,%mm7
    19ea:	0f 60 ff             	punpcklbw %mm7,%mm7
    19ed:	41 0f 7f 38          	movq   %mm7,(%r8)
    19f1:	0f 6f 07             	movq   (%rdi),%mm0
    19f4:	0f 6f c8             	movq   %mm0,%mm1
    19f7:	0f 6f d0             	movq   %mm0,%mm2
    19fa:	0f 73 f1 08          	psllq  $0x8,%mm1
    19fe:	0f 73 d2 08          	psrlq  $0x8,%mm2
    1a02:	0f 6e 5f fc          	movd   -0x4(%rdi),%mm3
    1a06:	0f 6e 67 08          	movd   0x8(%rdi),%mm4
    1a0a:	0f 73 d3 18          	psrlq  $0x18,%mm3
    1a0e:	0f 73 f4 38          	psllq  $0x38,%mm4
    1a12:	0f eb cb             	por    %mm3,%mm1
    1a15:	0f eb d4             	por    %mm4,%mm2
    1a18:	0f 6f d9             	movq   %mm1,%mm3
    1a1b:	0f e0 ca             	pavgb  %mm2,%mm1
    1a1e:	0f e0 c8             	pavgb  %mm0,%mm1
    1a21:	0f d8 c7             	psubusb %mm7,%mm0
    1a24:	0f d8 d7             	psubusb %mm7,%mm2
    1a27:	0f d8 df             	psubusb %mm7,%mm3
    1a2a:	0f 74 04 25 00 00 00 	pcmpeqb 0x0,%mm0
    1a31:	00 
    1a32:	0f 74 14 25 00 00 00 	pcmpeqb 0x0,%mm2
    1a39:	00 
    1a3a:	0f 74 1c 25 00 00 00 	pcmpeqb 0x0,%mm3
    1a41:	00 
    1a42:	0f fc c2             	paddb  %mm2,%mm0
    1a45:	0f fc c3             	paddb  %mm3,%mm0
    1a48:	0f 6f 10             	movq   (%rax),%mm2
    1a4b:	0f 6f da             	movq   %mm2,%mm3
    1a4e:	0f 6f e2             	movq   %mm2,%mm4
    1a51:	0f 73 f3 08          	psllq  $0x8,%mm3
    1a55:	0f 73 d4 08          	psrlq  $0x8,%mm4
    1a59:	0f 6e 68 fc          	movd   -0x4(%rax),%mm5
    1a5d:	0f 6e 70 08          	movd   0x8(%rax),%mm6
    1a61:	0f 73 d5 18          	psrlq  $0x18,%mm5
    1a65:	0f 73 f6 38          	psllq  $0x38,%mm6
    1a69:	0f eb dd             	por    %mm5,%mm3
    1a6c:	0f eb e6             	por    %mm6,%mm4
    1a6f:	0f 6f eb             	movq   %mm3,%mm5
    1a72:	0f e0 dc             	pavgb  %mm4,%mm3
    1a75:	0f e0 da             	pavgb  %mm2,%mm3
    1a78:	0f d8 d7             	psubusb %mm7,%mm2
    1a7b:	0f d8 e7             	psubusb %mm7,%mm4
    1a7e:	0f d8 ef             	psubusb %mm7,%mm5
    1a81:	0f 74 14 25 00 00 00 	pcmpeqb 0x0,%mm2
    1a88:	00 
    1a89:	0f 74 24 25 00 00 00 	pcmpeqb 0x0,%mm4
    1a90:	00 
    1a91:	0f 74 2c 25 00 00 00 	pcmpeqb 0x0,%mm5
    1a98:	00 
    1a99:	0f fc d4             	paddb  %mm4,%mm2
    1a9c:	0f fc d5             	paddb  %mm5,%mm2
    1a9f:	0f 6f 24 30          	movq   (%rax,%rsi,1),%mm4
    1aa3:	0f 6f ec             	movq   %mm4,%mm5
    1aa6:	0f 6f f4             	movq   %mm4,%mm6
    1aa9:	0f 73 f5 08          	psllq  $0x8,%mm5
    1aad:	0f 73 d6 08          	psrlq  $0x8,%mm6
    1ab1:	0f 6e 7c 30 fc       	movd   -0x4(%rax,%rsi,1),%mm7
    1ab6:	0f 73 d7 18          	psrlq  $0x18,%mm7
    1aba:	0f eb ef             	por    %mm7,%mm5
    1abd:	0f 6e 7c 30 08       	movd   0x8(%rax,%rsi,1),%mm7
    1ac2:	0f 73 f7 38          	psllq  $0x38,%mm7
    1ac6:	0f eb f7             	por    %mm7,%mm6
    1ac9:	0f 6f fd             	movq   %mm5,%mm7
    1acc:	0f e0 ee             	pavgb  %mm6,%mm5
    1acf:	0f e0 ec             	pavgb  %mm4,%mm5
    1ad2:	0f e0 cd             	pavgb  %mm5,%mm1
    1ad5:	41 0f 7f 68 08       	movq   %mm5,0x8(%r8)
    1ada:	41 0f 6f 28          	movq   (%r8),%mm5
    1ade:	0f d8 fd             	psubusb %mm5,%mm7
    1ae1:	0f d8 f5             	psubusb %mm5,%mm6
    1ae4:	0f d8 e5             	psubusb %mm5,%mm4
    1ae7:	0f 6f 2c 25 00 00 00 	movq   0x0,%mm5
    1aee:	00 
    1aef:	0f 74 fd             	pcmpeqb %mm5,%mm7
    1af2:	0f 74 f5             	pcmpeqb %mm5,%mm6
    1af5:	0f 74 e5             	pcmpeqb %mm5,%mm4
    1af8:	0f fc f7             	paddb  %mm7,%mm6
    1afb:	0f fc e6             	paddb  %mm6,%mm4
    1afe:	0f e0 cb             	pavgb  %mm3,%mm1
    1b01:	0f 6f 30             	movq   (%rax),%mm6
    1b04:	0f 6f fe             	movq   %mm6,%mm7
    1b07:	0f d8 71 78          	psubusb 0x78(%rcx),%mm6
    1b0b:	0f dc 79 78          	paddusb 0x78(%rcx),%mm7
    1b0f:	0f de ce             	pmaxub %mm6,%mm1
    1b12:	0f da cf             	pminub %mm7,%mm1
    1b15:	0f fc c4             	paddb  %mm4,%mm0
    1b18:	0f fc c2             	paddb  %mm2,%mm0
    1b1b:	0f db 04 25 00 00 00 	pand   0x0,%mm0
    1b22:	00 
    1b23:	0f 74 c5             	pcmpeqb %mm5,%mm0
    1b26:	0f db c8             	pand   %mm0,%mm1
    1b29:	0f df 00             	pandn  (%rax),%mm0
    1b2c:	0f eb c1             	por    %mm1,%mm0
    1b2f:	0f 7f 00             	movq   %mm0,(%rax)
    1b32:	41 0f 6f 68 08       	movq   0x8(%r8),%mm5
    1b37:	0f 6f 04 70          	movq   (%rax,%rsi,2),%mm0
    1b3b:	0f 6f c8             	movq   %mm0,%mm1
    1b3e:	0f 6f f0             	movq   %mm0,%mm6
    1b41:	0f 73 f1 08          	psllq  $0x8,%mm1
    1b45:	0f 73 d6 08          	psrlq  $0x8,%mm6
    1b49:	0f 6e 7c 70 fc       	movd   -0x4(%rax,%rsi,2),%mm7
    1b4e:	0f 73 d7 18          	psrlq  $0x18,%mm7
    1b52:	0f eb cf             	por    %mm7,%mm1
    1b55:	0f 6e 7c 70 08       	movd   0x8(%rax,%rsi,2),%mm7
    1b5a:	0f 73 f7 38          	psllq  $0x38,%mm7
    1b5e:	0f eb f7             	por    %mm7,%mm6
    1b61:	0f 6f f9             	movq   %mm1,%mm7
    1b64:	0f e0 ce             	pavgb  %mm6,%mm1
    1b67:	0f e0 c8             	pavgb  %mm0,%mm1
    1b6a:	0f e0 d9             	pavgb  %mm1,%mm3
    1b6d:	41 0f 7f 48 08       	movq   %mm1,0x8(%r8)
    1b72:	41 0f 6f 08          	movq   (%r8),%mm1
    1b76:	0f d8 f9             	psubusb %mm1,%mm7
    1b79:	0f d8 f1             	psubusb %mm1,%mm6
    1b7c:	0f d8 c1             	psubusb %mm1,%mm0
    1b7f:	0f 6f 0c 25 00 00 00 	movq   0x0,%mm1
    1b86:	00 
    1b87:	0f 74 f9             	pcmpeqb %mm1,%mm7
    1b8a:	0f 74 f1             	pcmpeqb %mm1,%mm6
    1b8d:	0f 74 c1             	pcmpeqb %mm1,%mm0
    1b90:	0f fc f7             	paddb  %mm7,%mm6
    1b93:	0f fc c6             	paddb  %mm6,%mm0
    1b96:	0f e0 dd             	pavgb  %mm5,%mm3
    1b99:	0f 6f 34 30          	movq   (%rax,%rsi,1),%mm6
    1b9d:	0f 6f fe             	movq   %mm6,%mm7
    1ba0:	0f d8 71 78          	psubusb 0x78(%rcx),%mm6
    1ba4:	0f dc 79 78          	paddusb 0x78(%rcx),%mm7
    1ba8:	0f de de             	pmaxub %mm6,%mm3
    1bab:	0f da df             	pminub %mm7,%mm3
    1bae:	0f fc d0             	paddb  %mm0,%mm2
    1bb1:	0f fc d4             	paddb  %mm4,%mm2
    1bb4:	0f db 14 25 00 00 00 	pand   0x0,%mm2
    1bbb:	00 
    1bbc:	0f 74 d1             	pcmpeqb %mm1,%mm2
    1bbf:	0f db da             	pand   %mm2,%mm3
    1bc2:	0f df 14 30          	pandn  (%rax,%rsi,1),%mm2
    1bc6:	0f eb d3             	por    %mm3,%mm2
    1bc9:	0f 7f 14 30          	movq   %mm2,(%rax,%rsi,1)
    1bcd:	41 0f 6f 48 08       	movq   0x8(%r8),%mm1
    1bd2:	0f 6f 14 b7          	movq   (%rdi,%rsi,4),%mm2
    1bd6:	0f 6f da             	movq   %mm2,%mm3
    1bd9:	0f 6f f2             	movq   %mm2,%mm6
    1bdc:	0f 73 f3 08          	psllq  $0x8,%mm3
    1be0:	0f 73 d6 08          	psrlq  $0x8,%mm6
    1be4:	0f 6e 7c b7 fc       	movd   -0x4(%rdi,%rsi,4),%mm7
    1be9:	0f 73 d7 18          	psrlq  $0x18,%mm7
    1bed:	0f eb df             	por    %mm7,%mm3
    1bf0:	0f 6e 7c b7 08       	movd   0x8(%rdi,%rsi,4),%mm7
    1bf5:	0f 73 f7 38          	psllq  $0x38,%mm7
    1bf9:	0f eb f7             	por    %mm7,%mm6
    1bfc:	0f 6f fb             	movq   %mm3,%mm7
    1bff:	0f e0 de             	pavgb  %mm6,%mm3
    1c02:	0f e0 da             	pavgb  %mm2,%mm3
    1c05:	0f e0 eb             	pavgb  %mm3,%mm5
    1c08:	41 0f 7f 58 08       	movq   %mm3,0x8(%r8)
    1c0d:	41 0f 6f 18          	movq   (%r8),%mm3
    1c11:	0f d8 fb             	psubusb %mm3,%mm7
    1c14:	0f d8 f3             	psubusb %mm3,%mm6
    1c17:	0f d8 d3             	psubusb %mm3,%mm2
    1c1a:	0f 6f 1c 25 00 00 00 	movq   0x0,%mm3
    1c21:	00 
    1c22:	0f 74 fb             	pcmpeqb %mm3,%mm7
    1c25:	0f 74 f3             	pcmpeqb %mm3,%mm6
    1c28:	0f 74 d3             	pcmpeqb %mm3,%mm2
    1c2b:	0f fc f7             	paddb  %mm7,%mm6
    1c2e:	0f fc d6             	paddb  %mm6,%mm2
    1c31:	0f e0 e9             	pavgb  %mm1,%mm5
    1c34:	0f 6f 34 70          	movq   (%rax,%rsi,2),%mm6
    1c38:	0f 6f fe             	movq   %mm6,%mm7
    1c3b:	0f d8 71 78          	psubusb 0x78(%rcx),%mm6
    1c3f:	0f dc 79 78          	paddusb 0x78(%rcx),%mm7
    1c43:	0f de ee             	pmaxub %mm6,%mm5
    1c46:	0f da ef             	pminub %mm7,%mm5
    1c49:	0f fc e2             	paddb  %mm2,%mm4
    1c4c:	0f fc e0             	paddb  %mm0,%mm4
    1c4f:	0f db 24 25 00 00 00 	pand   0x0,%mm4
    1c56:	00 
    1c57:	0f 74 e3             	pcmpeqb %mm3,%mm4
    1c5a:	0f db ec             	pand   %mm4,%mm5
    1c5d:	0f df 24 70          	pandn  (%rax,%rsi,2),%mm4
    1c61:	0f eb e5             	por    %mm5,%mm4
    1c64:	0f 7f 24 70          	movq   %mm4,(%rax,%rsi,2)
    1c68:	41 0f 6f 58 08       	movq   0x8(%r8),%mm3
    1c6d:	0f 6f 22             	movq   (%rdx),%mm4
    1c70:	0f 6f ec             	movq   %mm4,%mm5
    1c73:	0f 6f f4             	movq   %mm4,%mm6
    1c76:	0f 73 f5 08          	psllq  $0x8,%mm5
    1c7a:	0f 73 d6 08          	psrlq  $0x8,%mm6
    1c7e:	0f 6e 7a fc          	movd   -0x4(%rdx),%mm7
    1c82:	0f 73 d7 18          	psrlq  $0x18,%mm7
    1c86:	0f eb ef             	por    %mm7,%mm5
    1c89:	0f 6e 7a 08          	movd   0x8(%rdx),%mm7
    1c8d:	0f 73 f7 38          	psllq  $0x38,%mm7
    1c91:	0f eb f7             	por    %mm7,%mm6
    1c94:	0f 6f fd             	movq   %mm5,%mm7
    1c97:	0f e0 ee             	pavgb  %mm6,%mm5
    1c9a:	0f e0 ec             	pavgb  %mm4,%mm5
    1c9d:	0f e0 cd             	pavgb  %mm5,%mm1
    1ca0:	41 0f 7f 68 08       	movq   %mm5,0x8(%r8)
    1ca5:	41 0f 6f 28          	movq   (%r8),%mm5
    1ca9:	0f d8 fd             	psubusb %mm5,%mm7
    1cac:	0f d8 f5             	psubusb %mm5,%mm6
    1caf:	0f d8 e5             	psubusb %mm5,%mm4
    1cb2:	0f 6f 2c 25 00 00 00 	movq   0x0,%mm5
    1cb9:	00 
    1cba:	0f 74 fd             	pcmpeqb %mm5,%mm7
    1cbd:	0f 74 f5             	pcmpeqb %mm5,%mm6
    1cc0:	0f 74 e5             	pcmpeqb %mm5,%mm4
    1cc3:	0f fc f7             	paddb  %mm7,%mm6
    1cc6:	0f fc e6             	paddb  %mm6,%mm4
    1cc9:	0f e0 cb             	pavgb  %mm3,%mm1
    1ccc:	0f 6f 34 b7          	movq   (%rdi,%rsi,4),%mm6
    1cd0:	0f 6f fe             	movq   %mm6,%mm7
    1cd3:	0f d8 71 78          	psubusb 0x78(%rcx),%mm6
    1cd7:	0f dc 79 78          	paddusb 0x78(%rcx),%mm7
    1cdb:	0f de ce             	pmaxub %mm6,%mm1
    1cde:	0f da cf             	pminub %mm7,%mm1
    1ce1:	0f fc c4             	paddb  %mm4,%mm0
    1ce4:	0f fc c2             	paddb  %mm2,%mm0
    1ce7:	0f db 04 25 00 00 00 	pand   0x0,%mm0
    1cee:	00 
    1cef:	0f 74 c5             	pcmpeqb %mm5,%mm0
    1cf2:	0f db c8             	pand   %mm0,%mm1
    1cf5:	0f df 04 b7          	pandn  (%rdi,%rsi,4),%mm0
    1cf9:	0f eb c1             	por    %mm1,%mm0
    1cfc:	0f 7f 04 b7          	movq   %mm0,(%rdi,%rsi,4)
    1d00:	41 0f 6f 68 08       	movq   0x8(%r8),%mm5
    1d05:	0f 6f 04 32          	movq   (%rdx,%rsi,1),%mm0
    1d09:	0f 6f c8             	movq   %mm0,%mm1
    1d0c:	0f 6f f0             	movq   %mm0,%mm6
    1d0f:	0f 73 f1 08          	psllq  $0x8,%mm1
    1d13:	0f 73 d6 08          	psrlq  $0x8,%mm6
    1d17:	0f 6e 7c 32 fc       	movd   -0x4(%rdx,%rsi,1),%mm7
    1d1c:	0f 73 d7 18          	psrlq  $0x18,%mm7
    1d20:	0f eb cf             	por    %mm7,%mm1
    1d23:	0f 6e 7c 32 08       	movd   0x8(%rdx,%rsi,1),%mm7
    1d28:	0f 73 f7 38          	psllq  $0x38,%mm7
    1d2c:	0f eb f7             	por    %mm7,%mm6
    1d2f:	0f 6f f9             	movq   %mm1,%mm7
    1d32:	0f e0 ce             	pavgb  %mm6,%mm1
    1d35:	0f e0 c8             	pavgb  %mm0,%mm1
    1d38:	0f e0 d9             	pavgb  %mm1,%mm3
    1d3b:	41 0f 7f 48 08       	movq   %mm1,0x8(%r8)
    1d40:	41 0f 6f 08          	movq   (%r8),%mm1
    1d44:	0f d8 f9             	psubusb %mm1,%mm7
    1d47:	0f d8 f1             	psubusb %mm1,%mm6
    1d4a:	0f d8 c1             	psubusb %mm1,%mm0
    1d4d:	0f 6f 0c 25 00 00 00 	movq   0x0,%mm1
    1d54:	00 
    1d55:	0f 74 f9             	pcmpeqb %mm1,%mm7
    1d58:	0f 74 f1             	pcmpeqb %mm1,%mm6
    1d5b:	0f 74 c1             	pcmpeqb %mm1,%mm0
    1d5e:	0f fc f7             	paddb  %mm7,%mm6
    1d61:	0f fc c6             	paddb  %mm6,%mm0
    1d64:	0f e0 dd             	pavgb  %mm5,%mm3
    1d67:	0f 6f 32             	movq   (%rdx),%mm6
    1d6a:	0f 6f fe             	movq   %mm6,%mm7
    1d6d:	0f d8 71 78          	psubusb 0x78(%rcx),%mm6
    1d71:	0f dc 79 78          	paddusb 0x78(%rcx),%mm7
    1d75:	0f de de             	pmaxub %mm6,%mm3
    1d78:	0f da df             	pminub %mm7,%mm3
    1d7b:	0f fc d0             	paddb  %mm0,%mm2
    1d7e:	0f fc d4             	paddb  %mm4,%mm2
    1d81:	0f db 14 25 00 00 00 	pand   0x0,%mm2
    1d88:	00 
    1d89:	0f 74 d1             	pcmpeqb %mm1,%mm2
    1d8c:	0f db da             	pand   %mm2,%mm3
    1d8f:	0f df 12             	pandn  (%rdx),%mm2
    1d92:	0f eb d3             	por    %mm3,%mm2
    1d95:	0f 7f 12             	movq   %mm2,(%rdx)
    1d98:	41 0f 6f 48 08       	movq   0x8(%r8),%mm1
    1d9d:	0f 6f 14 72          	movq   (%rdx,%rsi,2),%mm2
    1da1:	0f 6f da             	movq   %mm2,%mm3
    1da4:	0f 6f f2             	movq   %mm2,%mm6
    1da7:	0f 73 f3 08          	psllq  $0x8,%mm3
    1dab:	0f 73 d6 08          	psrlq  $0x8,%mm6
    1daf:	0f 6e 7c 72 fc       	movd   -0x4(%rdx,%rsi,2),%mm7
    1db4:	0f 73 d7 18          	psrlq  $0x18,%mm7
    1db8:	0f eb df             	por    %mm7,%mm3
    1dbb:	0f 6e 7c 72 08       	movd   0x8(%rdx,%rsi,2),%mm7
    1dc0:	0f 73 f7 38          	psllq  $0x38,%mm7
    1dc4:	0f eb f7             	por    %mm7,%mm6
    1dc7:	0f 6f fb             	movq   %mm3,%mm7
    1dca:	0f e0 de             	pavgb  %mm6,%mm3
    1dcd:	0f e0 da             	pavgb  %mm2,%mm3
    1dd0:	0f e0 eb             	pavgb  %mm3,%mm5
    1dd3:	41 0f 7f 58 08       	movq   %mm3,0x8(%r8)
    1dd8:	41 0f 6f 18          	movq   (%r8),%mm3
    1ddc:	0f d8 fb             	psubusb %mm3,%mm7
    1ddf:	0f d8 f3             	psubusb %mm3,%mm6
    1de2:	0f d8 d3             	psubusb %mm3,%mm2
    1de5:	0f 6f 1c 25 00 00 00 	movq   0x0,%mm3
    1dec:	00 
    1ded:	0f 74 fb             	pcmpeqb %mm3,%mm7
    1df0:	0f 74 f3             	pcmpeqb %mm3,%mm6
    1df3:	0f 74 d3             	pcmpeqb %mm3,%mm2
    1df6:	0f fc f7             	paddb  %mm7,%mm6
    1df9:	0f fc d6             	paddb  %mm6,%mm2
    1dfc:	0f e0 e9             	pavgb  %mm1,%mm5
    1dff:	0f 6f 34 32          	movq   (%rdx,%rsi,1),%mm6
    1e03:	0f 6f fe             	movq   %mm6,%mm7
    1e06:	0f d8 71 78          	psubusb 0x78(%rcx),%mm6
    1e0a:	0f dc 79 78          	paddusb 0x78(%rcx),%mm7
    1e0e:	0f de ee             	pmaxub %mm6,%mm5
    1e11:	0f da ef             	pminub %mm7,%mm5
    1e14:	0f fc e2             	paddb  %mm2,%mm4
    1e17:	0f fc e0             	paddb  %mm0,%mm4
    1e1a:	0f db 24 25 00 00 00 	pand   0x0,%mm4
    1e21:	00 
    1e22:	0f 74 e3             	pcmpeqb %mm3,%mm4
    1e25:	0f db ec             	pand   %mm4,%mm5
    1e28:	0f df 24 32          	pandn  (%rdx,%rsi,1),%mm4
    1e2c:	0f eb e5             	por    %mm5,%mm4
    1e2f:	0f 7f 24 32          	movq   %mm4,(%rdx,%rsi,1)
    1e33:	41 0f 6f 58 08       	movq   0x8(%r8),%mm3
    1e38:	0f 6f 24 f7          	movq   (%rdi,%rsi,8),%mm4
    1e3c:	0f 6f ec             	movq   %mm4,%mm5
    1e3f:	0f 6f f4             	movq   %mm4,%mm6
    1e42:	0f 73 f5 08          	psllq  $0x8,%mm5
    1e46:	0f 73 d6 08          	psrlq  $0x8,%mm6
    1e4a:	0f 6e 7c f7 fc       	movd   -0x4(%rdi,%rsi,8),%mm7
    1e4f:	0f 73 d7 18          	psrlq  $0x18,%mm7
    1e53:	0f eb ef             	por    %mm7,%mm5
    1e56:	0f 6e 7c f7 08       	movd   0x8(%rdi,%rsi,8),%mm7
    1e5b:	0f 73 f7 38          	psllq  $0x38,%mm7
    1e5f:	0f eb f7             	por    %mm7,%mm6
    1e62:	0f 6f fd             	movq   %mm5,%mm7
    1e65:	0f e0 ee             	pavgb  %mm6,%mm5
    1e68:	0f e0 ec             	pavgb  %mm4,%mm5
    1e6b:	0f e0 cd             	pavgb  %mm5,%mm1
    1e6e:	41 0f 7f 68 08       	movq   %mm5,0x8(%r8)
    1e73:	41 0f 6f 28          	movq   (%r8),%mm5
    1e77:	0f d8 fd             	psubusb %mm5,%mm7
    1e7a:	0f d8 f5             	psubusb %mm5,%mm6
    1e7d:	0f d8 e5             	psubusb %mm5,%mm4
    1e80:	0f 6f 2c 25 00 00 00 	movq   0x0,%mm5
    1e87:	00 
    1e88:	0f 74 fd             	pcmpeqb %mm5,%mm7
    1e8b:	0f 74 f5             	pcmpeqb %mm5,%mm6
    1e8e:	0f 74 e5             	pcmpeqb %mm5,%mm4
    1e91:	0f fc f7             	paddb  %mm7,%mm6
    1e94:	0f fc e6             	paddb  %mm6,%mm4
    1e97:	0f e0 cb             	pavgb  %mm3,%mm1
    1e9a:	0f 6f 34 72          	movq   (%rdx,%rsi,2),%mm6
    1e9e:	0f 6f fe             	movq   %mm6,%mm7
    1ea1:	0f d8 71 78          	psubusb 0x78(%rcx),%mm6
    1ea5:	0f dc 79 78          	paddusb 0x78(%rcx),%mm7
    1ea9:	0f de ce             	pmaxub %mm6,%mm1
    1eac:	0f da cf             	pminub %mm7,%mm1
    1eaf:	0f fc c4             	paddb  %mm4,%mm0
    1eb2:	0f fc c2             	paddb  %mm2,%mm0
    1eb5:	0f db 04 25 00 00 00 	pand   0x0,%mm0
    1ebc:	00 
    1ebd:	0f 74 c5             	pcmpeqb %mm5,%mm0
    1ec0:	0f db c8             	pand   %mm0,%mm1
    1ec3:	0f df 04 72          	pandn  (%rdx,%rsi,2),%mm0
    1ec7:	0f eb c1             	por    %mm1,%mm0
    1eca:	0f 7f 04 72          	movq   %mm0,(%rdx,%rsi,2)
    1ece:	41 0f 6f 68 08       	movq   0x8(%r8),%mm5
    1ed3:	0f 6f 04 b2          	movq   (%rdx,%rsi,4),%mm0
    1ed7:	0f 6f c8             	movq   %mm0,%mm1
    1eda:	0f 6f f0             	movq   %mm0,%mm6
    1edd:	0f 73 f1 08          	psllq  $0x8,%mm1
    1ee1:	0f 73 d6 08          	psrlq  $0x8,%mm6
    1ee5:	0f 6e 7c b2 fc       	movd   -0x4(%rdx,%rsi,4),%mm7
    1eea:	0f 73 d7 18          	psrlq  $0x18,%mm7
    1eee:	0f eb cf             	por    %mm7,%mm1
    1ef1:	0f 6e 7c b2 08       	movd   0x8(%rdx,%rsi,4),%mm7
    1ef6:	0f 73 f7 38          	psllq  $0x38,%mm7
    1efa:	0f eb f7             	por    %mm7,%mm6
    1efd:	0f 6f f9             	movq   %mm1,%mm7
    1f00:	0f e0 ce             	pavgb  %mm6,%mm1
    1f03:	0f e0 c8             	pavgb  %mm0,%mm1
    1f06:	0f e0 d9             	pavgb  %mm1,%mm3
    1f09:	41 0f 7f 48 08       	movq   %mm1,0x8(%r8)
    1f0e:	41 0f 6f 08          	movq   (%r8),%mm1
    1f12:	0f d8 f9             	psubusb %mm1,%mm7
    1f15:	0f d8 f1             	psubusb %mm1,%mm6
    1f18:	0f d8 c1             	psubusb %mm1,%mm0
    1f1b:	0f 6f 0c 25 00 00 00 	movq   0x0,%mm1
    1f22:	00 
    1f23:	0f 74 f9             	pcmpeqb %mm1,%mm7
    1f26:	0f 74 f1             	pcmpeqb %mm1,%mm6
    1f29:	0f 74 c1             	pcmpeqb %mm1,%mm0
    1f2c:	0f fc f7             	paddb  %mm7,%mm6
    1f2f:	0f fc c6             	paddb  %mm6,%mm0
    1f32:	0f e0 dd             	pavgb  %mm5,%mm3
    1f35:	0f 6f 34 f7          	movq   (%rdi,%rsi,8),%mm6
    1f39:	0f 6f fe             	movq   %mm6,%mm7
    1f3c:	0f d8 71 78          	psubusb 0x78(%rcx),%mm6
    1f40:	0f dc 79 78          	paddusb 0x78(%rcx),%mm7
    1f44:	0f de de             	pmaxub %mm6,%mm3
    1f47:	0f da df             	pminub %mm7,%mm3
    1f4a:	0f fc d0             	paddb  %mm0,%mm2
    1f4d:	0f fc d4             	paddb  %mm4,%mm2
    1f50:	0f db 14 25 00 00 00 	pand   0x0,%mm2
    1f57:	00 
    1f58:	0f 74 d1             	pcmpeqb %mm1,%mm2
    1f5b:	0f db da             	pand   %mm2,%mm3
    1f5e:	0f df 14 f7          	pandn  (%rdi,%rsi,8),%mm2
    1f62:	0f eb d3             	por    %mm3,%mm2
    1f65:	0f 7f 14 f7          	movq   %mm2,(%rdi,%rsi,8)
    1f69:	41 0f 6f 48 08       	movq   0x8(%r8),%mm1
    1f6e:	c3                   	retq   

0000000000001f6f <deInterlaceInterpolateCubic_MMX2>:
    1f6f:	8d 04 76             	lea    (%rsi,%rsi,2),%eax
    1f72:	48 98                	cltq   
    1f74:	48 01 c7             	add    %rax,%rdi
    1f77:	48 63 f6             	movslq %esi,%rsi
    1f7a:	48 8d 04 37          	lea    (%rdi,%rsi,1),%rax
    1f7e:	48 8d 14 b0          	lea    (%rax,%rsi,4),%rdx
    1f82:	48 8d 0c b2          	lea    (%rdx,%rsi,4),%rcx
    1f86:	48 01 f1             	add    %rsi,%rcx
    1f89:	0f ef ff             	pxor   %mm7,%mm7
    1f8c:	0f 6f 07             	movq   (%rdi),%mm0
    1f8f:	0f 6f 0c 30          	movq   (%rax,%rsi,1),%mm1
    1f93:	0f 6f 14 b7          	movq   (%rdi,%rsi,4),%mm2
    1f97:	0f 6f 1c 32          	movq   (%rdx,%rsi,1),%mm3
    1f9b:	0f e0 ca             	pavgb  %mm2,%mm1
    1f9e:	0f e0 c3             	pavgb  %mm3,%mm0
    1fa1:	0f 6f d0             	movq   %mm0,%mm2
    1fa4:	0f 60 c7             	punpcklbw %mm7,%mm0
    1fa7:	0f 68 d7             	punpckhbw %mm7,%mm2
    1faa:	0f 6f d9             	movq   %mm1,%mm3
    1fad:	0f 60 cf             	punpcklbw %mm7,%mm1
    1fb0:	0f 68 df             	punpckhbw %mm7,%mm3
    1fb3:	0f f9 c1             	psubw  %mm1,%mm0
    1fb6:	0f f9 d3             	psubw  %mm3,%mm2
    1fb9:	0f 71 e0 03          	psraw  $0x3,%mm0
    1fbd:	0f 71 e2 03          	psraw  $0x3,%mm2
    1fc1:	0f f9 c8             	psubw  %mm0,%mm1
    1fc4:	0f f9 da             	psubw  %mm2,%mm3
    1fc7:	0f 67 cb             	packuswb %mm3,%mm1
    1fca:	0f 7f 0c 70          	movq   %mm1,(%rax,%rsi,2)
    1fce:	0f 6f 04 30          	movq   (%rax,%rsi,1),%mm0
    1fd2:	0f 6f 0c b7          	movq   (%rdi,%rsi,4),%mm1
    1fd6:	0f 6f 14 32          	movq   (%rdx,%rsi,1),%mm2
    1fda:	0f 6f 1c f7          	movq   (%rdi,%rsi,8),%mm3
    1fde:	0f e0 ca             	pavgb  %mm2,%mm1
    1fe1:	0f e0 c3             	pavgb  %mm3,%mm0
    1fe4:	0f 6f d0             	movq   %mm0,%mm2
    1fe7:	0f 60 c7             	punpcklbw %mm7,%mm0
    1fea:	0f 68 d7             	punpckhbw %mm7,%mm2
    1fed:	0f 6f d9             	movq   %mm1,%mm3
    1ff0:	0f 60 cf             	punpcklbw %mm7,%mm1
    1ff3:	0f 68 df             	punpckhbw %mm7,%mm3
    1ff6:	0f f9 c1             	psubw  %mm1,%mm0
    1ff9:	0f f9 d3             	psubw  %mm3,%mm2
    1ffc:	0f 71 e0 03          	psraw  $0x3,%mm0
    2000:	0f 71 e2 03          	psraw  $0x3,%mm2
    2004:	0f f9 c8             	psubw  %mm0,%mm1
    2007:	0f f9 da             	psubw  %mm2,%mm3
    200a:	0f 67 cb             	packuswb %mm3,%mm1
    200d:	0f 7f 0a             	movq   %mm1,(%rdx)
    2010:	0f 6f 04 b7          	movq   (%rdi,%rsi,4),%mm0
    2014:	0f 6f 0c 32          	movq   (%rdx,%rsi,1),%mm1
    2018:	0f 6f 14 f7          	movq   (%rdi,%rsi,8),%mm2
    201c:	0f 6f 19             	movq   (%rcx),%mm3
    201f:	0f e0 ca             	pavgb  %mm2,%mm1
    2022:	0f e0 c3             	pavgb  %mm3,%mm0
    2025:	0f 6f d0             	movq   %mm0,%mm2
    2028:	0f 60 c7             	punpcklbw %mm7,%mm0
    202b:	0f 68 d7             	punpckhbw %mm7,%mm2
    202e:	0f 6f d9             	movq   %mm1,%mm3
    2031:	0f 60 cf             	punpcklbw %mm7,%mm1
    2034:	0f 68 df             	punpckhbw %mm7,%mm3
    2037:	0f f9 c1             	psubw  %mm1,%mm0
    203a:	0f f9 d3             	psubw  %mm3,%mm2
    203d:	0f 71 e0 03          	psraw  $0x3,%mm0
    2041:	0f 71 e2 03          	psraw  $0x3,%mm2
    2045:	0f f9 c8             	psubw  %mm0,%mm1
    2048:	0f f9 da             	psubw  %mm2,%mm3
    204b:	0f 67 cb             	packuswb %mm3,%mm1
    204e:	0f 7f 0c 72          	movq   %mm1,(%rdx,%rsi,2)
    2052:	0f 6f 04 32          	movq   (%rdx,%rsi,1),%mm0
    2056:	0f 6f 0c f7          	movq   (%rdi,%rsi,8),%mm1
    205a:	0f 6f 11             	movq   (%rcx),%mm2
    205d:	0f 6f 1c 71          	movq   (%rcx,%rsi,2),%mm3
    2061:	0f e0 ca             	pavgb  %mm2,%mm1
    2064:	0f e0 c3             	pavgb  %mm3,%mm0
    2067:	0f 6f d0             	movq   %mm0,%mm2
    206a:	0f 60 c7             	punpcklbw %mm7,%mm0
    206d:	0f 68 d7             	punpckhbw %mm7,%mm2
    2070:	0f 6f d9             	movq   %mm1,%mm3
    2073:	0f 60 cf             	punpcklbw %mm7,%mm1
    2076:	0f 68 df             	punpckhbw %mm7,%mm3
    2079:	0f f9 c1             	psubw  %mm1,%mm0
    207c:	0f f9 d3             	psubw  %mm3,%mm2
    207f:	0f 71 e0 03          	psraw  $0x3,%mm0
    2083:	0f 71 e2 03          	psraw  $0x3,%mm2
    2087:	0f f9 c8             	psubw  %mm0,%mm1
    208a:	0f f9 da             	psubw  %mm2,%mm3
    208d:	0f 67 cb             	packuswb %mm3,%mm1
    2090:	0f 7f 0c b2          	movq   %mm1,(%rdx,%rsi,4)
    2094:	c3                   	retq   

0000000000002095 <deInterlaceFF_MMX2>:
    2095:	48 89 d1             	mov    %rdx,%rcx
    2098:	8d 04 b5 00 00 00 00 	lea    0x0(,%rsi,4),%eax
    209f:	48 98                	cltq   
    20a1:	48 01 c7             	add    %rax,%rdi
    20a4:	48 63 f6             	movslq %esi,%rsi
    20a7:	48 8d 04 37          	lea    (%rdi,%rsi,1),%rax
    20ab:	48 8d 14 b0          	lea    (%rax,%rsi,4),%rdx
    20af:	0f ef ff             	pxor   %mm7,%mm7
    20b2:	0f 6f 01             	movq   (%rcx),%mm0
    20b5:	0f 6f 0f             	movq   (%rdi),%mm1
    20b8:	0f 6f 10             	movq   (%rax),%mm2
    20bb:	0f 6f 1c 30          	movq   (%rax,%rsi,1),%mm3
    20bf:	0f 6f 24 70          	movq   (%rax,%rsi,2),%mm4
    20c3:	0f e0 cb             	pavgb  %mm3,%mm1
    20c6:	0f e0 c4             	pavgb  %mm4,%mm0
    20c9:	0f 6f d8             	movq   %mm0,%mm3
    20cc:	0f 60 c7             	punpcklbw %mm7,%mm0
    20cf:	0f 68 df             	punpckhbw %mm7,%mm3
    20d2:	0f 6f e1             	movq   %mm1,%mm4
    20d5:	0f 60 cf             	punpcklbw %mm7,%mm1
    20d8:	0f 68 e7             	punpckhbw %mm7,%mm4
    20db:	0f 71 f1 02          	psllw  $0x2,%mm1
    20df:	0f 71 f4 02          	psllw  $0x2,%mm4
    20e3:	0f f9 c8             	psubw  %mm0,%mm1
    20e6:	0f f9 e3             	psubw  %mm3,%mm4
    20e9:	0f 6f ea             	movq   %mm2,%mm5
    20ec:	0f 6f c2             	movq   %mm2,%mm0
    20ef:	0f 60 d7             	punpcklbw %mm7,%mm2
    20f2:	0f 68 ef             	punpckhbw %mm7,%mm5
    20f5:	0f fd ca             	paddw  %mm2,%mm1
    20f8:	0f fd e5             	paddw  %mm5,%mm4
    20fb:	0f 71 e1 02          	psraw  $0x2,%mm1
    20ff:	0f 71 e4 02          	psraw  $0x2,%mm4
    2103:	0f 67 cc             	packuswb %mm4,%mm1
    2106:	0f 7f 08             	movq   %mm1,(%rax)
    2109:	0f 6f 0c 30          	movq   (%rax,%rsi,1),%mm1
    210d:	0f 6f 14 70          	movq   (%rax,%rsi,2),%mm2
    2111:	0f 6f 1c b7          	movq   (%rdi,%rsi,4),%mm3
    2115:	0f 6f 22             	movq   (%rdx),%mm4
    2118:	0f e0 cb             	pavgb  %mm3,%mm1
    211b:	0f e0 c4             	pavgb  %mm4,%mm0
    211e:	0f 6f d8             	movq   %mm0,%mm3
    2121:	0f 60 c7             	punpcklbw %mm7,%mm0
    2124:	0f 68 df             	punpckhbw %mm7,%mm3
    2127:	0f 6f e1             	movq   %mm1,%mm4
    212a:	0f 60 cf             	punpcklbw %mm7,%mm1
    212d:	0f 68 e7             	punpckhbw %mm7,%mm4
    2130:	0f 71 f1 02          	psllw  $0x2,%mm1
    2134:	0f 71 f4 02          	psllw  $0x2,%mm4
    2138:	0f f9 c8             	psubw  %mm0,%mm1
    213b:	0f f9 e3             	psubw  %mm3,%mm4
    213e:	0f 6f ea             	movq   %mm2,%mm5
    2141:	0f 6f c2             	movq   %mm2,%mm0
    2144:	0f 60 d7             	punpcklbw %mm7,%mm2
    2147:	0f 68 ef             	punpckhbw %mm7,%mm5
    214a:	0f fd ca             	paddw  %mm2,%mm1
    214d:	0f fd e5             	paddw  %mm5,%mm4
    2150:	0f 71 e1 02          	psraw  $0x2,%mm1
    2154:	0f 71 e4 02          	psraw  $0x2,%mm4
    2158:	0f 67 cc             	packuswb %mm4,%mm1
    215b:	0f 7f 0c 70          	movq   %mm1,(%rax,%rsi,2)
    215f:	0f 6f 0c b7          	movq   (%rdi,%rsi,4),%mm1
    2163:	0f 6f 12             	movq   (%rdx),%mm2
    2166:	0f 6f 1c 32          	movq   (%rdx,%rsi,1),%mm3
    216a:	0f 6f 24 72          	movq   (%rdx,%rsi,2),%mm4
    216e:	0f e0 cb             	pavgb  %mm3,%mm1
    2171:	0f e0 c4             	pavgb  %mm4,%mm0
    2174:	0f 6f d8             	movq   %mm0,%mm3
    2177:	0f 60 c7             	punpcklbw %mm7,%mm0
    217a:	0f 68 df             	punpckhbw %mm7,%mm3
    217d:	0f 6f e1             	movq   %mm1,%mm4
    2180:	0f 60 cf             	punpcklbw %mm7,%mm1
    2183:	0f 68 e7             	punpckhbw %mm7,%mm4
    2186:	0f 71 f1 02          	psllw  $0x2,%mm1
    218a:	0f 71 f4 02          	psllw  $0x2,%mm4
    218e:	0f f9 c8             	psubw  %mm0,%mm1
    2191:	0f f9 e3             	psubw  %mm3,%mm4
    2194:	0f 6f ea             	movq   %mm2,%mm5
    2197:	0f 6f c2             	movq   %mm2,%mm0
    219a:	0f 60 d7             	punpcklbw %mm7,%mm2
    219d:	0f 68 ef             	punpckhbw %mm7,%mm5
    21a0:	0f fd ca             	paddw  %mm2,%mm1
    21a3:	0f fd e5             	paddw  %mm5,%mm4
    21a6:	0f 71 e1 02          	psraw  $0x2,%mm1
    21aa:	0f 71 e4 02          	psraw  $0x2,%mm4
    21ae:	0f 67 cc             	packuswb %mm4,%mm1
    21b1:	0f 7f 0a             	movq   %mm1,(%rdx)
    21b4:	0f 6f 0c 32          	movq   (%rdx,%rsi,1),%mm1
    21b8:	0f 6f 14 72          	movq   (%rdx,%rsi,2),%mm2
    21bc:	0f 6f 1c f7          	movq   (%rdi,%rsi,8),%mm3
    21c0:	0f 6f 24 b2          	movq   (%rdx,%rsi,4),%mm4
    21c4:	0f e0 cb             	pavgb  %mm3,%mm1
    21c7:	0f e0 c4             	pavgb  %mm4,%mm0
    21ca:	0f 6f d8             	movq   %mm0,%mm3
    21cd:	0f 60 c7             	punpcklbw %mm7,%mm0
    21d0:	0f 68 df             	punpckhbw %mm7,%mm3
    21d3:	0f 6f e1             	movq   %mm1,%mm4
    21d6:	0f 60 cf             	punpcklbw %mm7,%mm1
    21d9:	0f 68 e7             	punpckhbw %mm7,%mm4
    21dc:	0f 71 f1 02          	psllw  $0x2,%mm1
    21e0:	0f 71 f4 02          	psllw  $0x2,%mm4
    21e4:	0f f9 c8             	psubw  %mm0,%mm1
    21e7:	0f f9 e3             	psubw  %mm3,%mm4
    21ea:	0f 6f ea             	movq   %mm2,%mm5
    21ed:	0f 6f c2             	movq   %mm2,%mm0
    21f0:	0f 60 d7             	punpcklbw %mm7,%mm2
    21f3:	0f 68 ef             	punpckhbw %mm7,%mm5
    21f6:	0f fd ca             	paddw  %mm2,%mm1
    21f9:	0f fd e5             	paddw  %mm5,%mm4
    21fc:	0f 71 e1 02          	psraw  $0x2,%mm1
    2200:	0f 71 e4 02          	psraw  $0x2,%mm4
    2204:	0f 67 cc             	packuswb %mm4,%mm1
    2207:	0f 7f 0c 72          	movq   %mm1,(%rdx,%rsi,2)
    220b:	0f 7f 01             	movq   %mm0,(%rcx)
    220e:	c3                   	retq   

000000000000220f <deInterlaceL5_MMX2>:
    220f:	49 89 d0             	mov    %rdx,%r8
    2212:	8d 04 b5 00 00 00 00 	lea    0x0(,%rsi,4),%eax
    2219:	48 98                	cltq   
    221b:	48 01 c7             	add    %rax,%rdi
    221e:	48 63 f6             	movslq %esi,%rsi
    2221:	48 8d 04 37          	lea    (%rdi,%rsi,1),%rax
    2225:	48 8d 14 b0          	lea    (%rax,%rsi,4),%rdx
    2229:	0f ef ff             	pxor   %mm7,%mm7
    222c:	41 0f 6f 00          	movq   (%r8),%mm0
    2230:	0f 6f 09             	movq   (%rcx),%mm1
    2233:	0f 6f 17             	movq   (%rdi),%mm2
    2236:	0f 6f 18             	movq   (%rax),%mm3
    2239:	0f 6f 24 30          	movq   (%rax,%rsi,1),%mm4
    223d:	0f e0 d9             	pavgb  %mm1,%mm3
    2240:	0f e0 e0             	pavgb  %mm0,%mm4
    2243:	0f 6f ea             	movq   %mm2,%mm5
    2246:	0f 6f c2             	movq   %mm2,%mm0
    2249:	0f 60 d7             	punpcklbw %mm7,%mm2
    224c:	0f 68 ef             	punpckhbw %mm7,%mm5
    224f:	0f 6f f2             	movq   %mm2,%mm6
    2252:	0f fd d2             	paddw  %mm2,%mm2
    2255:	0f fd d6             	paddw  %mm6,%mm2
    2258:	0f 6f f5             	movq   %mm5,%mm6
    225b:	0f fd ed             	paddw  %mm5,%mm5
    225e:	0f fd ee             	paddw  %mm6,%mm5
    2261:	0f 6f f3             	movq   %mm3,%mm6
    2264:	0f 60 df             	punpcklbw %mm7,%mm3
    2267:	0f 68 f7             	punpckhbw %mm7,%mm6
    226a:	0f fd db             	paddw  %mm3,%mm3
    226d:	0f fd f6             	paddw  %mm6,%mm6
    2270:	0f fd d3             	paddw  %mm3,%mm2
    2273:	0f fd ee             	paddw  %mm6,%mm5
    2276:	0f 6f f4             	movq   %mm4,%mm6
    2279:	0f 60 e7             	punpcklbw %mm7,%mm4
    227c:	0f 68 f7             	punpckhbw %mm7,%mm6
    227f:	0f f9 d4             	psubw  %mm4,%mm2
    2282:	0f f9 ee             	psubw  %mm6,%mm5
    2285:	0f 71 e2 02          	psraw  $0x2,%mm2
    2289:	0f 71 e5 02          	psraw  $0x2,%mm5
    228d:	0f 67 d5             	packuswb %mm5,%mm2
    2290:	0f 7f 17             	movq   %mm2,(%rdi)
    2293:	0f 6f 10             	movq   (%rax),%mm2
    2296:	0f 6f 1c 30          	movq   (%rax,%rsi,1),%mm3
    229a:	0f 6f 24 70          	movq   (%rax,%rsi,2),%mm4
    229e:	0f e0 d8             	pavgb  %mm0,%mm3
    22a1:	0f e0 e1             	pavgb  %mm1,%mm4
    22a4:	0f 6f ea             	movq   %mm2,%mm5
    22a7:	0f 6f ca             	movq   %mm2,%mm1
    22aa:	0f 60 d7             	punpcklbw %mm7,%mm2
    22ad:	0f 68 ef             	punpckhbw %mm7,%mm5
    22b0:	0f 6f f2             	movq   %mm2,%mm6
    22b3:	0f fd d2             	paddw  %mm2,%mm2
    22b6:	0f fd d6             	paddw  %mm6,%mm2
    22b9:	0f 6f f5             	movq   %mm5,%mm6
    22bc:	0f fd ed             	paddw  %mm5,%mm5
    22bf:	0f fd ee             	paddw  %mm6,%mm5
    22c2:	0f 6f f3             	movq   %mm3,%mm6
    22c5:	0f 60 df             	punpcklbw %mm7,%mm3
    22c8:	0f 68 f7             	punpckhbw %mm7,%mm6
    22cb:	0f fd db             	paddw  %mm3,%mm3
    22ce:	0f fd f6             	paddw  %mm6,%mm6
    22d1:	0f fd d3             	paddw  %mm3,%mm2
    22d4:	0f fd ee             	paddw  %mm6,%mm5
    22d7:	0f 6f f4             	movq   %mm4,%mm6
    22da:	0f 60 e7             	punpcklbw %mm7,%mm4
    22dd:	0f 68 f7             	punpckhbw %mm7,%mm6
    22e0:	0f f9 d4             	psubw  %mm4,%mm2
    22e3:	0f f9 ee             	psubw  %mm6,%mm5
    22e6:	0f 71 e2 02          	psraw  $0x2,%mm2
    22ea:	0f 71 e5 02          	psraw  $0x2,%mm5
    22ee:	0f 67 d5             	packuswb %mm5,%mm2
    22f1:	0f 7f 10             	movq   %mm2,(%rax)
    22f4:	0f 6f 14 30          	movq   (%rax,%rsi,1),%mm2
    22f8:	0f 6f 1c 70          	movq   (%rax,%rsi,2),%mm3
    22fc:	0f 6f 24 b7          	movq   (%rdi,%rsi,4),%mm4
    2300:	0f e0 d9             	pavgb  %mm1,%mm3
    2303:	0f e0 e0             	pavgb  %mm0,%mm4
    2306:	0f 6f ea             	movq   %mm2,%mm5
    2309:	0f 6f c2             	movq   %mm2,%mm0
    230c:	0f 60 d7             	punpcklbw %mm7,%mm2
    230f:	0f 68 ef             	punpckhbw %mm7,%mm5
    2312:	0f 6f f2             	movq   %mm2,%mm6
    2315:	0f fd d2             	paddw  %mm2,%mm2
    2318:	0f fd d6             	paddw  %mm6,%mm2
    231b:	0f 6f f5             	movq   %mm5,%mm6
    231e:	0f fd ed             	paddw  %mm5,%mm5
    2321:	0f fd ee             	paddw  %mm6,%mm5
    2324:	0f 6f f3             	movq   %mm3,%mm6
    2327:	0f 60 df             	punpcklbw %mm7,%mm3
    232a:	0f 68 f7             	punpckhbw %mm7,%mm6
    232d:	0f fd db             	paddw  %mm3,%mm3
    2330:	0f fd f6             	paddw  %mm6,%mm6
    2333:	0f fd d3             	paddw  %mm3,%mm2
    2336:	0f fd ee             	paddw  %mm6,%mm5
    2339:	0f 6f f4             	movq   %mm4,%mm6
    233c:	0f 60 e7             	punpcklbw %mm7,%mm4
    233f:	0f 68 f7             	punpckhbw %mm7,%mm6
    2342:	0f f9 d4             	psubw  %mm4,%mm2
    2345:	0f f9 ee             	psubw  %mm6,%mm5
    2348:	0f 71 e2 02          	psraw  $0x2,%mm2
    234c:	0f 71 e5 02          	psraw  $0x2,%mm5
    2350:	0f 67 d5             	packuswb %mm5,%mm2
    2353:	0f 7f 14 30          	movq   %mm2,(%rax,%rsi,1)
    2357:	0f 6f 14 70          	movq   (%rax,%rsi,2),%mm2
    235b:	0f 6f 1c b7          	movq   (%rdi,%rsi,4),%mm3
    235f:	0f 6f 22             	movq   (%rdx),%mm4
    2362:	0f e0 d8             	pavgb  %mm0,%mm3
    2365:	0f e0 e1             	pavgb  %mm1,%mm4
    2368:	0f 6f ea             	movq   %mm2,%mm5
    236b:	0f 6f ca             	movq   %mm2,%mm1
    236e:	0f 60 d7             	punpcklbw %mm7,%mm2
    2371:	0f 68 ef             	punpckhbw %mm7,%mm5
    2374:	0f 6f f2             	movq   %mm2,%mm6
    2377:	0f fd d2             	paddw  %mm2,%mm2
    237a:	0f fd d6             	paddw  %mm6,%mm2
    237d:	0f 6f f5             	movq   %mm5,%mm6
    2380:	0f fd ed             	paddw  %mm5,%mm5
    2383:	0f fd ee             	paddw  %mm6,%mm5
    2386:	0f 6f f3             	movq   %mm3,%mm6
    2389:	0f 60 df             	punpcklbw %mm7,%mm3
    238c:	0f 68 f7             	punpckhbw %mm7,%mm6
    238f:	0f fd db             	paddw  %mm3,%mm3
    2392:	0f fd f6             	paddw  %mm6,%mm6
    2395:	0f fd d3             	paddw  %mm3,%mm2
    2398:	0f fd ee             	paddw  %mm6,%mm5
    239b:	0f 6f f4             	movq   %mm4,%mm6
    239e:	0f 60 e7             	punpcklbw %mm7,%mm4
    23a1:	0f 68 f7             	punpckhbw %mm7,%mm6
    23a4:	0f f9 d4             	psubw  %mm4,%mm2
    23a7:	0f f9 ee             	psubw  %mm6,%mm5
    23aa:	0f 71 e2 02          	psraw  $0x2,%mm2
    23ae:	0f 71 e5 02          	psraw  $0x2,%mm5
    23b2:	0f 67 d5             	packuswb %mm5,%mm2
    23b5:	0f 7f 14 70          	movq   %mm2,(%rax,%rsi,2)
    23b9:	0f 6f 14 b7          	movq   (%rdi,%rsi,4),%mm2
    23bd:	0f 6f 1a             	movq   (%rdx),%mm3
    23c0:	0f 6f 24 32          	movq   (%rdx,%rsi,1),%mm4
    23c4:	0f e0 d9             	pavgb  %mm1,%mm3
    23c7:	0f e0 e0             	pavgb  %mm0,%mm4
    23ca:	0f 6f ea             	movq   %mm2,%mm5
    23cd:	0f 6f c2             	movq   %mm2,%mm0
    23d0:	0f 60 d7             	punpcklbw %mm7,%mm2
    23d3:	0f 68 ef             	punpckhbw %mm7,%mm5
    23d6:	0f 6f f2             	movq   %mm2,%mm6
    23d9:	0f fd d2             	paddw  %mm2,%mm2
    23dc:	0f fd d6             	paddw  %mm6,%mm2
    23df:	0f 6f f5             	movq   %mm5,%mm6
    23e2:	0f fd ed             	paddw  %mm5,%mm5
    23e5:	0f fd ee             	paddw  %mm6,%mm5
    23e8:	0f 6f f3             	movq   %mm3,%mm6
    23eb:	0f 60 df             	punpcklbw %mm7,%mm3
    23ee:	0f 68 f7             	punpckhbw %mm7,%mm6
    23f1:	0f fd db             	paddw  %mm3,%mm3
    23f4:	0f fd f6             	paddw  %mm6,%mm6
    23f7:	0f fd d3             	paddw  %mm3,%mm2
    23fa:	0f fd ee             	paddw  %mm6,%mm5
    23fd:	0f 6f f4             	movq   %mm4,%mm6
    2400:	0f 60 e7             	punpcklbw %mm7,%mm4
    2403:	0f 68 f7             	punpckhbw %mm7,%mm6
    2406:	0f f9 d4             	psubw  %mm4,%mm2
    2409:	0f f9 ee             	psubw  %mm6,%mm5
    240c:	0f 71 e2 02          	psraw  $0x2,%mm2
    2410:	0f 71 e5 02          	psraw  $0x2,%mm5
    2414:	0f 67 d5             	packuswb %mm5,%mm2
    2417:	0f 7f 14 b7          	movq   %mm2,(%rdi,%rsi,4)
    241b:	0f 6f 12             	movq   (%rdx),%mm2
    241e:	0f 6f 1c 32          	movq   (%rdx,%rsi,1),%mm3
    2422:	0f 6f 24 72          	movq   (%rdx,%rsi,2),%mm4
    2426:	0f e0 d8             	pavgb  %mm0,%mm3
    2429:	0f e0 e1             	pavgb  %mm1,%mm4
    242c:	0f 6f ea             	movq   %mm2,%mm5
    242f:	0f 6f ca             	movq   %mm2,%mm1
    2432:	0f 60 d7             	punpcklbw %mm7,%mm2
    2435:	0f 68 ef             	punpckhbw %mm7,%mm5
    2438:	0f 6f f2             	movq   %mm2,%mm6
    243b:	0f fd d2             	paddw  %mm2,%mm2
    243e:	0f fd d6             	paddw  %mm6,%mm2
    2441:	0f 6f f5             	movq   %mm5,%mm6
    2444:	0f fd ed             	paddw  %mm5,%mm5
    2447:	0f fd ee             	paddw  %mm6,%mm5
    244a:	0f 6f f3             	movq   %mm3,%mm6
    244d:	0f 60 df             	punpcklbw %mm7,%mm3
    2450:	0f 68 f7             	punpckhbw %mm7,%mm6
    2453:	0f fd db             	paddw  %mm3,%mm3
    2456:	0f fd f6             	paddw  %mm6,%mm6
    2459:	0f fd d3             	paddw  %mm3,%mm2
    245c:	0f fd ee             	paddw  %mm6,%mm5
    245f:	0f 6f f4             	movq   %mm4,%mm6
    2462:	0f 60 e7             	punpcklbw %mm7,%mm4
    2465:	0f 68 f7             	punpckhbw %mm7,%mm6
    2468:	0f f9 d4             	psubw  %mm4,%mm2
    246b:	0f f9 ee             	psubw  %mm6,%mm5
    246e:	0f 71 e2 02          	psraw  $0x2,%mm2
    2472:	0f 71 e5 02          	psraw  $0x2,%mm5
    2476:	0f 67 d5             	packuswb %mm5,%mm2
    2479:	0f 7f 12             	movq   %mm2,(%rdx)
    247c:	0f 6f 14 32          	movq   (%rdx,%rsi,1),%mm2
    2480:	0f 6f 1c 72          	movq   (%rdx,%rsi,2),%mm3
    2484:	0f 6f 24 f7          	movq   (%rdi,%rsi,8),%mm4
    2488:	0f e0 d9             	pavgb  %mm1,%mm3
    248b:	0f e0 e0             	pavgb  %mm0,%mm4
    248e:	0f 6f ea             	movq   %mm2,%mm5
    2491:	0f 6f c2             	movq   %mm2,%mm0
    2494:	0f 60 d7             	punpcklbw %mm7,%mm2
    2497:	0f 68 ef             	punpckhbw %mm7,%mm5
    249a:	0f 6f f2             	movq   %mm2,%mm6
    249d:	0f fd d2             	paddw  %mm2,%mm2
    24a0:	0f fd d6             	paddw  %mm6,%mm2
    24a3:	0f 6f f5             	movq   %mm5,%mm6
    24a6:	0f fd ed             	paddw  %mm5,%mm5
    24a9:	0f fd ee             	paddw  %mm6,%mm5
    24ac:	0f 6f f3             	movq   %mm3,%mm6
    24af:	0f 60 df             	punpcklbw %mm7,%mm3
    24b2:	0f 68 f7             	punpckhbw %mm7,%mm6
    24b5:	0f fd db             	paddw  %mm3,%mm3
    24b8:	0f fd f6             	paddw  %mm6,%mm6
    24bb:	0f fd d3             	paddw  %mm3,%mm2
    24be:	0f fd ee             	paddw  %mm6,%mm5
    24c1:	0f 6f f4             	movq   %mm4,%mm6
    24c4:	0f 60 e7             	punpcklbw %mm7,%mm4
    24c7:	0f 68 f7             	punpckhbw %mm7,%mm6
    24ca:	0f f9 d4             	psubw  %mm4,%mm2
    24cd:	0f f9 ee             	psubw  %mm6,%mm5
    24d0:	0f 71 e2 02          	psraw  $0x2,%mm2
    24d4:	0f 71 e5 02          	psraw  $0x2,%mm5
    24d8:	0f 67 d5             	packuswb %mm5,%mm2
    24db:	0f 7f 14 32          	movq   %mm2,(%rdx,%rsi,1)
    24df:	0f 6f 14 72          	movq   (%rdx,%rsi,2),%mm2
    24e3:	0f 6f 1c f7          	movq   (%rdi,%rsi,8),%mm3
    24e7:	0f 6f 24 b2          	movq   (%rdx,%rsi,4),%mm4
    24eb:	0f e0 d8             	pavgb  %mm0,%mm3
    24ee:	0f e0 e1             	pavgb  %mm1,%mm4
    24f1:	0f 6f ea             	movq   %mm2,%mm5
    24f4:	0f 6f ca             	movq   %mm2,%mm1
    24f7:	0f 60 d7             	punpcklbw %mm7,%mm2
    24fa:	0f 68 ef             	punpckhbw %mm7,%mm5
    24fd:	0f 6f f2             	movq   %mm2,%mm6
    2500:	0f fd d2             	paddw  %mm2,%mm2
    2503:	0f fd d6             	paddw  %mm6,%mm2
    2506:	0f 6f f5             	movq   %mm5,%mm6
    2509:	0f fd ed             	paddw  %mm5,%mm5
    250c:	0f fd ee             	paddw  %mm6,%mm5
    250f:	0f 6f f3             	movq   %mm3,%mm6
    2512:	0f 60 df             	punpcklbw %mm7,%mm3
    2515:	0f 68 f7             	punpckhbw %mm7,%mm6
    2518:	0f fd db             	paddw  %mm3,%mm3
    251b:	0f fd f6             	paddw  %mm6,%mm6
    251e:	0f fd d3             	paddw  %mm3,%mm2
    2521:	0f fd ee             	paddw  %mm6,%mm5
    2524:	0f 6f f4             	movq   %mm4,%mm6
    2527:	0f 60 e7             	punpcklbw %mm7,%mm4
    252a:	0f 68 f7             	punpckhbw %mm7,%mm6
    252d:	0f f9 d4             	psubw  %mm4,%mm2
    2530:	0f f9 ee             	psubw  %mm6,%mm5
    2533:	0f 71 e2 02          	psraw  $0x2,%mm2
    2537:	0f 71 e5 02          	psraw  $0x2,%mm5
    253b:	0f 67 d5             	packuswb %mm5,%mm2
    253e:	0f 7f 14 72          	movq   %mm2,(%rdx,%rsi,2)
    2542:	41 0f 7f 00          	movq   %mm0,(%r8)
    2546:	0f 7f 09             	movq   %mm1,(%rcx)
    2549:	c3                   	retq   

000000000000254a <tempNoiseReducer_MMX2>:
    254a:	49 89 d1             	mov    %rdx,%r9
    254d:	48 89 4c 24 f8       	mov    %rcx,-0x8(%rsp)
    2552:	41 8b 00             	mov    (%r8),%eax
    2555:	89 81 fc 01 00 00    	mov    %eax,0x1fc(%rcx)
    255b:	41 8b 40 04          	mov    0x4(%r8),%eax
    255f:	89 81 00 02 00 00    	mov    %eax,0x200(%rcx)
    2565:	41 8b 40 08          	mov    0x8(%r8),%eax
    2569:	89 81 04 02 00 00    	mov    %eax,0x204(%rcx)
    256f:	48 63 f6             	movslq %esi,%rsi
    2572:	48 8d 04 76          	lea    (%rsi,%rsi,2),%rax
    2576:	48 8d 14 b6          	lea    (%rsi,%rsi,4),%rdx
    257a:	48 8d 0c 72          	lea    (%rdx,%rsi,2),%rcx
    257e:	0f 74 ff             	pcmpeqb %mm7,%mm7
    2581:	0f 6f 34 25 00 00 00 	movq   0x0,%mm6
    2588:	00 
    2589:	0f ef c0             	pxor   %mm0,%mm0
    258c:	0f 6f 2f             	movq   (%rdi),%mm5
    258f:	41 0f 6f 11          	movq   (%r9),%mm2
    2593:	0f ef d7             	pxor   %mm7,%mm2
    2596:	0f e0 ea             	pavgb  %mm2,%mm5
    2599:	0f fc ee             	paddb  %mm6,%mm5
    259c:	0f 6f d5             	movq   %mm5,%mm2
    259f:	0f 71 f5 08          	psllw  $0x8,%mm5
    25a3:	0f f5 ed             	pmaddwd %mm5,%mm5
    25a6:	0f f5 d2             	pmaddwd %mm2,%mm2
    25a9:	0f fe ea             	paddd  %mm2,%mm5
    25ac:	0f 72 d5 0e          	psrld  $0xe,%mm5
    25b0:	0f fe c5             	paddd  %mm5,%mm0
    25b3:	0f 6f 2c 37          	movq   (%rdi,%rsi,1),%mm5
    25b7:	41 0f 6f 14 31       	movq   (%r9,%rsi,1),%mm2
    25bc:	0f ef d7             	pxor   %mm7,%mm2
    25bf:	0f e0 ea             	pavgb  %mm2,%mm5
    25c2:	0f fc ee             	paddb  %mm6,%mm5
    25c5:	0f 6f d5             	movq   %mm5,%mm2
    25c8:	0f 71 f5 08          	psllw  $0x8,%mm5
    25cc:	0f f5 ed             	pmaddwd %mm5,%mm5
    25cf:	0f f5 d2             	pmaddwd %mm2,%mm2
    25d2:	0f fe ea             	paddd  %mm2,%mm5
    25d5:	0f 72 d5 0e          	psrld  $0xe,%mm5
    25d9:	0f fe c5             	paddd  %mm5,%mm0
    25dc:	0f 6f 2c 77          	movq   (%rdi,%rsi,2),%mm5
    25e0:	41 0f 6f 14 71       	movq   (%r9,%rsi,2),%mm2
    25e5:	0f ef d7             	pxor   %mm7,%mm2
    25e8:	0f e0 ea             	pavgb  %mm2,%mm5
    25eb:	0f fc ee             	paddb  %mm6,%mm5
    25ee:	0f 6f d5             	movq   %mm5,%mm2
    25f1:	0f 71 f5 08          	psllw  $0x8,%mm5
    25f5:	0f f5 ed             	pmaddwd %mm5,%mm5
    25f8:	0f f5 d2             	pmaddwd %mm2,%mm2
    25fb:	0f fe ea             	paddd  %mm2,%mm5
    25fe:	0f 72 d5 0e          	psrld  $0xe,%mm5
    2602:	0f fe c5             	paddd  %mm5,%mm0
    2605:	0f 6f 2c 07          	movq   (%rdi,%rax,1),%mm5
    2609:	41 0f 6f 14 01       	movq   (%r9,%rax,1),%mm2
    260e:	0f ef d7             	pxor   %mm7,%mm2
    2611:	0f e0 ea             	pavgb  %mm2,%mm5
    2614:	0f fc ee             	paddb  %mm6,%mm5
    2617:	0f 6f d5             	movq   %mm5,%mm2
    261a:	0f 71 f5 08          	psllw  $0x8,%mm5
    261e:	0f f5 ed             	pmaddwd %mm5,%mm5
    2621:	0f f5 d2             	pmaddwd %mm2,%mm2
    2624:	0f fe ea             	paddd  %mm2,%mm5
    2627:	0f 72 d5 0e          	psrld  $0xe,%mm5
    262b:	0f fe c5             	paddd  %mm5,%mm0
    262e:	0f 6f 2c b7          	movq   (%rdi,%rsi,4),%mm5
    2632:	41 0f 6f 14 b1       	movq   (%r9,%rsi,4),%mm2
    2637:	0f ef d7             	pxor   %mm7,%mm2
    263a:	0f e0 ea             	pavgb  %mm2,%mm5
    263d:	0f fc ee             	paddb  %mm6,%mm5
    2640:	0f 6f d5             	movq   %mm5,%mm2
    2643:	0f 71 f5 08          	psllw  $0x8,%mm5
    2647:	0f f5 ed             	pmaddwd %mm5,%mm5
    264a:	0f f5 d2             	pmaddwd %mm2,%mm2
    264d:	0f fe ea             	paddd  %mm2,%mm5
    2650:	0f 72 d5 0e          	psrld  $0xe,%mm5
    2654:	0f fe c5             	paddd  %mm5,%mm0
    2657:	0f 6f 2c 17          	movq   (%rdi,%rdx,1),%mm5
    265b:	41 0f 6f 14 11       	movq   (%r9,%rdx,1),%mm2
    2660:	0f ef d7             	pxor   %mm7,%mm2
    2663:	0f e0 ea             	pavgb  %mm2,%mm5
    2666:	0f fc ee             	paddb  %mm6,%mm5
    2669:	0f 6f d5             	movq   %mm5,%mm2
    266c:	0f 71 f5 08          	psllw  $0x8,%mm5
    2670:	0f f5 ed             	pmaddwd %mm5,%mm5
    2673:	0f f5 d2             	pmaddwd %mm2,%mm2
    2676:	0f fe ea             	paddd  %mm2,%mm5
    2679:	0f 72 d5 0e          	psrld  $0xe,%mm5
    267d:	0f fe c5             	paddd  %mm5,%mm0
    2680:	0f 6f 2c 47          	movq   (%rdi,%rax,2),%mm5
    2684:	41 0f 6f 14 41       	movq   (%r9,%rax,2),%mm2
    2689:	0f ef d7             	pxor   %mm7,%mm2
    268c:	0f e0 ea             	pavgb  %mm2,%mm5
    268f:	0f fc ee             	paddb  %mm6,%mm5
    2692:	0f 6f d5             	movq   %mm5,%mm2
    2695:	0f 71 f5 08          	psllw  $0x8,%mm5
    2699:	0f f5 ed             	pmaddwd %mm5,%mm5
    269c:	0f f5 d2             	pmaddwd %mm2,%mm2
    269f:	0f fe ea             	paddd  %mm2,%mm5
    26a2:	0f 72 d5 0e          	psrld  $0xe,%mm5
    26a6:	0f fe c5             	paddd  %mm5,%mm0
    26a9:	0f 6f 2c 0f          	movq   (%rdi,%rcx,1),%mm5
    26ad:	41 0f 6f 14 09       	movq   (%r9,%rcx,1),%mm2
    26b2:	0f ef d7             	pxor   %mm7,%mm2
    26b5:	0f e0 ea             	pavgb  %mm2,%mm5
    26b8:	0f fc ee             	paddb  %mm6,%mm5
    26bb:	0f 6f d5             	movq   %mm5,%mm2
    26be:	0f 71 f5 08          	psllw  $0x8,%mm5
    26c2:	0f f5 ed             	pmaddwd %mm5,%mm5
    26c5:	0f f5 d2             	pmaddwd %mm2,%mm2
    26c8:	0f fe ea             	paddd  %mm2,%mm5
    26cb:	0f 72 d5 0e          	psrld  $0xe,%mm5
    26cf:	0f fe c5             	paddd  %mm5,%mm0
    26d2:	0f 6f e0             	movq   %mm0,%mm4
    26d5:	0f 73 d0 20          	psrlq  $0x20,%mm0
    26d9:	0f fe e0             	paddd  %mm0,%mm4
    26dc:	0f 7e e1             	movd   %mm4,%ecx
    26df:	c1 e1 02             	shl    $0x2,%ecx
    26e2:	48 8b 54 24 f8       	mov    -0x8(%rsp),%rdx
    26e7:	03 4a fc             	add    -0x4(%rdx),%ecx
    26ea:	03 4a 04             	add    0x4(%rdx),%ecx
    26ed:	03 8a 00 fc ff ff    	add    -0x400(%rdx),%ecx
    26f3:	83 c1 04             	add    $0x4,%ecx
    26f6:	03 8a 00 04 00 00    	add    0x400(%rdx),%ecx
    26fc:	c1 e9 03             	shr    $0x3,%ecx
    26ff:	89 0a                	mov    %ecx,(%rdx)
    2701:	3b 8a 00 02 00 00    	cmp    0x200(%rdx),%ecx
    2707:	0f 82 f4 00 00 00    	jb     2801 <tempNoiseReducer_MMX2+0x2b7>
    270d:	3b 8a 04 02 00 00    	cmp    0x204(%rdx),%ecx
    2713:	72 53                	jb     2768 <tempNoiseReducer_MMX2+0x21e>
    2715:	48 8d 14 70          	lea    (%rax,%rsi,2),%rdx
    2719:	48 8d 0c 72          	lea    (%rdx,%rsi,2),%rcx
    271d:	0f 6f 07             	movq   (%rdi),%mm0
    2720:	0f 6f 0c 37          	movq   (%rdi,%rsi,1),%mm1
    2724:	0f 6f 14 77          	movq   (%rdi,%rsi,2),%mm2
    2728:	0f 6f 1c 07          	movq   (%rdi,%rax,1),%mm3
    272c:	0f 6f 24 b7          	movq   (%rdi,%rsi,4),%mm4
    2730:	0f 6f 2c 17          	movq   (%rdi,%rdx,1),%mm5
    2734:	0f 6f 34 47          	movq   (%rdi,%rax,2),%mm6
    2738:	0f 6f 3c 0f          	movq   (%rdi,%rcx,1),%mm7
    273c:	41 0f 7f 01          	movq   %mm0,(%r9)
    2740:	41 0f 7f 0c 31       	movq   %mm1,(%r9,%rsi,1)
    2745:	41 0f 7f 14 71       	movq   %mm2,(%r9,%rsi,2)
    274a:	41 0f 7f 1c 01       	movq   %mm3,(%r9,%rax,1)
    274f:	41 0f 7f 24 b1       	movq   %mm4,(%r9,%rsi,4)
    2754:	41 0f 7f 2c 11       	movq   %mm5,(%r9,%rdx,1)
    2759:	41 0f 7f 34 41       	movq   %mm6,(%r9,%rax,2)
    275e:	41 0f 7f 3c 09       	movq   %mm7,(%r9,%rcx,1)
    2763:	e9 4a 02 00 00       	jmpq   29b2 <tempNoiseReducer_MMX2+0x468>
    2768:	48 8d 14 70          	lea    (%rax,%rsi,2),%rdx
    276c:	48 8d 0c 72          	lea    (%rdx,%rsi,2),%rcx
    2770:	0f 6f 07             	movq   (%rdi),%mm0
    2773:	41 0f e0 01          	pavgb  (%r9),%mm0
    2777:	0f 6f 0c 37          	movq   (%rdi,%rsi,1),%mm1
    277b:	41 0f e0 0c 31       	pavgb  (%r9,%rsi,1),%mm1
    2780:	0f 6f 14 77          	movq   (%rdi,%rsi,2),%mm2
    2784:	41 0f e0 14 71       	pavgb  (%r9,%rsi,2),%mm2
    2789:	0f 6f 1c 07          	movq   (%rdi,%rax,1),%mm3
    278d:	41 0f e0 1c 01       	pavgb  (%r9,%rax,1),%mm3
    2792:	0f 6f 24 b7          	movq   (%rdi,%rsi,4),%mm4
    2796:	41 0f e0 24 b1       	pavgb  (%r9,%rsi,4),%mm4
    279b:	0f 6f 2c 17          	movq   (%rdi,%rdx,1),%mm5
    279f:	41 0f e0 2c 11       	pavgb  (%r9,%rdx,1),%mm5
    27a4:	0f 6f 34 47          	movq   (%rdi,%rax,2),%mm6
    27a8:	41 0f e0 34 41       	pavgb  (%r9,%rax,2),%mm6
    27ad:	0f 6f 3c 0f          	movq   (%rdi,%rcx,1),%mm7
    27b1:	41 0f e0 3c 09       	pavgb  (%r9,%rcx,1),%mm7
    27b6:	41 0f 7f 01          	movq   %mm0,(%r9)
    27ba:	41 0f 7f 0c 31       	movq   %mm1,(%r9,%rsi,1)
    27bf:	41 0f 7f 14 71       	movq   %mm2,(%r9,%rsi,2)
    27c4:	41 0f 7f 1c 01       	movq   %mm3,(%r9,%rax,1)
    27c9:	41 0f 7f 24 b1       	movq   %mm4,(%r9,%rsi,4)
    27ce:	41 0f 7f 2c 11       	movq   %mm5,(%r9,%rdx,1)
    27d3:	41 0f 7f 34 41       	movq   %mm6,(%r9,%rax,2)
    27d8:	41 0f 7f 3c 09       	movq   %mm7,(%r9,%rcx,1)
    27dd:	0f 7f 07             	movq   %mm0,(%rdi)
    27e0:	0f 7f 0c 37          	movq   %mm1,(%rdi,%rsi,1)
    27e4:	0f 7f 14 77          	movq   %mm2,(%rdi,%rsi,2)
    27e8:	0f 7f 1c 07          	movq   %mm3,(%rdi,%rax,1)
    27ec:	0f 7f 24 b7          	movq   %mm4,(%rdi,%rsi,4)
    27f0:	0f 7f 2c 17          	movq   %mm5,(%rdi,%rdx,1)
    27f4:	0f 7f 34 47          	movq   %mm6,(%rdi,%rax,2)
    27f8:	0f 7f 3c 0f          	movq   %mm7,(%rdi,%rcx,1)
    27fc:	e9 b1 01 00 00       	jmpq   29b2 <tempNoiseReducer_MMX2+0x468>
    2801:	3b 8a fc 01 00 00    	cmp    0x1fc(%rdx),%ecx
    2807:	0f 82 c9 00 00 00    	jb     28d6 <tempNoiseReducer_MMX2+0x38c>
    280d:	48 8d 14 70          	lea    (%rax,%rsi,2),%rdx
    2811:	48 8d 0c 72          	lea    (%rdx,%rsi,2),%rcx
    2815:	0f 6f 07             	movq   (%rdi),%mm0
    2818:	0f 6f 0c 37          	movq   (%rdi,%rsi,1),%mm1
    281c:	0f 6f 14 77          	movq   (%rdi,%rsi,2),%mm2
    2820:	0f 6f 1c 07          	movq   (%rdi,%rax,1),%mm3
    2824:	41 0f 6f 21          	movq   (%r9),%mm4
    2828:	41 0f 6f 2c 31       	movq   (%r9,%rsi,1),%mm5
    282d:	41 0f 6f 34 71       	movq   (%r9,%rsi,2),%mm6
    2832:	41 0f 6f 3c 01       	movq   (%r9,%rax,1),%mm7
    2837:	0f e0 c4             	pavgb  %mm4,%mm0
    283a:	0f e0 cd             	pavgb  %mm5,%mm1
    283d:	0f e0 d6             	pavgb  %mm6,%mm2
    2840:	0f e0 df             	pavgb  %mm7,%mm3
    2843:	0f e0 c4             	pavgb  %mm4,%mm0
    2846:	0f e0 cd             	pavgb  %mm5,%mm1
    2849:	0f e0 d6             	pavgb  %mm6,%mm2
    284c:	0f e0 df             	pavgb  %mm7,%mm3
    284f:	41 0f 7f 01          	movq   %mm0,(%r9)
    2853:	41 0f 7f 0c 31       	movq   %mm1,(%r9,%rsi,1)
    2858:	41 0f 7f 14 71       	movq   %mm2,(%r9,%rsi,2)
    285d:	41 0f 7f 1c 01       	movq   %mm3,(%r9,%rax,1)
    2862:	0f 7f 07             	movq   %mm0,(%rdi)
    2865:	0f 7f 0c 37          	movq   %mm1,(%rdi,%rsi,1)
    2869:	0f 7f 14 77          	movq   %mm2,(%rdi,%rsi,2)
    286d:	0f 7f 1c 07          	movq   %mm3,(%rdi,%rax,1)
    2871:	0f 6f 04 b7          	movq   (%rdi,%rsi,4),%mm0
    2875:	0f 6f 0c 17          	movq   (%rdi,%rdx,1),%mm1
    2879:	0f 6f 14 47          	movq   (%rdi,%rax,2),%mm2
    287d:	0f 6f 1c 0f          	movq   (%rdi,%rcx,1),%mm3
    2881:	41 0f 6f 24 b1       	movq   (%r9,%rsi,4),%mm4
    2886:	41 0f 6f 2c 11       	movq   (%r9,%rdx,1),%mm5
    288b:	41 0f 6f 34 41       	movq   (%r9,%rax,2),%mm6
    2890:	41 0f 6f 3c 09       	movq   (%r9,%rcx,1),%mm7
    2895:	0f e0 c4             	pavgb  %mm4,%mm0
    2898:	0f e0 cd             	pavgb  %mm5,%mm1
    289b:	0f e0 d6             	pavgb  %mm6,%mm2
    289e:	0f e0 df             	pavgb  %mm7,%mm3
    28a1:	0f e0 c4             	pavgb  %mm4,%mm0
    28a4:	0f e0 cd             	pavgb  %mm5,%mm1
    28a7:	0f e0 d6             	pavgb  %mm6,%mm2
    28aa:	0f e0 df             	pavgb  %mm7,%mm3
    28ad:	41 0f 7f 04 b1       	movq   %mm0,(%r9,%rsi,4)
    28b2:	41 0f 7f 0c 11       	movq   %mm1,(%r9,%rdx,1)
    28b7:	41 0f 7f 14 41       	movq   %mm2,(%r9,%rax,2)
    28bc:	41 0f 7f 1c 09       	movq   %mm3,(%r9,%rcx,1)
    28c1:	0f 7f 04 b7          	movq   %mm0,(%rdi,%rsi,4)
    28c5:	0f 7f 0c 17          	movq   %mm1,(%rdi,%rdx,1)
    28c9:	0f 7f 14 47          	movq   %mm2,(%rdi,%rax,2)
    28cd:	0f 7f 1c 0f          	movq   %mm3,(%rdi,%rcx,1)
    28d1:	e9 dc 00 00 00       	jmpq   29b2 <tempNoiseReducer_MMX2+0x468>
    28d6:	48 8d 14 70          	lea    (%rax,%rsi,2),%rdx
    28da:	48 8d 0c 72          	lea    (%rdx,%rsi,2),%rcx
    28de:	0f 6f 07             	movq   (%rdi),%mm0
    28e1:	0f 6f 0c 37          	movq   (%rdi,%rsi,1),%mm1
    28e5:	0f 6f 14 77          	movq   (%rdi,%rsi,2),%mm2
    28e9:	0f 6f 1c 07          	movq   (%rdi,%rax,1),%mm3
    28ed:	41 0f 6f 21          	movq   (%r9),%mm4
    28f1:	41 0f 6f 2c 31       	movq   (%r9,%rsi,1),%mm5
    28f6:	41 0f 6f 34 71       	movq   (%r9,%rsi,2),%mm6
    28fb:	41 0f 6f 3c 01       	movq   (%r9,%rax,1),%mm7
    2900:	0f e0 c4             	pavgb  %mm4,%mm0
    2903:	0f e0 cd             	pavgb  %mm5,%mm1
    2906:	0f e0 d6             	pavgb  %mm6,%mm2
    2909:	0f e0 df             	pavgb  %mm7,%mm3
    290c:	0f e0 c4             	pavgb  %mm4,%mm0
    290f:	0f e0 cd             	pavgb  %mm5,%mm1
    2912:	0f e0 d6             	pavgb  %mm6,%mm2
    2915:	0f e0 df             	pavgb  %mm7,%mm3
    2918:	0f e0 c4             	pavgb  %mm4,%mm0
    291b:	0f e0 cd             	pavgb  %mm5,%mm1
    291e:	0f e0 d6             	pavgb  %mm6,%mm2
    2921:	0f e0 df             	pavgb  %mm7,%mm3
    2924:	41 0f 7f 01          	movq   %mm0,(%r9)
    2928:	41 0f 7f 0c 31       	movq   %mm1,(%r9,%rsi,1)
    292d:	41 0f 7f 14 71       	movq   %mm2,(%r9,%rsi,2)
    2932:	41 0f 7f 1c 01       	movq   %mm3,(%r9,%rax,1)
    2937:	0f 7f 07             	movq   %mm0,(%rdi)
    293a:	0f 7f 0c 37          	movq   %mm1,(%rdi,%rsi,1)
    293e:	0f 7f 14 77          	movq   %mm2,(%rdi,%rsi,2)
    2942:	0f 7f 1c 07          	movq   %mm3,(%rdi,%rax,1)
    2946:	0f 6f 04 b7          	movq   (%rdi,%rsi,4),%mm0
    294a:	0f 6f 0c 17          	movq   (%rdi,%rdx,1),%mm1
    294e:	0f 6f 14 47          	movq   (%rdi,%rax,2),%mm2
    2952:	0f 6f 1c 0f          	movq   (%rdi,%rcx,1),%mm3
    2956:	41 0f 6f 24 b1       	movq   (%r9,%rsi,4),%mm4
    295b:	41 0f 6f 2c 11       	movq   (%r9,%rdx,1),%mm5
    2960:	41 0f 6f 34 41       	movq   (%r9,%rax,2),%mm6
    2965:	41 0f 6f 3c 09       	movq   (%r9,%rcx,1),%mm7
    296a:	0f e0 c4             	pavgb  %mm4,%mm0
    296d:	0f e0 cd             	pavgb  %mm5,%mm1
    2970:	0f e0 d6             	pavgb  %mm6,%mm2
    2973:	0f e0 df             	pavgb  %mm7,%mm3
    2976:	0f e0 c4             	pavgb  %mm4,%mm0
    2979:	0f e0 cd             	pavgb  %mm5,%mm1
    297c:	0f e0 d6             	pavgb  %mm6,%mm2
    297f:	0f e0 df             	pavgb  %mm7,%mm3
    2982:	0f e0 c4             	pavgb  %mm4,%mm0
    2985:	0f e0 cd             	pavgb  %mm5,%mm1
    2988:	0f e0 d6             	pavgb  %mm6,%mm2
    298b:	0f e0 df             	pavgb  %mm7,%mm3
    298e:	41 0f 7f 04 b1       	movq   %mm0,(%r9,%rsi,4)
    2993:	41 0f 7f 0c 11       	movq   %mm1,(%r9,%rdx,1)
    2998:	41 0f 7f 14 41       	movq   %mm2,(%r9,%rax,2)
    299d:	41 0f 7f 1c 09       	movq   %mm3,(%r9,%rcx,1)
    29a2:	0f 7f 04 b7          	movq   %mm0,(%rdi,%rsi,4)
    29a6:	0f 7f 0c 17          	movq   %mm1,(%rdi,%rdx,1)
    29aa:	0f 7f 14 47          	movq   %mm2,(%rdi,%rax,2)
    29ae:	0f 7f 1c 0f          	movq   %mm3,(%rdi,%rcx,1)
    29b2:	c3                   	retq   

00000000000029b3 <doVertLowPass_3DNow>:
    29b3:	8d 04 76             	lea    (%rsi,%rsi,2),%eax
    29b6:	48 98                	cltq   
    29b8:	48 01 c7             	add    %rax,%rdi
    29bb:	48 63 f6             	movslq %esi,%rsi
    29be:	0f 6f 42 70          	movq   0x70(%rdx),%mm0
    29c2:	0f ef e4             	pxor   %mm4,%mm4
    29c5:	0f 6f 37             	movq   (%rdi),%mm6
    29c8:	0f 6f 2c 37          	movq   (%rdi,%rsi,1),%mm5
    29cc:	0f 6f cd             	movq   %mm5,%mm1
    29cf:	0f 6f d6             	movq   %mm6,%mm2
    29d2:	0f d8 ee             	psubusb %mm6,%mm5
    29d5:	0f d8 d1             	psubusb %mm1,%mm2
    29d8:	0f eb d5             	por    %mm5,%mm2
    29db:	0f d8 d0             	psubusb %mm0,%mm2
    29de:	0f 74 d4             	pcmpeqb %mm4,%mm2
    29e1:	0f db f2             	pand   %mm2,%mm6
    29e4:	0f df d1             	pandn  %mm1,%mm2
    29e7:	0f eb f2             	por    %mm2,%mm6
    29ea:	0f 6f 2c f7          	movq   (%rdi,%rsi,8),%mm5
    29ee:	48 8d 04 b7          	lea    (%rdi,%rsi,4),%rax
    29f2:	48 8d 0c f7          	lea    (%rdi,%rsi,8),%rcx
    29f6:	48 29 f1             	sub    %rsi,%rcx
    29f9:	48 01 f7             	add    %rsi,%rdi
    29fc:	0f 6f 3c f7          	movq   (%rdi,%rsi,8),%mm7
    2a00:	0f 6f cd             	movq   %mm5,%mm1
    2a03:	0f 6f d7             	movq   %mm7,%mm2
    2a06:	0f d8 ef             	psubusb %mm7,%mm5
    2a09:	0f d8 d1             	psubusb %mm1,%mm2
    2a0c:	0f eb d5             	por    %mm5,%mm2
    2a0f:	0f d8 d0             	psubusb %mm0,%mm2
    2a12:	0f 74 d4             	pcmpeqb %mm4,%mm2
    2a15:	0f db fa             	pand   %mm2,%mm7
    2a18:	0f df d1             	pandn  %mm1,%mm2
    2a1b:	0f eb fa             	por    %mm2,%mm7
    2a1e:	0f 6f 04 37          	movq   (%rdi,%rsi,1),%mm0
    2a22:	0f 6f c8             	movq   %mm0,%mm1
    2a25:	0f 0f c6 bf          	pavgusb %mm6,%mm0
    2a29:	0f 0f c6 bf          	pavgusb %mm6,%mm0
    2a2d:	0f 6f 14 b7          	movq   (%rdi,%rsi,4),%mm2
    2a31:	0f 6f ea             	movq   %mm2,%mm5
    2a34:	0f 0f 10 bf          	pavgusb (%rax),%mm2
    2a38:	0f 0f 14 77 bf       	pavgusb (%rdi,%rsi,2),%mm2
    2a3d:	0f 6f da             	movq   %mm2,%mm3
    2a40:	0f 6f 27             	movq   (%rdi),%mm4
    2a43:	0f 0f dc bf          	pavgusb %mm4,%mm3
    2a47:	0f 0f d8 bf          	pavgusb %mm0,%mm3
    2a4b:	0f 7f 1f             	movq   %mm3,(%rdi)
    2a4e:	0f 6f c1             	movq   %mm1,%mm0
    2a51:	0f 0f c6 bf          	pavgusb %mm6,%mm0
    2a55:	0f 6f dc             	movq   %mm4,%mm3
    2a58:	0f 0f 1c 77 bf       	pavgusb (%rdi,%rsi,2),%mm3
    2a5d:	0f 0f 2c 70 bf       	pavgusb (%rax,%rsi,2),%mm5
    2a62:	0f 0f 28 bf          	pavgusb (%rax),%mm5
    2a66:	0f 0f dd bf          	pavgusb %mm5,%mm3
    2a6a:	0f 0f d8 bf          	pavgusb %mm0,%mm3
    2a6e:	0f 7f 1c 37          	movq   %mm3,(%rdi,%rsi,1)
    2a72:	0f 0f f4 bf          	pavgusb %mm4,%mm6
    2a76:	0f 6f 01             	movq   (%rcx),%mm0
    2a79:	0f 0f 04 70 bf       	pavgusb (%rax,%rsi,2),%mm0
    2a7e:	0f 6f d8             	movq   %mm0,%mm3
    2a81:	0f 0f c1 bf          	pavgusb %mm1,%mm0
    2a85:	0f 0f c6 bf          	pavgusb %mm6,%mm0
    2a89:	0f 0f c2 bf          	pavgusb %mm2,%mm0
    2a8d:	0f 6f 14 77          	movq   (%rdi,%rsi,2),%mm2
    2a91:	0f 7f 04 77          	movq   %mm0,(%rdi,%rsi,2)
    2a95:	0f 6f 04 b0          	movq   (%rax,%rsi,4),%mm0
    2a99:	0f 0f 01 bf          	pavgusb (%rcx),%mm0
    2a9d:	0f 0f f0 bf          	pavgusb %mm0,%mm6
    2aa1:	0f 0f e1 bf          	pavgusb %mm1,%mm4
    2aa5:	0f 0f ca bf          	pavgusb %mm2,%mm1
    2aa9:	0f 0f f1 bf          	pavgusb %mm1,%mm6
    2aad:	0f 0f f5 bf          	pavgusb %mm5,%mm6
    2ab1:	0f 6f 28             	movq   (%rax),%mm5
    2ab4:	0f 7f 30             	movq   %mm6,(%rax)
    2ab7:	0f 6f 34 b0          	movq   (%rax,%rsi,4),%mm6
    2abb:	0f 0f f7 bf          	pavgusb %mm7,%mm6
    2abf:	0f 0f f4 bf          	pavgusb %mm4,%mm6
    2ac3:	0f 0f f3 bf          	pavgusb %mm3,%mm6
    2ac7:	0f 0f d5 bf          	pavgusb %mm5,%mm2
    2acb:	0f 6f 24 b7          	movq   (%rdi,%rsi,4),%mm4
    2acf:	0f 0f d4 bf          	pavgusb %mm4,%mm2
    2ad3:	0f 0f f2 bf          	pavgusb %mm2,%mm6
    2ad7:	0f 7f 34 b7          	movq   %mm6,(%rdi,%rsi,4)
    2adb:	0f 0f cf bf          	pavgusb %mm7,%mm1
    2adf:	0f 0f ec bf          	pavgusb %mm4,%mm5
    2ae3:	0f 0f c5 bf          	pavgusb %mm5,%mm0
    2ae7:	0f 6f 34 70          	movq   (%rax,%rsi,2),%mm6
    2aeb:	0f 0f ce bf          	pavgusb %mm6,%mm1
    2aef:	0f 0f c8 bf          	pavgusb %mm0,%mm1
    2af3:	0f 7f 0c 70          	movq   %mm1,(%rax,%rsi,2)
    2af7:	0f 0f 11 bf          	pavgusb (%rcx),%mm2
    2afb:	0f 6f 04 b0          	movq   (%rax,%rsi,4),%mm0
    2aff:	0f 0f f0 bf          	pavgusb %mm0,%mm6
    2b03:	0f 0f f7 bf          	pavgusb %mm7,%mm6
    2b07:	0f 0f f2 bf          	pavgusb %mm2,%mm6
    2b0b:	0f 7f 31             	movq   %mm6,(%rcx)
    2b0e:	0f 0f ef bf          	pavgusb %mm7,%mm5
    2b12:	0f 0f ef bf          	pavgusb %mm7,%mm5
    2b16:	0f 0f c3 bf          	pavgusb %mm3,%mm0
    2b1a:	0f 0f e8 bf          	pavgusb %mm0,%mm5
    2b1e:	0f 7f 2c b0          	movq   %mm5,(%rax,%rsi,4)
    2b22:	48 29 f7             	sub    %rsi,%rdi
    2b25:	c3                   	retq   

0000000000002b26 <dering_3DNow>:
    2b26:	48 89 d1             	mov    %rdx,%rcx
    2b29:	48 63 f6             	movslq %esi,%rsi
    2b2c:	4c 8d 44 24 e0       	lea    -0x20(%rsp),%r8
    2b31:	0f ef f6             	pxor   %mm6,%mm6
    2b34:	0f 74 ff             	pcmpeqb %mm7,%mm7
    2b37:	0f 6f 41 70          	movq   0x70(%rcx),%mm0
    2b3b:	0f 60 c6             	punpcklbw %mm6,%mm0
    2b3e:	0f 71 d0 01          	psrlw  $0x1,%mm0
    2b42:	0f f9 c7             	psubw  %mm7,%mm0
    2b45:	0f 67 c0             	packuswb %mm0,%mm0
    2b48:	0f 7f 41 78          	movq   %mm0,0x78(%rcx)
    2b4c:	48 8d 04 37          	lea    (%rdi,%rsi,1),%rax
    2b50:	48 8d 14 b0          	lea    (%rax,%rsi,4),%rdx
    2b54:	0f 6f 00             	movq   (%rax),%mm0
    2b57:	0f 6f cf             	movq   %mm7,%mm1
    2b5a:	0f d8 f0             	psubusb %mm0,%mm6
    2b5d:	0f fc f0             	paddb  %mm0,%mm6
    2b60:	0f d8 c8             	psubusb %mm0,%mm1
    2b63:	0f f8 f9             	psubb  %mm1,%mm7
    2b66:	0f 6f 04 30          	movq   (%rax,%rsi,1),%mm0
    2b6a:	0f 6f cf             	movq   %mm7,%mm1
    2b6d:	0f d8 f0             	psubusb %mm0,%mm6
    2b70:	0f fc f0             	paddb  %mm0,%mm6
    2b73:	0f d8 c8             	psubusb %mm0,%mm1
    2b76:	0f f8 f9             	psubb  %mm1,%mm7
    2b79:	0f 6f 04 70          	movq   (%rax,%rsi,2),%mm0
    2b7d:	0f 6f cf             	movq   %mm7,%mm1
    2b80:	0f d8 f0             	psubusb %mm0,%mm6
    2b83:	0f fc f0             	paddb  %mm0,%mm6
    2b86:	0f d8 c8             	psubusb %mm0,%mm1
    2b89:	0f f8 f9             	psubb  %mm1,%mm7
    2b8c:	0f 6f 04 b7          	movq   (%rdi,%rsi,4),%mm0
    2b90:	0f 6f cf             	movq   %mm7,%mm1
    2b93:	0f d8 f0             	psubusb %mm0,%mm6
    2b96:	0f fc f0             	paddb  %mm0,%mm6
    2b99:	0f d8 c8             	psubusb %mm0,%mm1
    2b9c:	0f f8 f9             	psubb  %mm1,%mm7
    2b9f:	0f 6f 02             	movq   (%rdx),%mm0
    2ba2:	0f 6f cf             	movq   %mm7,%mm1
    2ba5:	0f d8 f0             	psubusb %mm0,%mm6
    2ba8:	0f fc f0             	paddb  %mm0,%mm6
    2bab:	0f d8 c8             	psubusb %mm0,%mm1
    2bae:	0f f8 f9             	psubb  %mm1,%mm7
    2bb1:	0f 6f 04 32          	movq   (%rdx,%rsi,1),%mm0
    2bb5:	0f 6f cf             	movq   %mm7,%mm1
    2bb8:	0f d8 f0             	psubusb %mm0,%mm6
    2bbb:	0f fc f0             	paddb  %mm0,%mm6
    2bbe:	0f d8 c8             	psubusb %mm0,%mm1
    2bc1:	0f f8 f9             	psubb  %mm1,%mm7
    2bc4:	0f 6f 04 72          	movq   (%rdx,%rsi,2),%mm0
    2bc8:	0f 6f cf             	movq   %mm7,%mm1
    2bcb:	0f d8 f0             	psubusb %mm0,%mm6
    2bce:	0f fc f0             	paddb  %mm0,%mm6
    2bd1:	0f d8 c8             	psubusb %mm0,%mm1
    2bd4:	0f f8 f9             	psubb  %mm1,%mm7
    2bd7:	0f 6f 04 f7          	movq   (%rdi,%rsi,8),%mm0
    2bdb:	0f 6f cf             	movq   %mm7,%mm1
    2bde:	0f d8 f0             	psubusb %mm0,%mm6
    2be1:	0f fc f0             	paddb  %mm0,%mm6
    2be4:	0f d8 c8             	psubusb %mm0,%mm1
    2be7:	0f f8 f9             	psubb  %mm1,%mm7
    2bea:	0f 6f e7             	movq   %mm7,%mm4
    2bed:	0f 73 d7 08          	psrlq  $0x8,%mm7
    2bf1:	0f 6f cf             	movq   %mm7,%mm1
    2bf4:	0f d8 cc             	psubusb %mm4,%mm1
    2bf7:	0f f8 f9             	psubb  %mm1,%mm7
    2bfa:	0f 6f e7             	movq   %mm7,%mm4
    2bfd:	0f 73 d7 10          	psrlq  $0x10,%mm7
    2c01:	0f 6f cf             	movq   %mm7,%mm1
    2c04:	0f d8 cc             	psubusb %mm4,%mm1
    2c07:	0f f8 f9             	psubb  %mm1,%mm7
    2c0a:	0f 6f e7             	movq   %mm7,%mm4
    2c0d:	0f 73 d7 20          	psrlq  $0x20,%mm7
    2c11:	0f 6f cf             	movq   %mm7,%mm1
    2c14:	0f d8 cc             	psubusb %mm4,%mm1
    2c17:	0f f8 f9             	psubb  %mm1,%mm7
    2c1a:	0f 6f e6             	movq   %mm6,%mm4
    2c1d:	0f 73 d6 08          	psrlq  $0x8,%mm6
    2c21:	0f d8 f4             	psubusb %mm4,%mm6
    2c24:	0f fc f4             	paddb  %mm4,%mm6
    2c27:	0f 6f e6             	movq   %mm6,%mm4
    2c2a:	0f 73 d6 10          	psrlq  $0x10,%mm6
    2c2e:	0f d8 f4             	psubusb %mm4,%mm6
    2c31:	0f fc f4             	paddb  %mm4,%mm6
    2c34:	0f 6f e6             	movq   %mm6,%mm4
    2c37:	0f 73 d6 20          	psrlq  $0x20,%mm6
    2c3b:	0f d8 f4             	psubusb %mm4,%mm6
    2c3e:	0f fc f4             	paddb  %mm4,%mm6
    2c41:	0f 6f c6             	movq   %mm6,%mm0
    2c44:	0f f8 f7             	psubb  %mm7,%mm6
    2c47:	41 50                	push   %r8
    2c49:	41 0f 7e f0          	movd   %mm6,%r8d
    2c4d:	44 3a 04 25 00 00 00 	cmp    0x0,%r8b
    2c54:	00 
    2c55:	41 58                	pop    %r8
    2c57:	72 0d                	jb     2c66 <dering_3DNow+0x140>
    2c59:	0f 0f f8 bf          	pavgusb %mm0,%mm7
    2c5d:	0f 60 ff             	punpcklbw %mm7,%mm7
    2c60:	0f 60 ff             	punpcklbw %mm7,%mm7
    2c63:	0f 60 ff             	punpcklbw %mm7,%mm7
    2c66:	41 0f 7f 38          	movq   %mm7,(%r8)
    2c6a:	0f 6f 07             	movq   (%rdi),%mm0
    2c6d:	0f 6f c8             	movq   %mm0,%mm1
    2c70:	0f 6f d0             	movq   %mm0,%mm2
    2c73:	0f 73 f1 08          	psllq  $0x8,%mm1
    2c77:	0f 73 d2 08          	psrlq  $0x8,%mm2
    2c7b:	0f 6e 5f fc          	movd   -0x4(%rdi),%mm3
    2c7f:	0f 6e 67 08          	movd   0x8(%rdi),%mm4
    2c83:	0f 73 d3 18          	psrlq  $0x18,%mm3
    2c87:	0f 73 f4 38          	psllq  $0x38,%mm4
    2c8b:	0f eb cb             	por    %mm3,%mm1
    2c8e:	0f eb d4             	por    %mm4,%mm2
    2c91:	0f 6f d9             	movq   %mm1,%mm3
    2c94:	0f 0f ca bf          	pavgusb %mm2,%mm1
    2c98:	0f 0f c8 bf          	pavgusb %mm0,%mm1
    2c9c:	0f d8 c7             	psubusb %mm7,%mm0
    2c9f:	0f d8 d7             	psubusb %mm7,%mm2
    2ca2:	0f d8 df             	psubusb %mm7,%mm3
    2ca5:	0f 74 04 25 00 00 00 	pcmpeqb 0x0,%mm0
    2cac:	00 
    2cad:	0f 74 14 25 00 00 00 	pcmpeqb 0x0,%mm2
    2cb4:	00 
    2cb5:	0f 74 1c 25 00 00 00 	pcmpeqb 0x0,%mm3
    2cbc:	00 
    2cbd:	0f fc c2             	paddb  %mm2,%mm0
    2cc0:	0f fc c3             	paddb  %mm3,%mm0
    2cc3:	0f 6f 10             	movq   (%rax),%mm2
    2cc6:	0f 6f da             	movq   %mm2,%mm3
    2cc9:	0f 6f e2             	movq   %mm2,%mm4
    2ccc:	0f 73 f3 08          	psllq  $0x8,%mm3
    2cd0:	0f 73 d4 08          	psrlq  $0x8,%mm4
    2cd4:	0f 6e 68 fc          	movd   -0x4(%rax),%mm5
    2cd8:	0f 6e 70 08          	movd   0x8(%rax),%mm6
    2cdc:	0f 73 d5 18          	psrlq  $0x18,%mm5
    2ce0:	0f 73 f6 38          	psllq  $0x38,%mm6
    2ce4:	0f eb dd             	por    %mm5,%mm3
    2ce7:	0f eb e6             	por    %mm6,%mm4
    2cea:	0f 6f eb             	movq   %mm3,%mm5
    2ced:	0f 0f dc bf          	pavgusb %mm4,%mm3
    2cf1:	0f 0f da bf          	pavgusb %mm2,%mm3
    2cf5:	0f d8 d7             	psubusb %mm7,%mm2
    2cf8:	0f d8 e7             	psubusb %mm7,%mm4
    2cfb:	0f d8 ef             	psubusb %mm7,%mm5
    2cfe:	0f 74 14 25 00 00 00 	pcmpeqb 0x0,%mm2
    2d05:	00 
    2d06:	0f 74 24 25 00 00 00 	pcmpeqb 0x0,%mm4
    2d0d:	00 
    2d0e:	0f 74 2c 25 00 00 00 	pcmpeqb 0x0,%mm5
    2d15:	00 
    2d16:	0f fc d4             	paddb  %mm4,%mm2
    2d19:	0f fc d5             	paddb  %mm5,%mm2
    2d1c:	0f 6f 24 30          	movq   (%rax,%rsi,1),%mm4
    2d20:	0f 6f ec             	movq   %mm4,%mm5
    2d23:	0f 6f f4             	movq   %mm4,%mm6
    2d26:	0f 73 f5 08          	psllq  $0x8,%mm5
    2d2a:	0f 73 d6 08          	psrlq  $0x8,%mm6
    2d2e:	0f 6e 7c 30 fc       	movd   -0x4(%rax,%rsi,1),%mm7
    2d33:	0f 73 d7 18          	psrlq  $0x18,%mm7
    2d37:	0f eb ef             	por    %mm7,%mm5
    2d3a:	0f 6e 7c 30 08       	movd   0x8(%rax,%rsi,1),%mm7
    2d3f:	0f 73 f7 38          	psllq  $0x38,%mm7
    2d43:	0f eb f7             	por    %mm7,%mm6
    2d46:	0f 6f fd             	movq   %mm5,%mm7
    2d49:	0f 0f ee bf          	pavgusb %mm6,%mm5
    2d4d:	0f 0f ec bf          	pavgusb %mm4,%mm5
    2d51:	0f 0f cd bf          	pavgusb %mm5,%mm1
    2d55:	41 0f 7f 68 08       	movq   %mm5,0x8(%r8)
    2d5a:	41 0f 6f 28          	movq   (%r8),%mm5
    2d5e:	0f d8 fd             	psubusb %mm5,%mm7
    2d61:	0f d8 f5             	psubusb %mm5,%mm6
    2d64:	0f d8 e5             	psubusb %mm5,%mm4
    2d67:	0f 6f 2c 25 00 00 00 	movq   0x0,%mm5
    2d6e:	00 
    2d6f:	0f 74 fd             	pcmpeqb %mm5,%mm7
    2d72:	0f 74 f5             	pcmpeqb %mm5,%mm6
    2d75:	0f 74 e5             	pcmpeqb %mm5,%mm4
    2d78:	0f fc f7             	paddb  %mm7,%mm6
    2d7b:	0f fc e6             	paddb  %mm6,%mm4
    2d7e:	0f 0f cb bf          	pavgusb %mm3,%mm1
    2d82:	0f 6f 30             	movq   (%rax),%mm6
    2d85:	0f 6f fe             	movq   %mm6,%mm7
    2d88:	0f d8 71 78          	psubusb 0x78(%rcx),%mm6
    2d8c:	0f dc 79 78          	paddusb 0x78(%rcx),%mm7
    2d90:	0f d8 ce             	psubusb %mm6,%mm1
    2d93:	0f fc ce             	paddb  %mm6,%mm1
    2d96:	0f 6f f1             	movq   %mm1,%mm6
    2d99:	0f d8 f7             	psubusb %mm7,%mm6
    2d9c:	0f f8 ce             	psubb  %mm6,%mm1
    2d9f:	0f fc c4             	paddb  %mm4,%mm0
    2da2:	0f fc c2             	paddb  %mm2,%mm0
    2da5:	0f db 04 25 00 00 00 	pand   0x0,%mm0
    2dac:	00 
    2dad:	0f 74 c5             	pcmpeqb %mm5,%mm0
    2db0:	0f db c8             	pand   %mm0,%mm1
    2db3:	0f df 00             	pandn  (%rax),%mm0
    2db6:	0f eb c1             	por    %mm1,%mm0
    2db9:	0f 7f 00             	movq   %mm0,(%rax)
    2dbc:	41 0f 6f 68 08       	movq   0x8(%r8),%mm5
    2dc1:	0f 6f 04 70          	movq   (%rax,%rsi,2),%mm0
    2dc5:	0f 6f c8             	movq   %mm0,%mm1
    2dc8:	0f 6f f0             	movq   %mm0,%mm6
    2dcb:	0f 73 f1 08          	psllq  $0x8,%mm1
    2dcf:	0f 73 d6 08          	psrlq  $0x8,%mm6
    2dd3:	0f 6e 7c 70 fc       	movd   -0x4(%rax,%rsi,2),%mm7
    2dd8:	0f 73 d7 18          	psrlq  $0x18,%mm7
    2ddc:	0f eb cf             	por    %mm7,%mm1
    2ddf:	0f 6e 7c 70 08       	movd   0x8(%rax,%rsi,2),%mm7
    2de4:	0f 73 f7 38          	psllq  $0x38,%mm7
    2de8:	0f eb f7             	por    %mm7,%mm6
    2deb:	0f 6f f9             	movq   %mm1,%mm7
    2dee:	0f 0f ce bf          	pavgusb %mm6,%mm1
    2df2:	0f 0f c8 bf          	pavgusb %mm0,%mm1
    2df6:	0f 0f d9 bf          	pavgusb %mm1,%mm3
    2dfa:	41 0f 7f 48 08       	movq   %mm1,0x8(%r8)
    2dff:	41 0f 6f 08          	movq   (%r8),%mm1
    2e03:	0f d8 f9             	psubusb %mm1,%mm7
    2e06:	0f d8 f1             	psubusb %mm1,%mm6
    2e09:	0f d8 c1             	psubusb %mm1,%mm0
    2e0c:	0f 6f 0c 25 00 00 00 	movq   0x0,%mm1
    2e13:	00 
    2e14:	0f 74 f9             	pcmpeqb %mm1,%mm7
    2e17:	0f 74 f1             	pcmpeqb %mm1,%mm6
    2e1a:	0f 74 c1             	pcmpeqb %mm1,%mm0
    2e1d:	0f fc f7             	paddb  %mm7,%mm6
    2e20:	0f fc c6             	paddb  %mm6,%mm0
    2e23:	0f 0f dd bf          	pavgusb %mm5,%mm3
    2e27:	0f 6f 34 30          	movq   (%rax,%rsi,1),%mm6
    2e2b:	0f 6f fe             	movq   %mm6,%mm7
    2e2e:	0f d8 71 78          	psubusb 0x78(%rcx),%mm6
    2e32:	0f dc 79 78          	paddusb 0x78(%rcx),%mm7
    2e36:	0f d8 de             	psubusb %mm6,%mm3
    2e39:	0f fc de             	paddb  %mm6,%mm3
    2e3c:	0f 6f f3             	movq   %mm3,%mm6
    2e3f:	0f d8 f7             	psubusb %mm7,%mm6
    2e42:	0f f8 de             	psubb  %mm6,%mm3
    2e45:	0f fc d0             	paddb  %mm0,%mm2
    2e48:	0f fc d4             	paddb  %mm4,%mm2
    2e4b:	0f db 14 25 00 00 00 	pand   0x0,%mm2
    2e52:	00 
    2e53:	0f 74 d1             	pcmpeqb %mm1,%mm2
    2e56:	0f db da             	pand   %mm2,%mm3
    2e59:	0f df 14 30          	pandn  (%rax,%rsi,1),%mm2
    2e5d:	0f eb d3             	por    %mm3,%mm2
    2e60:	0f 7f 14 30          	movq   %mm2,(%rax,%rsi,1)
    2e64:	41 0f 6f 48 08       	movq   0x8(%r8),%mm1
    2e69:	0f 6f 14 b7          	movq   (%rdi,%rsi,4),%mm2
    2e6d:	0f 6f da             	movq   %mm2,%mm3
    2e70:	0f 6f f2             	movq   %mm2,%mm6
    2e73:	0f 73 f3 08          	psllq  $0x8,%mm3
    2e77:	0f 73 d6 08          	psrlq  $0x8,%mm6
    2e7b:	0f 6e 7c b7 fc       	movd   -0x4(%rdi,%rsi,4),%mm7
    2e80:	0f 73 d7 18          	psrlq  $0x18,%mm7
    2e84:	0f eb df             	por    %mm7,%mm3
    2e87:	0f 6e 7c b7 08       	movd   0x8(%rdi,%rsi,4),%mm7
    2e8c:	0f 73 f7 38          	psllq  $0x38,%mm7
    2e90:	0f eb f7             	por    %mm7,%mm6
    2e93:	0f 6f fb             	movq   %mm3,%mm7
    2e96:	0f 0f de bf          	pavgusb %mm6,%mm3
    2e9a:	0f 0f da bf          	pavgusb %mm2,%mm3
    2e9e:	0f 0f eb bf          	pavgusb %mm3,%mm5
    2ea2:	41 0f 7f 58 08       	movq   %mm3,0x8(%r8)
    2ea7:	41 0f 6f 18          	movq   (%r8),%mm3
    2eab:	0f d8 fb             	psubusb %mm3,%mm7
    2eae:	0f d8 f3             	psubusb %mm3,%mm6
    2eb1:	0f d8 d3             	psubusb %mm3,%mm2
    2eb4:	0f 6f 1c 25 00 00 00 	movq   0x0,%mm3
    2ebb:	00 
    2ebc:	0f 74 fb             	pcmpeqb %mm3,%mm7
    2ebf:	0f 74 f3             	pcmpeqb %mm3,%mm6
    2ec2:	0f 74 d3             	pcmpeqb %mm3,%mm2
    2ec5:	0f fc f7             	paddb  %mm7,%mm6
    2ec8:	0f fc d6             	paddb  %mm6,%mm2
    2ecb:	0f 0f e9 bf          	pavgusb %mm1,%mm5
    2ecf:	0f 6f 34 70          	movq   (%rax,%rsi,2),%mm6
    2ed3:	0f 6f fe             	movq   %mm6,%mm7
    2ed6:	0f d8 71 78          	psubusb 0x78(%rcx),%mm6
    2eda:	0f dc 79 78          	paddusb 0x78(%rcx),%mm7
    2ede:	0f d8 ee             	psubusb %mm6,%mm5
    2ee1:	0f fc ee             	paddb  %mm6,%mm5
    2ee4:	0f 6f f5             	movq   %mm5,%mm6
    2ee7:	0f d8 f7             	psubusb %mm7,%mm6
    2eea:	0f f8 ee             	psubb  %mm6,%mm5
    2eed:	0f fc e2             	paddb  %mm2,%mm4
    2ef0:	0f fc e0             	paddb  %mm0,%mm4
    2ef3:	0f db 24 25 00 00 00 	pand   0x0,%mm4
    2efa:	00 
    2efb:	0f 74 e3             	pcmpeqb %mm3,%mm4
    2efe:	0f db ec             	pand   %mm4,%mm5
    2f01:	0f df 24 70          	pandn  (%rax,%rsi,2),%mm4
    2f05:	0f eb e5             	por    %mm5,%mm4
    2f08:	0f 7f 24 70          	movq   %mm4,(%rax,%rsi,2)
    2f0c:	41 0f 6f 58 08       	movq   0x8(%r8),%mm3
    2f11:	0f 6f 22             	movq   (%rdx),%mm4
    2f14:	0f 6f ec             	movq   %mm4,%mm5
    2f17:	0f 6f f4             	movq   %mm4,%mm6
    2f1a:	0f 73 f5 08          	psllq  $0x8,%mm5
    2f1e:	0f 73 d6 08          	psrlq  $0x8,%mm6
    2f22:	0f 6e 7a fc          	movd   -0x4(%rdx),%mm7
    2f26:	0f 73 d7 18          	psrlq  $0x18,%mm7
    2f2a:	0f eb ef             	por    %mm7,%mm5
    2f2d:	0f 6e 7a 08          	movd   0x8(%rdx),%mm7
    2f31:	0f 73 f7 38          	psllq  $0x38,%mm7
    2f35:	0f eb f7             	por    %mm7,%mm6
    2f38:	0f 6f fd             	movq   %mm5,%mm7
    2f3b:	0f 0f ee bf          	pavgusb %mm6,%mm5
    2f3f:	0f 0f ec bf          	pavgusb %mm4,%mm5
    2f43:	0f 0f cd bf          	pavgusb %mm5,%mm1
    2f47:	41 0f 7f 68 08       	movq   %mm5,0x8(%r8)
    2f4c:	41 0f 6f 28          	movq   (%r8),%mm5
    2f50:	0f d8 fd             	psubusb %mm5,%mm7
    2f53:	0f d8 f5             	psubusb %mm5,%mm6
    2f56:	0f d8 e5             	psubusb %mm5,%mm4
    2f59:	0f 6f 2c 25 00 00 00 	movq   0x0,%mm5
    2f60:	00 
    2f61:	0f 74 fd             	pcmpeqb %mm5,%mm7
    2f64:	0f 74 f5             	pcmpeqb %mm5,%mm6
    2f67:	0f 74 e5             	pcmpeqb %mm5,%mm4
    2f6a:	0f fc f7             	paddb  %mm7,%mm6
    2f6d:	0f fc e6             	paddb  %mm6,%mm4
    2f70:	0f 0f cb bf          	pavgusb %mm3,%mm1
    2f74:	0f 6f 34 b7          	movq   (%rdi,%rsi,4),%mm6
    2f78:	0f 6f fe             	movq   %mm6,%mm7
    2f7b:	0f d8 71 78          	psubusb 0x78(%rcx),%mm6
    2f7f:	0f dc 79 78          	paddusb 0x78(%rcx),%mm7
    2f83:	0f d8 ce             	psubusb %mm6,%mm1
    2f86:	0f fc ce             	paddb  %mm6,%mm1
    2f89:	0f 6f f1             	movq   %mm1,%mm6
    2f8c:	0f d8 f7             	psubusb %mm7,%mm6
    2f8f:	0f f8 ce             	psubb  %mm6,%mm1
    2f92:	0f fc c4             	paddb  %mm4,%mm0
    2f95:	0f fc c2             	paddb  %mm2,%mm0
    2f98:	0f db 04 25 00 00 00 	pand   0x0,%mm0
    2f9f:	00 
    2fa0:	0f 74 c5             	pcmpeqb %mm5,%mm0
    2fa3:	0f db c8             	pand   %mm0,%mm1
    2fa6:	0f df 04 b7          	pandn  (%rdi,%rsi,4),%mm0
    2faa:	0f eb c1             	por    %mm1,%mm0
    2fad:	0f 7f 04 b7          	movq   %mm0,(%rdi,%rsi,4)
    2fb1:	41 0f 6f 68 08       	movq   0x8(%r8),%mm5
    2fb6:	0f 6f 04 32          	movq   (%rdx,%rsi,1),%mm0
    2fba:	0f 6f c8             	movq   %mm0,%mm1
    2fbd:	0f 6f f0             	movq   %mm0,%mm6
    2fc0:	0f 73 f1 08          	psllq  $0x8,%mm1
    2fc4:	0f 73 d6 08          	psrlq  $0x8,%mm6
    2fc8:	0f 6e 7c 32 fc       	movd   -0x4(%rdx,%rsi,1),%mm7
    2fcd:	0f 73 d7 18          	psrlq  $0x18,%mm7
    2fd1:	0f eb cf             	por    %mm7,%mm1
    2fd4:	0f 6e 7c 32 08       	movd   0x8(%rdx,%rsi,1),%mm7
    2fd9:	0f 73 f7 38          	psllq  $0x38,%mm7
    2fdd:	0f eb f7             	por    %mm7,%mm6
    2fe0:	0f 6f f9             	movq   %mm1,%mm7
    2fe3:	0f 0f ce bf          	pavgusb %mm6,%mm1
    2fe7:	0f 0f c8 bf          	pavgusb %mm0,%mm1
    2feb:	0f 0f d9 bf          	pavgusb %mm1,%mm3
    2fef:	41 0f 7f 48 08       	movq   %mm1,0x8(%r8)
    2ff4:	41 0f 6f 08          	movq   (%r8),%mm1
    2ff8:	0f d8 f9             	psubusb %mm1,%mm7
    2ffb:	0f d8 f1             	psubusb %mm1,%mm6
    2ffe:	0f d8 c1             	psubusb %mm1,%mm0
    3001:	0f 6f 0c 25 00 00 00 	movq   0x0,%mm1
    3008:	00 
    3009:	0f 74 f9             	pcmpeqb %mm1,%mm7
    300c:	0f 74 f1             	pcmpeqb %mm1,%mm6
    300f:	0f 74 c1             	pcmpeqb %mm1,%mm0
    3012:	0f fc f7             	paddb  %mm7,%mm6
    3015:	0f fc c6             	paddb  %mm6,%mm0
    3018:	0f 0f dd bf          	pavgusb %mm5,%mm3
    301c:	0f 6f 32             	movq   (%rdx),%mm6
    301f:	0f 6f fe             	movq   %mm6,%mm7
    3022:	0f d8 71 78          	psubusb 0x78(%rcx),%mm6
    3026:	0f dc 79 78          	paddusb 0x78(%rcx),%mm7
    302a:	0f d8 de             	psubusb %mm6,%mm3
    302d:	0f fc de             	paddb  %mm6,%mm3
    3030:	0f 6f f3             	movq   %mm3,%mm6
    3033:	0f d8 f7             	psubusb %mm7,%mm6
    3036:	0f f8 de             	psubb  %mm6,%mm3
    3039:	0f fc d0             	paddb  %mm0,%mm2
    303c:	0f fc d4             	paddb  %mm4,%mm2
    303f:	0f db 14 25 00 00 00 	pand   0x0,%mm2
    3046:	00 
    3047:	0f 74 d1             	pcmpeqb %mm1,%mm2
    304a:	0f db da             	pand   %mm2,%mm3
    304d:	0f df 12             	pandn  (%rdx),%mm2
    3050:	0f eb d3             	por    %mm3,%mm2
    3053:	0f 7f 12             	movq   %mm2,(%rdx)
    3056:	41 0f 6f 48 08       	movq   0x8(%r8),%mm1
    305b:	0f 6f 14 72          	movq   (%rdx,%rsi,2),%mm2
    305f:	0f 6f da             	movq   %mm2,%mm3
    3062:	0f 6f f2             	movq   %mm2,%mm6
    3065:	0f 73 f3 08          	psllq  $0x8,%mm3
    3069:	0f 73 d6 08          	psrlq  $0x8,%mm6
    306d:	0f 6e 7c 72 fc       	movd   -0x4(%rdx,%rsi,2),%mm7
    3072:	0f 73 d7 18          	psrlq  $0x18,%mm7
    3076:	0f eb df             	por    %mm7,%mm3
    3079:	0f 6e 7c 72 08       	movd   0x8(%rdx,%rsi,2),%mm7
    307e:	0f 73 f7 38          	psllq  $0x38,%mm7
    3082:	0f eb f7             	por    %mm7,%mm6
    3085:	0f 6f fb             	movq   %mm3,%mm7
    3088:	0f 0f de bf          	pavgusb %mm6,%mm3
    308c:	0f 0f da bf          	pavgusb %mm2,%mm3
    3090:	0f 0f eb bf          	pavgusb %mm3,%mm5
    3094:	41 0f 7f 58 08       	movq   %mm3,0x8(%r8)
    3099:	41 0f 6f 18          	movq   (%r8),%mm3
    309d:	0f d8 fb             	psubusb %mm3,%mm7
    30a0:	0f d8 f3             	psubusb %mm3,%mm6
    30a3:	0f d8 d3             	psubusb %mm3,%mm2
    30a6:	0f 6f 1c 25 00 00 00 	movq   0x0,%mm3
    30ad:	00 
    30ae:	0f 74 fb             	pcmpeqb %mm3,%mm7
    30b1:	0f 74 f3             	pcmpeqb %mm3,%mm6
    30b4:	0f 74 d3             	pcmpeqb %mm3,%mm2
    30b7:	0f fc f7             	paddb  %mm7,%mm6
    30ba:	0f fc d6             	paddb  %mm6,%mm2
    30bd:	0f 0f e9 bf          	pavgusb %mm1,%mm5
    30c1:	0f 6f 34 32          	movq   (%rdx,%rsi,1),%mm6
    30c5:	0f 6f fe             	movq   %mm6,%mm7
    30c8:	0f d8 71 78          	psubusb 0x78(%rcx),%mm6
    30cc:	0f dc 79 78          	paddusb 0x78(%rcx),%mm7
    30d0:	0f d8 ee             	psubusb %mm6,%mm5
    30d3:	0f fc ee             	paddb  %mm6,%mm5
    30d6:	0f 6f f5             	movq   %mm5,%mm6
    30d9:	0f d8 f7             	psubusb %mm7,%mm6
    30dc:	0f f8 ee             	psubb  %mm6,%mm5
    30df:	0f fc e2             	paddb  %mm2,%mm4
    30e2:	0f fc e0             	paddb  %mm0,%mm4
    30e5:	0f db 24 25 00 00 00 	pand   0x0,%mm4
    30ec:	00 
    30ed:	0f 74 e3             	pcmpeqb %mm3,%mm4
    30f0:	0f db ec             	pand   %mm4,%mm5
    30f3:	0f df 24 32          	pandn  (%rdx,%rsi,1),%mm4
    30f7:	0f eb e5             	por    %mm5,%mm4
    30fa:	0f 7f 24 32          	movq   %mm4,(%rdx,%rsi,1)
    30fe:	41 0f 6f 58 08       	movq   0x8(%r8),%mm3
    3103:	0f 6f 24 f7          	movq   (%rdi,%rsi,8),%mm4
    3107:	0f 6f ec             	movq   %mm4,%mm5
    310a:	0f 6f f4             	movq   %mm4,%mm6
    310d:	0f 73 f5 08          	psllq  $0x8,%mm5
    3111:	0f 73 d6 08          	psrlq  $0x8,%mm6
    3115:	0f 6e 7c f7 fc       	movd   -0x4(%rdi,%rsi,8),%mm7
    311a:	0f 73 d7 18          	psrlq  $0x18,%mm7
    311e:	0f eb ef             	por    %mm7,%mm5
    3121:	0f 6e 7c f7 08       	movd   0x8(%rdi,%rsi,8),%mm7
    3126:	0f 73 f7 38          	psllq  $0x38,%mm7
    312a:	0f eb f7             	por    %mm7,%mm6
    312d:	0f 6f fd             	movq   %mm5,%mm7
    3130:	0f 0f ee bf          	pavgusb %mm6,%mm5
    3134:	0f 0f ec bf          	pavgusb %mm4,%mm5
    3138:	0f 0f cd bf          	pavgusb %mm5,%mm1
    313c:	41 0f 7f 68 08       	movq   %mm5,0x8(%r8)
    3141:	41 0f 6f 28          	movq   (%r8),%mm5
    3145:	0f d8 fd             	psubusb %mm5,%mm7
    3148:	0f d8 f5             	psubusb %mm5,%mm6
    314b:	0f d8 e5             	psubusb %mm5,%mm4
    314e:	0f 6f 2c 25 00 00 00 	movq   0x0,%mm5
    3155:	00 
    3156:	0f 74 fd             	pcmpeqb %mm5,%mm7
    3159:	0f 74 f5             	pcmpeqb %mm5,%mm6
    315c:	0f 74 e5             	pcmpeqb %mm5,%mm4
    315f:	0f fc f7             	paddb  %mm7,%mm6
    3162:	0f fc e6             	paddb  %mm6,%mm4
    3165:	0f 0f cb bf          	pavgusb %mm3,%mm1
    3169:	0f 6f 34 72          	movq   (%rdx,%rsi,2),%mm6
    316d:	0f 6f fe             	movq   %mm6,%mm7
    3170:	0f d8 71 78          	psubusb 0x78(%rcx),%mm6
    3174:	0f dc 79 78          	paddusb 0x78(%rcx),%mm7
    3178:	0f d8 ce             	psubusb %mm6,%mm1
    317b:	0f fc ce             	paddb  %mm6,%mm1
    317e:	0f 6f f1             	movq   %mm1,%mm6
    3181:	0f d8 f7             	psubusb %mm7,%mm6
    3184:	0f f8 ce             	psubb  %mm6,%mm1
    3187:	0f fc c4             	paddb  %mm4,%mm0
    318a:	0f fc c2             	paddb  %mm2,%mm0
    318d:	0f db 04 25 00 00 00 	pand   0x0,%mm0
    3194:	00 
    3195:	0f 74 c5             	pcmpeqb %mm5,%mm0
    3198:	0f db c8             	pand   %mm0,%mm1
    319b:	0f df 04 72          	pandn  (%rdx,%rsi,2),%mm0
    319f:	0f eb c1             	por    %mm1,%mm0
    31a2:	0f 7f 04 72          	movq   %mm0,(%rdx,%rsi,2)
    31a6:	41 0f 6f 68 08       	movq   0x8(%r8),%mm5
    31ab:	0f 6f 04 b2          	movq   (%rdx,%rsi,4),%mm0
    31af:	0f 6f c8             	movq   %mm0,%mm1
    31b2:	0f 6f f0             	movq   %mm0,%mm6
    31b5:	0f 73 f1 08          	psllq  $0x8,%mm1
    31b9:	0f 73 d6 08          	psrlq  $0x8,%mm6
    31bd:	0f 6e 7c b2 fc       	movd   -0x4(%rdx,%rsi,4),%mm7
    31c2:	0f 73 d7 18          	psrlq  $0x18,%mm7
    31c6:	0f eb cf             	por    %mm7,%mm1
    31c9:	0f 6e 7c b2 08       	movd   0x8(%rdx,%rsi,4),%mm7
    31ce:	0f 73 f7 38          	psllq  $0x38,%mm7
    31d2:	0f eb f7             	por    %mm7,%mm6
    31d5:	0f 6f f9             	movq   %mm1,%mm7
    31d8:	0f 0f ce bf          	pavgusb %mm6,%mm1
    31dc:	0f 0f c8 bf          	pavgusb %mm0,%mm1
    31e0:	0f 0f d9 bf          	pavgusb %mm1,%mm3
    31e4:	41 0f 7f 48 08       	movq   %mm1,0x8(%r8)
    31e9:	41 0f 6f 08          	movq   (%r8),%mm1
    31ed:	0f d8 f9             	psubusb %mm1,%mm7
    31f0:	0f d8 f1             	psubusb %mm1,%mm6
    31f3:	0f d8 c1             	psubusb %mm1,%mm0
    31f6:	0f 6f 0c 25 00 00 00 	movq   0x0,%mm1
    31fd:	00 
    31fe:	0f 74 f9             	pcmpeqb %mm1,%mm7
    3201:	0f 74 f1             	pcmpeqb %mm1,%mm6
    3204:	0f 74 c1             	pcmpeqb %mm1,%mm0
    3207:	0f fc f7             	paddb  %mm7,%mm6
    320a:	0f fc c6             	paddb  %mm6,%mm0
    320d:	0f 0f dd bf          	pavgusb %mm5,%mm3
    3211:	0f 6f 34 f7          	movq   (%rdi,%rsi,8),%mm6
    3215:	0f 6f fe             	movq   %mm6,%mm7
    3218:	0f d8 71 78          	psubusb 0x78(%rcx),%mm6
    321c:	0f dc 79 78          	paddusb 0x78(%rcx),%mm7
    3220:	0f d8 de             	psubusb %mm6,%mm3
    3223:	0f fc de             	paddb  %mm6,%mm3
    3226:	0f 6f f3             	movq   %mm3,%mm6
    3229:	0f d8 f7             	psubusb %mm7,%mm6
    322c:	0f f8 de             	psubb  %mm6,%mm3
    322f:	0f fc d0             	paddb  %mm0,%mm2
    3232:	0f fc d4             	paddb  %mm4,%mm2
    3235:	0f db 14 25 00 00 00 	pand   0x0,%mm2
    323c:	00 
    323d:	0f 74 d1             	pcmpeqb %mm1,%mm2
    3240:	0f db da             	pand   %mm2,%mm3
    3243:	0f df 14 f7          	pandn  (%rdi,%rsi,8),%mm2
    3247:	0f eb d3             	por    %mm3,%mm2
    324a:	0f 7f 14 f7          	movq   %mm2,(%rdi,%rsi,8)
    324e:	41 0f 6f 48 08       	movq   0x8(%r8),%mm1
    3253:	c3                   	retq   

0000000000003254 <deInterlaceInterpolateCubic_3DNow>:
    3254:	8d 04 76             	lea    (%rsi,%rsi,2),%eax
    3257:	48 98                	cltq   
    3259:	48 01 c7             	add    %rax,%rdi
    325c:	48 63 f6             	movslq %esi,%rsi
    325f:	48 8d 04 37          	lea    (%rdi,%rsi,1),%rax
    3263:	48 8d 14 b0          	lea    (%rax,%rsi,4),%rdx
    3267:	48 8d 0c b2          	lea    (%rdx,%rsi,4),%rcx
    326b:	48 01 f1             	add    %rsi,%rcx
    326e:	0f ef ff             	pxor   %mm7,%mm7
    3271:	0f 6f 07             	movq   (%rdi),%mm0
    3274:	0f 6f 0c 30          	movq   (%rax,%rsi,1),%mm1
    3278:	0f 6f 14 b7          	movq   (%rdi,%rsi,4),%mm2
    327c:	0f 6f 1c 32          	movq   (%rdx,%rsi,1),%mm3
    3280:	0f 0f ca bf          	pavgusb %mm2,%mm1
    3284:	0f 0f c3 bf          	pavgusb %mm3,%mm0
    3288:	0f 6f d0             	movq   %mm0,%mm2
    328b:	0f 60 c7             	punpcklbw %mm7,%mm0
    328e:	0f 68 d7             	punpckhbw %mm7,%mm2
    3291:	0f 6f d9             	movq   %mm1,%mm3
    3294:	0f 60 cf             	punpcklbw %mm7,%mm1
    3297:	0f 68 df             	punpckhbw %mm7,%mm3
    329a:	0f f9 c1             	psubw  %mm1,%mm0
    329d:	0f f9 d3             	psubw  %mm3,%mm2
    32a0:	0f 71 e0 03          	psraw  $0x3,%mm0
    32a4:	0f 71 e2 03          	psraw  $0x3,%mm2
    32a8:	0f f9 c8             	psubw  %mm0,%mm1
    32ab:	0f f9 da             	psubw  %mm2,%mm3
    32ae:	0f 67 cb             	packuswb %mm3,%mm1
    32b1:	0f 7f 0c 70          	movq   %mm1,(%rax,%rsi,2)
    32b5:	0f 6f 04 30          	movq   (%rax,%rsi,1),%mm0
    32b9:	0f 6f 0c b7          	movq   (%rdi,%rsi,4),%mm1
    32bd:	0f 6f 14 32          	movq   (%rdx,%rsi,1),%mm2
    32c1:	0f 6f 1c f7          	movq   (%rdi,%rsi,8),%mm3
    32c5:	0f 0f ca bf          	pavgusb %mm2,%mm1
    32c9:	0f 0f c3 bf          	pavgusb %mm3,%mm0
    32cd:	0f 6f d0             	movq   %mm0,%mm2
    32d0:	0f 60 c7             	punpcklbw %mm7,%mm0
    32d3:	0f 68 d7             	punpckhbw %mm7,%mm2
    32d6:	0f 6f d9             	movq   %mm1,%mm3
    32d9:	0f 60 cf             	punpcklbw %mm7,%mm1
    32dc:	0f 68 df             	punpckhbw %mm7,%mm3
    32df:	0f f9 c1             	psubw  %mm1,%mm0
    32e2:	0f f9 d3             	psubw  %mm3,%mm2
    32e5:	0f 71 e0 03          	psraw  $0x3,%mm0
    32e9:	0f 71 e2 03          	psraw  $0x3,%mm2
    32ed:	0f f9 c8             	psubw  %mm0,%mm1
    32f0:	0f f9 da             	psubw  %mm2,%mm3
    32f3:	0f 67 cb             	packuswb %mm3,%mm1
    32f6:	0f 7f 0a             	movq   %mm1,(%rdx)
    32f9:	0f 6f 04 b7          	movq   (%rdi,%rsi,4),%mm0
    32fd:	0f 6f 0c 32          	movq   (%rdx,%rsi,1),%mm1
    3301:	0f 6f 14 f7          	movq   (%rdi,%rsi,8),%mm2
    3305:	0f 6f 19             	movq   (%rcx),%mm3
    3308:	0f 0f ca bf          	pavgusb %mm2,%mm1
    330c:	0f 0f c3 bf          	pavgusb %mm3,%mm0
    3310:	0f 6f d0             	movq   %mm0,%mm2
    3313:	0f 60 c7             	punpcklbw %mm7,%mm0
    3316:	0f 68 d7             	punpckhbw %mm7,%mm2
    3319:	0f 6f d9             	movq   %mm1,%mm3
    331c:	0f 60 cf             	punpcklbw %mm7,%mm1
    331f:	0f 68 df             	punpckhbw %mm7,%mm3
    3322:	0f f9 c1             	psubw  %mm1,%mm0
    3325:	0f f9 d3             	psubw  %mm3,%mm2
    3328:	0f 71 e0 03          	psraw  $0x3,%mm0
    332c:	0f 71 e2 03          	psraw  $0x3,%mm2
    3330:	0f f9 c8             	psubw  %mm0,%mm1
    3333:	0f f9 da             	psubw  %mm2,%mm3
    3336:	0f 67 cb             	packuswb %mm3,%mm1
    3339:	0f 7f 0c 72          	movq   %mm1,(%rdx,%rsi,2)
    333d:	0f 6f 04 32          	movq   (%rdx,%rsi,1),%mm0
    3341:	0f 6f 0c f7          	movq   (%rdi,%rsi,8),%mm1
    3345:	0f 6f 11             	movq   (%rcx),%mm2
    3348:	0f 6f 1c 71          	movq   (%rcx,%rsi,2),%mm3
    334c:	0f 0f ca bf          	pavgusb %mm2,%mm1
    3350:	0f 0f c3 bf          	pavgusb %mm3,%mm0
    3354:	0f 6f d0             	movq   %mm0,%mm2
    3357:	0f 60 c7             	punpcklbw %mm7,%mm0
    335a:	0f 68 d7             	punpckhbw %mm7,%mm2
    335d:	0f 6f d9             	movq   %mm1,%mm3
    3360:	0f 60 cf             	punpcklbw %mm7,%mm1
    3363:	0f 68 df             	punpckhbw %mm7,%mm3
    3366:	0f f9 c1             	psubw  %mm1,%mm0
    3369:	0f f9 d3             	psubw  %mm3,%mm2
    336c:	0f 71 e0 03          	psraw  $0x3,%mm0
    3370:	0f 71 e2 03          	psraw  $0x3,%mm2
    3374:	0f f9 c8             	psubw  %mm0,%mm1
    3377:	0f f9 da             	psubw  %mm2,%mm3
    337a:	0f 67 cb             	packuswb %mm3,%mm1
    337d:	0f 7f 0c b2          	movq   %mm1,(%rdx,%rsi,4)
    3381:	c3                   	retq   

0000000000003382 <deInterlaceFF_3DNow>:
    3382:	48 89 d1             	mov    %rdx,%rcx
    3385:	8d 04 b5 00 00 00 00 	lea    0x0(,%rsi,4),%eax
    338c:	48 98                	cltq   
    338e:	48 01 c7             	add    %rax,%rdi
    3391:	48 63 f6             	movslq %esi,%rsi
    3394:	48 8d 04 37          	lea    (%rdi,%rsi,1),%rax
    3398:	48 8d 14 b0          	lea    (%rax,%rsi,4),%rdx
    339c:	0f ef ff             	pxor   %mm7,%mm7
    339f:	0f 6f 01             	movq   (%rcx),%mm0
    33a2:	0f 6f 0f             	movq   (%rdi),%mm1
    33a5:	0f 6f 10             	movq   (%rax),%mm2
    33a8:	0f 6f 1c 30          	movq   (%rax,%rsi,1),%mm3
    33ac:	0f 6f 24 70          	movq   (%rax,%rsi,2),%mm4
    33b0:	0f 0f cb bf          	pavgusb %mm3,%mm1
    33b4:	0f 0f c4 bf          	pavgusb %mm4,%mm0
    33b8:	0f 6f d8             	movq   %mm0,%mm3
    33bb:	0f 60 c7             	punpcklbw %mm7,%mm0
    33be:	0f 68 df             	punpckhbw %mm7,%mm3
    33c1:	0f 6f e1             	movq   %mm1,%mm4
    33c4:	0f 60 cf             	punpcklbw %mm7,%mm1
    33c7:	0f 68 e7             	punpckhbw %mm7,%mm4
    33ca:	0f 71 f1 02          	psllw  $0x2,%mm1
    33ce:	0f 71 f4 02          	psllw  $0x2,%mm4
    33d2:	0f f9 c8             	psubw  %mm0,%mm1
    33d5:	0f f9 e3             	psubw  %mm3,%mm4
    33d8:	0f 6f ea             	movq   %mm2,%mm5
    33db:	0f 6f c2             	movq   %mm2,%mm0
    33de:	0f 60 d7             	punpcklbw %mm7,%mm2
    33e1:	0f 68 ef             	punpckhbw %mm7,%mm5
    33e4:	0f fd ca             	paddw  %mm2,%mm1
    33e7:	0f fd e5             	paddw  %mm5,%mm4
    33ea:	0f 71 e1 02          	psraw  $0x2,%mm1
    33ee:	0f 71 e4 02          	psraw  $0x2,%mm4
    33f2:	0f 67 cc             	packuswb %mm4,%mm1
    33f5:	0f 7f 08             	movq   %mm1,(%rax)
    33f8:	0f 6f 0c 30          	movq   (%rax,%rsi,1),%mm1
    33fc:	0f 6f 14 70          	movq   (%rax,%rsi,2),%mm2
    3400:	0f 6f 1c b7          	movq   (%rdi,%rsi,4),%mm3
    3404:	0f 6f 22             	movq   (%rdx),%mm4
    3407:	0f 0f cb bf          	pavgusb %mm3,%mm1
    340b:	0f 0f c4 bf          	pavgusb %mm4,%mm0
    340f:	0f 6f d8             	movq   %mm0,%mm3
    3412:	0f 60 c7             	punpcklbw %mm7,%mm0
    3415:	0f 68 df             	punpckhbw %mm7,%mm3
    3418:	0f 6f e1             	movq   %mm1,%mm4
    341b:	0f 60 cf             	punpcklbw %mm7,%mm1
    341e:	0f 68 e7             	punpckhbw %mm7,%mm4
    3421:	0f 71 f1 02          	psllw  $0x2,%mm1
    3425:	0f 71 f4 02          	psllw  $0x2,%mm4
    3429:	0f f9 c8             	psubw  %mm0,%mm1
    342c:	0f f9 e3             	psubw  %mm3,%mm4
    342f:	0f 6f ea             	movq   %mm2,%mm5
    3432:	0f 6f c2             	movq   %mm2,%mm0
    3435:	0f 60 d7             	punpcklbw %mm7,%mm2
    3438:	0f 68 ef             	punpckhbw %mm7,%mm5
    343b:	0f fd ca             	paddw  %mm2,%mm1
    343e:	0f fd e5             	paddw  %mm5,%mm4
    3441:	0f 71 e1 02          	psraw  $0x2,%mm1
    3445:	0f 71 e4 02          	psraw  $0x2,%mm4
    3449:	0f 67 cc             	packuswb %mm4,%mm1
    344c:	0f 7f 0c 70          	movq   %mm1,(%rax,%rsi,2)
    3450:	0f 6f 0c b7          	movq   (%rdi,%rsi,4),%mm1
    3454:	0f 6f 12             	movq   (%rdx),%mm2
    3457:	0f 6f 1c 32          	movq   (%rdx,%rsi,1),%mm3
    345b:	0f 6f 24 72          	movq   (%rdx,%rsi,2),%mm4
    345f:	0f 0f cb bf          	pavgusb %mm3,%mm1
    3463:	0f 0f c4 bf          	pavgusb %mm4,%mm0
    3467:	0f 6f d8             	movq   %mm0,%mm3
    346a:	0f 60 c7             	punpcklbw %mm7,%mm0
    346d:	0f 68 df             	punpckhbw %mm7,%mm3
    3470:	0f 6f e1             	movq   %mm1,%mm4
    3473:	0f 60 cf             	punpcklbw %mm7,%mm1
    3476:	0f 68 e7             	punpckhbw %mm7,%mm4
    3479:	0f 71 f1 02          	psllw  $0x2,%mm1
    347d:	0f 71 f4 02          	psllw  $0x2,%mm4
    3481:	0f f9 c8             	psubw  %mm0,%mm1
    3484:	0f f9 e3             	psubw  %mm3,%mm4
    3487:	0f 6f ea             	movq   %mm2,%mm5
    348a:	0f 6f c2             	movq   %mm2,%mm0
    348d:	0f 60 d7             	punpcklbw %mm7,%mm2
    3490:	0f 68 ef             	punpckhbw %mm7,%mm5
    3493:	0f fd ca             	paddw  %mm2,%mm1
    3496:	0f fd e5             	paddw  %mm5,%mm4
    3499:	0f 71 e1 02          	psraw  $0x2,%mm1
    349d:	0f 71 e4 02          	psraw  $0x2,%mm4
    34a1:	0f 67 cc             	packuswb %mm4,%mm1
    34a4:	0f 7f 0a             	movq   %mm1,(%rdx)
    34a7:	0f 6f 0c 32          	movq   (%rdx,%rsi,1),%mm1
    34ab:	0f 6f 14 72          	movq   (%rdx,%rsi,2),%mm2
    34af:	0f 6f 1c f7          	movq   (%rdi,%rsi,8),%mm3
    34b3:	0f 6f 24 b2          	movq   (%rdx,%rsi,4),%mm4
    34b7:	0f 0f cb bf          	pavgusb %mm3,%mm1
    34bb:	0f 0f c4 bf          	pavgusb %mm4,%mm0
    34bf:	0f 6f d8             	movq   %mm0,%mm3
    34c2:	0f 60 c7             	punpcklbw %mm7,%mm0
    34c5:	0f 68 df             	punpckhbw %mm7,%mm3
    34c8:	0f 6f e1             	movq   %mm1,%mm4
    34cb:	0f 60 cf             	punpcklbw %mm7,%mm1
    34ce:	0f 68 e7             	punpckhbw %mm7,%mm4
    34d1:	0f 71 f1 02          	psllw  $0x2,%mm1
    34d5:	0f 71 f4 02          	psllw  $0x2,%mm4
    34d9:	0f f9 c8             	psubw  %mm0,%mm1
    34dc:	0f f9 e3             	psubw  %mm3,%mm4
    34df:	0f 6f ea             	movq   %mm2,%mm5
    34e2:	0f 6f c2             	movq   %mm2,%mm0
    34e5:	0f 60 d7             	punpcklbw %mm7,%mm2
    34e8:	0f 68 ef             	punpckhbw %mm7,%mm5
    34eb:	0f fd ca             	paddw  %mm2,%mm1
    34ee:	0f fd e5             	paddw  %mm5,%mm4
    34f1:	0f 71 e1 02          	psraw  $0x2,%mm1
    34f5:	0f 71 e4 02          	psraw  $0x2,%mm4
    34f9:	0f 67 cc             	packuswb %mm4,%mm1
    34fc:	0f 7f 0c 72          	movq   %mm1,(%rdx,%rsi,2)
    3500:	0f 7f 01             	movq   %mm0,(%rcx)
    3503:	c3                   	retq   

0000000000003504 <deInterlaceL5_3DNow>:
    3504:	49 89 d0             	mov    %rdx,%r8
    3507:	8d 04 b5 00 00 00 00 	lea    0x0(,%rsi,4),%eax
    350e:	48 98                	cltq   
    3510:	48 01 c7             	add    %rax,%rdi
    3513:	48 63 f6             	movslq %esi,%rsi
    3516:	48 8d 04 37          	lea    (%rdi,%rsi,1),%rax
    351a:	48 8d 14 b0          	lea    (%rax,%rsi,4),%rdx
    351e:	0f ef ff             	pxor   %mm7,%mm7
    3521:	41 0f 6f 00          	movq   (%r8),%mm0
    3525:	0f 6f 09             	movq   (%rcx),%mm1
    3528:	0f 6f 17             	movq   (%rdi),%mm2
    352b:	0f 6f 18             	movq   (%rax),%mm3
    352e:	0f 6f 24 30          	movq   (%rax,%rsi,1),%mm4
    3532:	0f 0f d9 bf          	pavgusb %mm1,%mm3
    3536:	0f 0f e0 bf          	pavgusb %mm0,%mm4
    353a:	0f 6f ea             	movq   %mm2,%mm5
    353d:	0f 6f c2             	movq   %mm2,%mm0
    3540:	0f 60 d7             	punpcklbw %mm7,%mm2
    3543:	0f 68 ef             	punpckhbw %mm7,%mm5
    3546:	0f 6f f2             	movq   %mm2,%mm6
    3549:	0f fd d2             	paddw  %mm2,%mm2
    354c:	0f fd d6             	paddw  %mm6,%mm2
    354f:	0f 6f f5             	movq   %mm5,%mm6
    3552:	0f fd ed             	paddw  %mm5,%mm5
    3555:	0f fd ee             	paddw  %mm6,%mm5
    3558:	0f 6f f3             	movq   %mm3,%mm6
    355b:	0f 60 df             	punpcklbw %mm7,%mm3
    355e:	0f 68 f7             	punpckhbw %mm7,%mm6
    3561:	0f fd db             	paddw  %mm3,%mm3
    3564:	0f fd f6             	paddw  %mm6,%mm6
    3567:	0f fd d3             	paddw  %mm3,%mm2
    356a:	0f fd ee             	paddw  %mm6,%mm5
    356d:	0f 6f f4             	movq   %mm4,%mm6
    3570:	0f 60 e7             	punpcklbw %mm7,%mm4
    3573:	0f 68 f7             	punpckhbw %mm7,%mm6
    3576:	0f f9 d4             	psubw  %mm4,%mm2
    3579:	0f f9 ee             	psubw  %mm6,%mm5
    357c:	0f 71 e2 02          	psraw  $0x2,%mm2
    3580:	0f 71 e5 02          	psraw  $0x2,%mm5
    3584:	0f 67 d5             	packuswb %mm5,%mm2
    3587:	0f 7f 17             	movq   %mm2,(%rdi)
    358a:	0f 6f 10             	movq   (%rax),%mm2
    358d:	0f 6f 1c 30          	movq   (%rax,%rsi,1),%mm3
    3591:	0f 6f 24 70          	movq   (%rax,%rsi,2),%mm4
    3595:	0f 0f d8 bf          	pavgusb %mm0,%mm3
    3599:	0f 0f e1 bf          	pavgusb %mm1,%mm4
    359d:	0f 6f ea             	movq   %mm2,%mm5
    35a0:	0f 6f ca             	movq   %mm2,%mm1
    35a3:	0f 60 d7             	punpcklbw %mm7,%mm2
    35a6:	0f 68 ef             	punpckhbw %mm7,%mm5
    35a9:	0f 6f f2             	movq   %mm2,%mm6
    35ac:	0f fd d2             	paddw  %mm2,%mm2
    35af:	0f fd d6             	paddw  %mm6,%mm2
    35b2:	0f 6f f5             	movq   %mm5,%mm6
    35b5:	0f fd ed             	paddw  %mm5,%mm5
    35b8:	0f fd ee             	paddw  %mm6,%mm5
    35bb:	0f 6f f3             	movq   %mm3,%mm6
    35be:	0f 60 df             	punpcklbw %mm7,%mm3
    35c1:	0f 68 f7             	punpckhbw %mm7,%mm6
    35c4:	0f fd db             	paddw  %mm3,%mm3
    35c7:	0f fd f6             	paddw  %mm6,%mm6
    35ca:	0f fd d3             	paddw  %mm3,%mm2
    35cd:	0f fd ee             	paddw  %mm6,%mm5
    35d0:	0f 6f f4             	movq   %mm4,%mm6
    35d3:	0f 60 e7             	punpcklbw %mm7,%mm4
    35d6:	0f 68 f7             	punpckhbw %mm7,%mm6
    35d9:	0f f9 d4             	psubw  %mm4,%mm2
    35dc:	0f f9 ee             	psubw  %mm6,%mm5
    35df:	0f 71 e2 02          	psraw  $0x2,%mm2
    35e3:	0f 71 e5 02          	psraw  $0x2,%mm5
    35e7:	0f 67 d5             	packuswb %mm5,%mm2
    35ea:	0f 7f 10             	movq   %mm2,(%rax)
    35ed:	0f 6f 14 30          	movq   (%rax,%rsi,1),%mm2
    35f1:	0f 6f 1c 70          	movq   (%rax,%rsi,2),%mm3
    35f5:	0f 6f 24 b7          	movq   (%rdi,%rsi,4),%mm4
    35f9:	0f 0f d9 bf          	pavgusb %mm1,%mm3
    35fd:	0f 0f e0 bf          	pavgusb %mm0,%mm4
    3601:	0f 6f ea             	movq   %mm2,%mm5
    3604:	0f 6f c2             	movq   %mm2,%mm0
    3607:	0f 60 d7             	punpcklbw %mm7,%mm2
    360a:	0f 68 ef             	punpckhbw %mm7,%mm5
    360d:	0f 6f f2             	movq   %mm2,%mm6
    3610:	0f fd d2             	paddw  %mm2,%mm2
    3613:	0f fd d6             	paddw  %mm6,%mm2
    3616:	0f 6f f5             	movq   %mm5,%mm6
    3619:	0f fd ed             	paddw  %mm5,%mm5
    361c:	0f fd ee             	paddw  %mm6,%mm5
    361f:	0f 6f f3             	movq   %mm3,%mm6
    3622:	0f 60 df             	punpcklbw %mm7,%mm3
    3625:	0f 68 f7             	punpckhbw %mm7,%mm6
    3628:	0f fd db             	paddw  %mm3,%mm3
    362b:	0f fd f6             	paddw  %mm6,%mm6
    362e:	0f fd d3             	paddw  %mm3,%mm2
    3631:	0f fd ee             	paddw  %mm6,%mm5
    3634:	0f 6f f4             	movq   %mm4,%mm6
    3637:	0f 60 e7             	punpcklbw %mm7,%mm4
    363a:	0f 68 f7             	punpckhbw %mm7,%mm6
    363d:	0f f9 d4             	psubw  %mm4,%mm2
    3640:	0f f9 ee             	psubw  %mm6,%mm5
    3643:	0f 71 e2 02          	psraw  $0x2,%mm2
    3647:	0f 71 e5 02          	psraw  $0x2,%mm5
    364b:	0f 67 d5             	packuswb %mm5,%mm2
    364e:	0f 7f 14 30          	movq   %mm2,(%rax,%rsi,1)
    3652:	0f 6f 14 70          	movq   (%rax,%rsi,2),%mm2
    3656:	0f 6f 1c b7          	movq   (%rdi,%rsi,4),%mm3
    365a:	0f 6f 22             	movq   (%rdx),%mm4
    365d:	0f 0f d8 bf          	pavgusb %mm0,%mm3
    3661:	0f 0f e1 bf          	pavgusb %mm1,%mm4
    3665:	0f 6f ea             	movq   %mm2,%mm5
    3668:	0f 6f ca             	movq   %mm2,%mm1
    366b:	0f 60 d7             	punpcklbw %mm7,%mm2
    366e:	0f 68 ef             	punpckhbw %mm7,%mm5
    3671:	0f 6f f2             	movq   %mm2,%mm6
    3674:	0f fd d2             	paddw  %mm2,%mm2
    3677:	0f fd d6             	paddw  %mm6,%mm2
    367a:	0f 6f f5             	movq   %mm5,%mm6
    367d:	0f fd ed             	paddw  %mm5,%mm5
    3680:	0f fd ee             	paddw  %mm6,%mm5
    3683:	0f 6f f3             	movq   %mm3,%mm6
    3686:	0f 60 df             	punpcklbw %mm7,%mm3
    3689:	0f 68 f7             	punpckhbw %mm7,%mm6
    368c:	0f fd db             	paddw  %mm3,%mm3
    368f:	0f fd f6             	paddw  %mm6,%mm6
    3692:	0f fd d3             	paddw  %mm3,%mm2
    3695:	0f fd ee             	paddw  %mm6,%mm5
    3698:	0f 6f f4             	movq   %mm4,%mm6
    369b:	0f 60 e7             	punpcklbw %mm7,%mm4
    369e:	0f 68 f7             	punpckhbw %mm7,%mm6
    36a1:	0f f9 d4             	psubw  %mm4,%mm2
    36a4:	0f f9 ee             	psubw  %mm6,%mm5
    36a7:	0f 71 e2 02          	psraw  $0x2,%mm2
    36ab:	0f 71 e5 02          	psraw  $0x2,%mm5
    36af:	0f 67 d5             	packuswb %mm5,%mm2
    36b2:	0f 7f 14 70          	movq   %mm2,(%rax,%rsi,2)
    36b6:	0f 6f 14 b7          	movq   (%rdi,%rsi,4),%mm2
    36ba:	0f 6f 1a             	movq   (%rdx),%mm3
    36bd:	0f 6f 24 32          	movq   (%rdx,%rsi,1),%mm4
    36c1:	0f 0f d9 bf          	pavgusb %mm1,%mm3
    36c5:	0f 0f e0 bf          	pavgusb %mm0,%mm4
    36c9:	0f 6f ea             	movq   %mm2,%mm5
    36cc:	0f 6f c2             	movq   %mm2,%mm0
    36cf:	0f 60 d7             	punpcklbw %mm7,%mm2
    36d2:	0f 68 ef             	punpckhbw %mm7,%mm5
    36d5:	0f 6f f2             	movq   %mm2,%mm6
    36d8:	0f fd d2             	paddw  %mm2,%mm2
    36db:	0f fd d6             	paddw  %mm6,%mm2
    36de:	0f 6f f5             	movq   %mm5,%mm6
    36e1:	0f fd ed             	paddw  %mm5,%mm5
    36e4:	0f fd ee             	paddw  %mm6,%mm5
    36e7:	0f 6f f3             	movq   %mm3,%mm6
    36ea:	0f 60 df             	punpcklbw %mm7,%mm3
    36ed:	0f 68 f7             	punpckhbw %mm7,%mm6
    36f0:	0f fd db             	paddw  %mm3,%mm3
    36f3:	0f fd f6             	paddw  %mm6,%mm6
    36f6:	0f fd d3             	paddw  %mm3,%mm2
    36f9:	0f fd ee             	paddw  %mm6,%mm5
    36fc:	0f 6f f4             	movq   %mm4,%mm6
    36ff:	0f 60 e7             	punpcklbw %mm7,%mm4
    3702:	0f 68 f7             	punpckhbw %mm7,%mm6
    3705:	0f f9 d4             	psubw  %mm4,%mm2
    3708:	0f f9 ee             	psubw  %mm6,%mm5
    370b:	0f 71 e2 02          	psraw  $0x2,%mm2
    370f:	0f 71 e5 02          	psraw  $0x2,%mm5
    3713:	0f 67 d5             	packuswb %mm5,%mm2
    3716:	0f 7f 14 b7          	movq   %mm2,(%rdi,%rsi,4)
    371a:	0f 6f 12             	movq   (%rdx),%mm2
    371d:	0f 6f 1c 32          	movq   (%rdx,%rsi,1),%mm3
    3721:	0f 6f 24 72          	movq   (%rdx,%rsi,2),%mm4
    3725:	0f 0f d8 bf          	pavgusb %mm0,%mm3
    3729:	0f 0f e1 bf          	pavgusb %mm1,%mm4
    372d:	0f 6f ea             	movq   %mm2,%mm5
    3730:	0f 6f ca             	movq   %mm2,%mm1
    3733:	0f 60 d7             	punpcklbw %mm7,%mm2
    3736:	0f 68 ef             	punpckhbw %mm7,%mm5
    3739:	0f 6f f2             	movq   %mm2,%mm6
    373c:	0f fd d2             	paddw  %mm2,%mm2
    373f:	0f fd d6             	paddw  %mm6,%mm2
    3742:	0f 6f f5             	movq   %mm5,%mm6
    3745:	0f fd ed             	paddw  %mm5,%mm5
    3748:	0f fd ee             	paddw  %mm6,%mm5
    374b:	0f 6f f3             	movq   %mm3,%mm6
    374e:	0f 60 df             	punpcklbw %mm7,%mm3
    3751:	0f 68 f7             	punpckhbw %mm7,%mm6
    3754:	0f fd db             	paddw  %mm3,%mm3
    3757:	0f fd f6             	paddw  %mm6,%mm6
    375a:	0f fd d3             	paddw  %mm3,%mm2
    375d:	0f fd ee             	paddw  %mm6,%mm5
    3760:	0f 6f f4             	movq   %mm4,%mm6
    3763:	0f 60 e7             	punpcklbw %mm7,%mm4
    3766:	0f 68 f7             	punpckhbw %mm7,%mm6
    3769:	0f f9 d4             	psubw  %mm4,%mm2
    376c:	0f f9 ee             	psubw  %mm6,%mm5
    376f:	0f 71 e2 02          	psraw  $0x2,%mm2
    3773:	0f 71 e5 02          	psraw  $0x2,%mm5
    3777:	0f 67 d5             	packuswb %mm5,%mm2
    377a:	0f 7f 12             	movq   %mm2,(%rdx)
    377d:	0f 6f 14 32          	movq   (%rdx,%rsi,1),%mm2
    3781:	0f 6f 1c 72          	movq   (%rdx,%rsi,2),%mm3
    3785:	0f 6f 24 f7          	movq   (%rdi,%rsi,8),%mm4
    3789:	0f 0f d9 bf          	pavgusb %mm1,%mm3
    378d:	0f 0f e0 bf          	pavgusb %mm0,%mm4
    3791:	0f 6f ea             	movq   %mm2,%mm5
    3794:	0f 6f c2             	movq   %mm2,%mm0
    3797:	0f 60 d7             	punpcklbw %mm7,%mm2
    379a:	0f 68 ef             	punpckhbw %mm7,%mm5
    379d:	0f 6f f2             	movq   %mm2,%mm6
    37a0:	0f fd d2             	paddw  %mm2,%mm2
    37a3:	0f fd d6             	paddw  %mm6,%mm2
    37a6:	0f 6f f5             	movq   %mm5,%mm6
    37a9:	0f fd ed             	paddw  %mm5,%mm5
    37ac:	0f fd ee             	paddw  %mm6,%mm5
    37af:	0f 6f f3             	movq   %mm3,%mm6
    37b2:	0f 60 df             	punpcklbw %mm7,%mm3
    37b5:	0f 68 f7             	punpckhbw %mm7,%mm6
    37b8:	0f fd db             	paddw  %mm3,%mm3
    37bb:	0f fd f6             	paddw  %mm6,%mm6
    37be:	0f fd d3             	paddw  %mm3,%mm2
    37c1:	0f fd ee             	paddw  %mm6,%mm5
    37c4:	0f 6f f4             	movq   %mm4,%mm6
    37c7:	0f 60 e7             	punpcklbw %mm7,%mm4
    37ca:	0f 68 f7             	punpckhbw %mm7,%mm6
    37cd:	0f f9 d4             	psubw  %mm4,%mm2
    37d0:	0f f9 ee             	psubw  %mm6,%mm5
    37d3:	0f 71 e2 02          	psraw  $0x2,%mm2
    37d7:	0f 71 e5 02          	psraw  $0x2,%mm5
    37db:	0f 67 d5             	packuswb %mm5,%mm2
    37de:	0f 7f 14 32          	movq   %mm2,(%rdx,%rsi,1)
    37e2:	0f 6f 14 72          	movq   (%rdx,%rsi,2),%mm2
    37e6:	0f 6f 1c f7          	movq   (%rdi,%rsi,8),%mm3
    37ea:	0f 6f 24 b2          	movq   (%rdx,%rsi,4),%mm4
    37ee:	0f 0f d8 bf          	pavgusb %mm0,%mm3
    37f2:	0f 0f e1 bf          	pavgusb %mm1,%mm4
    37f6:	0f 6f ea             	movq   %mm2,%mm5
    37f9:	0f 6f ca             	movq   %mm2,%mm1
    37fc:	0f 60 d7             	punpcklbw %mm7,%mm2
    37ff:	0f 68 ef             	punpckhbw %mm7,%mm5
    3802:	0f 6f f2             	movq   %mm2,%mm6
    3805:	0f fd d2             	paddw  %mm2,%mm2
    3808:	0f fd d6             	paddw  %mm6,%mm2
    380b:	0f 6f f5             	movq   %mm5,%mm6
    380e:	0f fd ed             	paddw  %mm5,%mm5
    3811:	0f fd ee             	paddw  %mm6,%mm5
    3814:	0f 6f f3             	movq   %mm3,%mm6
    3817:	0f 60 df             	punpcklbw %mm7,%mm3
    381a:	0f 68 f7             	punpckhbw %mm7,%mm6
    381d:	0f fd db             	paddw  %mm3,%mm3
    3820:	0f fd f6             	paddw  %mm6,%mm6
    3823:	0f fd d3             	paddw  %mm3,%mm2
    3826:	0f fd ee             	paddw  %mm6,%mm5
    3829:	0f 6f f4             	movq   %mm4,%mm6
    382c:	0f 60 e7             	punpcklbw %mm7,%mm4
    382f:	0f 68 f7             	punpckhbw %mm7,%mm6
    3832:	0f f9 d4             	psubw  %mm4,%mm2
    3835:	0f f9 ee             	psubw  %mm6,%mm5
    3838:	0f 71 e2 02          	psraw  $0x2,%mm2
    383c:	0f 71 e5 02          	psraw  $0x2,%mm5
    3840:	0f 67 d5             	packuswb %mm5,%mm2
    3843:	0f 7f 14 72          	movq   %mm2,(%rdx,%rsi,2)
    3847:	41 0f 7f 00          	movq   %mm0,(%r8)
    384b:	0f 7f 09             	movq   %mm1,(%rcx)
    384e:	c3                   	retq   

000000000000384f <deInterlaceMedian_3DNow>:
    384f:	8d 04 b5 00 00 00 00 	lea    0x0(,%rsi,4),%eax
    3856:	48 98                	cltq   
    3858:	48 01 c7             	add    %rax,%rdi
    385b:	48 63 f6             	movslq %esi,%rsi
    385e:	48 8d 04 37          	lea    (%rdi,%rsi,1),%rax
    3862:	48 8d 14 b0          	lea    (%rax,%rsi,4),%rdx
    3866:	0f ef ff             	pxor   %mm7,%mm7
    3869:	0f 6f 07             	movq   (%rdi),%mm0
    386c:	0f 6f 10             	movq   (%rax),%mm2
    386f:	0f 6f 0c 30          	movq   (%rax,%rsi,1),%mm1
    3873:	0f 6f d8             	movq   %mm0,%mm3
    3876:	0f 6f e1             	movq   %mm1,%mm4
    3879:	0f 6f ea             	movq   %mm2,%mm5
    387c:	0f d8 d9             	psubusb %mm1,%mm3
    387f:	0f d8 e2             	psubusb %mm2,%mm4
    3882:	0f d8 e8             	psubusb %mm0,%mm5
    3885:	0f 74 df             	pcmpeqb %mm7,%mm3
    3888:	0f 74 e7             	pcmpeqb %mm7,%mm4
    388b:	0f 74 ef             	pcmpeqb %mm7,%mm5
    388e:	0f 6f f3             	movq   %mm3,%mm6
    3891:	0f ef dc             	pxor   %mm4,%mm3
    3894:	0f ef e5             	pxor   %mm5,%mm4
    3897:	0f ef ee             	pxor   %mm6,%mm5
    389a:	0f eb cb             	por    %mm3,%mm1
    389d:	0f eb d4             	por    %mm4,%mm2
    38a0:	0f eb c5             	por    %mm5,%mm0
    38a3:	0f db c2             	pand   %mm2,%mm0
    38a6:	0f db c1             	pand   %mm1,%mm0
    38a9:	0f 7f 00             	movq   %mm0,(%rax)
    38ac:	0f 6f 04 30          	movq   (%rax,%rsi,1),%mm0
    38b0:	0f 6f 14 70          	movq   (%rax,%rsi,2),%mm2
    38b4:	0f 6f 0c b7          	movq   (%rdi,%rsi,4),%mm1
    38b8:	0f 6f d8             	movq   %mm0,%mm3
    38bb:	0f 6f e1             	movq   %mm1,%mm4
    38be:	0f 6f ea             	movq   %mm2,%mm5
    38c1:	0f d8 d9             	psubusb %mm1,%mm3
    38c4:	0f d8 e2             	psubusb %mm2,%mm4
    38c7:	0f d8 e8             	psubusb %mm0,%mm5
    38ca:	0f 74 df             	pcmpeqb %mm7,%mm3
    38cd:	0f 74 e7             	pcmpeqb %mm7,%mm4
    38d0:	0f 74 ef             	pcmpeqb %mm7,%mm5
    38d3:	0f 6f f3             	movq   %mm3,%mm6
    38d6:	0f ef dc             	pxor   %mm4,%mm3
    38d9:	0f ef e5             	pxor   %mm5,%mm4
    38dc:	0f ef ee             	pxor   %mm6,%mm5
    38df:	0f eb cb             	por    %mm3,%mm1
    38e2:	0f eb d4             	por    %mm4,%mm2
    38e5:	0f eb c5             	por    %mm5,%mm0
    38e8:	0f db c2             	pand   %mm2,%mm0
    38eb:	0f db c1             	pand   %mm1,%mm0
    38ee:	0f 7f 04 70          	movq   %mm0,(%rax,%rsi,2)
    38f2:	0f 6f 04 b7          	movq   (%rdi,%rsi,4),%mm0
    38f6:	0f 6f 12             	movq   (%rdx),%mm2
    38f9:	0f 6f 0c 32          	movq   (%rdx,%rsi,1),%mm1
    38fd:	0f 6f d8             	movq   %mm0,%mm3
    3900:	0f 6f e1             	movq   %mm1,%mm4
    3903:	0f 6f ea             	movq   %mm2,%mm5
    3906:	0f d8 d9             	psubusb %mm1,%mm3
    3909:	0f d8 e2             	psubusb %mm2,%mm4
    390c:	0f d8 e8             	psubusb %mm0,%mm5
    390f:	0f 74 df             	pcmpeqb %mm7,%mm3
    3912:	0f 74 e7             	pcmpeqb %mm7,%mm4
    3915:	0f 74 ef             	pcmpeqb %mm7,%mm5
    3918:	0f 6f f3             	movq   %mm3,%mm6
    391b:	0f ef dc             	pxor   %mm4,%mm3
    391e:	0f ef e5             	pxor   %mm5,%mm4
    3921:	0f ef ee             	pxor   %mm6,%mm5
    3924:	0f eb cb             	por    %mm3,%mm1
    3927:	0f eb d4             	por    %mm4,%mm2
    392a:	0f eb c5             	por    %mm5,%mm0
    392d:	0f db c2             	pand   %mm2,%mm0
    3930:	0f db c1             	pand   %mm1,%mm0
    3933:	0f 7f 02             	movq   %mm0,(%rdx)
    3936:	0f 6f 04 32          	movq   (%rdx,%rsi,1),%mm0
    393a:	0f 6f 14 72          	movq   (%rdx,%rsi,2),%mm2
    393e:	0f 6f 0c f7          	movq   (%rdi,%rsi,8),%mm1
    3942:	0f 6f d8             	movq   %mm0,%mm3
    3945:	0f 6f e1             	movq   %mm1,%mm4
    3948:	0f 6f ea             	movq   %mm2,%mm5
    394b:	0f d8 d9             	psubusb %mm1,%mm3
    394e:	0f d8 e2             	psubusb %mm2,%mm4
    3951:	0f d8 e8             	psubusb %mm0,%mm5
    3954:	0f 74 df             	pcmpeqb %mm7,%mm3
    3957:	0f 74 e7             	pcmpeqb %mm7,%mm4
    395a:	0f 74 ef             	pcmpeqb %mm7,%mm5
    395d:	0f 6f f3             	movq   %mm3,%mm6
    3960:	0f ef dc             	pxor   %mm4,%mm3
    3963:	0f ef e5             	pxor   %mm5,%mm4
    3966:	0f ef ee             	pxor   %mm6,%mm5
    3969:	0f eb cb             	por    %mm3,%mm1
    396c:	0f eb d4             	por    %mm4,%mm2
    396f:	0f eb c5             	por    %mm5,%mm0
    3972:	0f db c2             	pand   %mm2,%mm0
    3975:	0f db c1             	pand   %mm1,%mm0
    3978:	0f 7f 04 72          	movq   %mm0,(%rdx,%rsi,2)
    397c:	c3                   	retq   

000000000000397d <tempNoiseReducer_3DNow>:
    397d:	49 89 d1             	mov    %rdx,%r9
    3980:	48 89 4c 24 f8       	mov    %rcx,-0x8(%rsp)
    3985:	41 8b 00             	mov    (%r8),%eax
    3988:	89 81 fc 01 00 00    	mov    %eax,0x1fc(%rcx)
    398e:	41 8b 40 04          	mov    0x4(%r8),%eax
    3992:	89 81 00 02 00 00    	mov    %eax,0x200(%rcx)
    3998:	41 8b 40 08          	mov    0x8(%r8),%eax
    399c:	89 81 04 02 00 00    	mov    %eax,0x204(%rcx)
    39a2:	48 63 f6             	movslq %esi,%rsi
    39a5:	48 8d 04 76          	lea    (%rsi,%rsi,2),%rax
    39a9:	48 8d 14 b6          	lea    (%rsi,%rsi,4),%rdx
    39ad:	48 8d 0c 72          	lea    (%rdx,%rsi,2),%rcx
    39b1:	0f 74 ff             	pcmpeqb %mm7,%mm7
    39b4:	0f 6f 34 25 00 00 00 	movq   0x0,%mm6
    39bb:	00 
    39bc:	0f ef c0             	pxor   %mm0,%mm0
    39bf:	0f 6f 2f             	movq   (%rdi),%mm5
    39c2:	41 0f 6f 11          	movq   (%r9),%mm2
    39c6:	0f ef d7             	pxor   %mm7,%mm2
    39c9:	0f 0f ea bf          	pavgusb %mm2,%mm5
    39cd:	0f fc ee             	paddb  %mm6,%mm5
    39d0:	0f 6f d5             	movq   %mm5,%mm2
    39d3:	0f 71 f5 08          	psllw  $0x8,%mm5
    39d7:	0f f5 ed             	pmaddwd %mm5,%mm5
    39da:	0f f5 d2             	pmaddwd %mm2,%mm2
    39dd:	0f fe ea             	paddd  %mm2,%mm5
    39e0:	0f 72 d5 0e          	psrld  $0xe,%mm5
    39e4:	0f fe c5             	paddd  %mm5,%mm0
    39e7:	0f 6f 2c 37          	movq   (%rdi,%rsi,1),%mm5
    39eb:	41 0f 6f 14 31       	movq   (%r9,%rsi,1),%mm2
    39f0:	0f ef d7             	pxor   %mm7,%mm2
    39f3:	0f 0f ea bf          	pavgusb %mm2,%mm5
    39f7:	0f fc ee             	paddb  %mm6,%mm5
    39fa:	0f 6f d5             	movq   %mm5,%mm2
    39fd:	0f 71 f5 08          	psllw  $0x8,%mm5
    3a01:	0f f5 ed             	pmaddwd %mm5,%mm5
    3a04:	0f f5 d2             	pmaddwd %mm2,%mm2
    3a07:	0f fe ea             	paddd  %mm2,%mm5
    3a0a:	0f 72 d5 0e          	psrld  $0xe,%mm5
    3a0e:	0f fe c5             	paddd  %mm5,%mm0
    3a11:	0f 6f 2c 77          	movq   (%rdi,%rsi,2),%mm5
    3a15:	41 0f 6f 14 71       	movq   (%r9,%rsi,2),%mm2
    3a1a:	0f ef d7             	pxor   %mm7,%mm2
    3a1d:	0f 0f ea bf          	pavgusb %mm2,%mm5
    3a21:	0f fc ee             	paddb  %mm6,%mm5
    3a24:	0f 6f d5             	movq   %mm5,%mm2
    3a27:	0f 71 f5 08          	psllw  $0x8,%mm5
    3a2b:	0f f5 ed             	pmaddwd %mm5,%mm5
    3a2e:	0f f5 d2             	pmaddwd %mm2,%mm2
    3a31:	0f fe ea             	paddd  %mm2,%mm5
    3a34:	0f 72 d5 0e          	psrld  $0xe,%mm5
    3a38:	0f fe c5             	paddd  %mm5,%mm0
    3a3b:	0f 6f 2c 07          	movq   (%rdi,%rax,1),%mm5
    3a3f:	41 0f 6f 14 01       	movq   (%r9,%rax,1),%mm2
    3a44:	0f ef d7             	pxor   %mm7,%mm2
    3a47:	0f 0f ea bf          	pavgusb %mm2,%mm5
    3a4b:	0f fc ee             	paddb  %mm6,%mm5
    3a4e:	0f 6f d5             	movq   %mm5,%mm2
    3a51:	0f 71 f5 08          	psllw  $0x8,%mm5
    3a55:	0f f5 ed             	pmaddwd %mm5,%mm5
    3a58:	0f f5 d2             	pmaddwd %mm2,%mm2
    3a5b:	0f fe ea             	paddd  %mm2,%mm5
    3a5e:	0f 72 d5 0e          	psrld  $0xe,%mm5
    3a62:	0f fe c5             	paddd  %mm5,%mm0
    3a65:	0f 6f 2c b7          	movq   (%rdi,%rsi,4),%mm5
    3a69:	41 0f 6f 14 b1       	movq   (%r9,%rsi,4),%mm2
    3a6e:	0f ef d7             	pxor   %mm7,%mm2
    3a71:	0f 0f ea bf          	pavgusb %mm2,%mm5
    3a75:	0f fc ee             	paddb  %mm6,%mm5
    3a78:	0f 6f d5             	movq   %mm5,%mm2
    3a7b:	0f 71 f5 08          	psllw  $0x8,%mm5
    3a7f:	0f f5 ed             	pmaddwd %mm5,%mm5
    3a82:	0f f5 d2             	pmaddwd %mm2,%mm2
    3a85:	0f fe ea             	paddd  %mm2,%mm5
    3a88:	0f 72 d5 0e          	psrld  $0xe,%mm5
    3a8c:	0f fe c5             	paddd  %mm5,%mm0
    3a8f:	0f 6f 2c 17          	movq   (%rdi,%rdx,1),%mm5
    3a93:	41 0f 6f 14 11       	movq   (%r9,%rdx,1),%mm2
    3a98:	0f ef d7             	pxor   %mm7,%mm2
    3a9b:	0f 0f ea bf          	pavgusb %mm2,%mm5
    3a9f:	0f fc ee             	paddb  %mm6,%mm5
    3aa2:	0f 6f d5             	movq   %mm5,%mm2
    3aa5:	0f 71 f5 08          	psllw  $0x8,%mm5
    3aa9:	0f f5 ed             	pmaddwd %mm5,%mm5
    3aac:	0f f5 d2             	pmaddwd %mm2,%mm2
    3aaf:	0f fe ea             	paddd  %mm2,%mm5
    3ab2:	0f 72 d5 0e          	psrld  $0xe,%mm5
    3ab6:	0f fe c5             	paddd  %mm5,%mm0
    3ab9:	0f 6f 2c 47          	movq   (%rdi,%rax,2),%mm5
    3abd:	41 0f 6f 14 41       	movq   (%r9,%rax,2),%mm2
    3ac2:	0f ef d7             	pxor   %mm7,%mm2
    3ac5:	0f 0f ea bf          	pavgusb %mm2,%mm5
    3ac9:	0f fc ee             	paddb  %mm6,%mm5
    3acc:	0f 6f d5             	movq   %mm5,%mm2
    3acf:	0f 71 f5 08          	psllw  $0x8,%mm5
    3ad3:	0f f5 ed             	pmaddwd %mm5,%mm5
    3ad6:	0f f5 d2             	pmaddwd %mm2,%mm2
    3ad9:	0f fe ea             	paddd  %mm2,%mm5
    3adc:	0f 72 d5 0e          	psrld  $0xe,%mm5
    3ae0:	0f fe c5             	paddd  %mm5,%mm0
    3ae3:	0f 6f 2c 0f          	movq   (%rdi,%rcx,1),%mm5
    3ae7:	41 0f 6f 14 09       	movq   (%r9,%rcx,1),%mm2
    3aec:	0f ef d7             	pxor   %mm7,%mm2
    3aef:	0f 0f ea bf          	pavgusb %mm2,%mm5
    3af3:	0f fc ee             	paddb  %mm6,%mm5
    3af6:	0f 6f d5             	movq   %mm5,%mm2
    3af9:	0f 71 f5 08          	psllw  $0x8,%mm5
    3afd:	0f f5 ed             	pmaddwd %mm5,%mm5
    3b00:	0f f5 d2             	pmaddwd %mm2,%mm2
    3b03:	0f fe ea             	paddd  %mm2,%mm5
    3b06:	0f 72 d5 0e          	psrld  $0xe,%mm5
    3b0a:	0f fe c5             	paddd  %mm5,%mm0
    3b0d:	0f 6f e0             	movq   %mm0,%mm4
    3b10:	0f 73 d0 20          	psrlq  $0x20,%mm0
    3b14:	0f fe e0             	paddd  %mm0,%mm4
    3b17:	0f 7e e1             	movd   %mm4,%ecx
    3b1a:	c1 e1 02             	shl    $0x2,%ecx
    3b1d:	48 8b 54 24 f8       	mov    -0x8(%rsp),%rdx
    3b22:	03 4a fc             	add    -0x4(%rdx),%ecx
    3b25:	03 4a 04             	add    0x4(%rdx),%ecx
    3b28:	03 8a 00 fc ff ff    	add    -0x400(%rdx),%ecx
    3b2e:	83 c1 04             	add    $0x4,%ecx
    3b31:	03 8a 00 04 00 00    	add    0x400(%rdx),%ecx
    3b37:	c1 e9 03             	shr    $0x3,%ecx
    3b3a:	89 0a                	mov    %ecx,(%rdx)
    3b3c:	3b 8a 00 02 00 00    	cmp    0x200(%rdx),%ecx
    3b42:	0f 82 fc 00 00 00    	jb     3c44 <tempNoiseReducer_3DNow+0x2c7>
    3b48:	3b 8a 04 02 00 00    	cmp    0x204(%rdx),%ecx
    3b4e:	72 53                	jb     3ba3 <tempNoiseReducer_3DNow+0x226>
    3b50:	48 8d 14 70          	lea    (%rax,%rsi,2),%rdx
    3b54:	48 8d 0c 72          	lea    (%rdx,%rsi,2),%rcx
    3b58:	0f 6f 07             	movq   (%rdi),%mm0
    3b5b:	0f 6f 0c 37          	movq   (%rdi,%rsi,1),%mm1
    3b5f:	0f 6f 14 77          	movq   (%rdi,%rsi,2),%mm2
    3b63:	0f 6f 1c 07          	movq   (%rdi,%rax,1),%mm3
    3b67:	0f 6f 24 b7          	movq   (%rdi,%rsi,4),%mm4
    3b6b:	0f 6f 2c 17          	movq   (%rdi,%rdx,1),%mm5
    3b6f:	0f 6f 34 47          	movq   (%rdi,%rax,2),%mm6
    3b73:	0f 6f 3c 0f          	movq   (%rdi,%rcx,1),%mm7
    3b77:	41 0f 7f 01          	movq   %mm0,(%r9)
    3b7b:	41 0f 7f 0c 31       	movq   %mm1,(%r9,%rsi,1)
    3b80:	41 0f 7f 14 71       	movq   %mm2,(%r9,%rsi,2)
    3b85:	41 0f 7f 1c 01       	movq   %mm3,(%r9,%rax,1)
    3b8a:	41 0f 7f 24 b1       	movq   %mm4,(%r9,%rsi,4)
    3b8f:	41 0f 7f 2c 11       	movq   %mm5,(%r9,%rdx,1)
    3b94:	41 0f 7f 34 41       	movq   %mm6,(%r9,%rax,2)
    3b99:	41 0f 7f 3c 09       	movq   %mm7,(%r9,%rcx,1)
    3b9e:	e9 7a 02 00 00       	jmpq   3e1d <tempNoiseReducer_3DNow+0x4a0>
    3ba3:	48 8d 14 70          	lea    (%rax,%rsi,2),%rdx
    3ba7:	48 8d 0c 72          	lea    (%rdx,%rsi,2),%rcx
    3bab:	0f 6f 07             	movq   (%rdi),%mm0
    3bae:	41 0f 0f 01 bf       	pavgusb (%r9),%mm0
    3bb3:	0f 6f 0c 37          	movq   (%rdi,%rsi,1),%mm1
    3bb7:	41 0f 0f 0c 31 bf    	pavgusb (%r9,%rsi,1),%mm1
    3bbd:	0f 6f 14 77          	movq   (%rdi,%rsi,2),%mm2
    3bc1:	41 0f 0f 14 71 bf    	pavgusb (%r9,%rsi,2),%mm2
    3bc7:	0f 6f 1c 07          	movq   (%rdi,%rax,1),%mm3
    3bcb:	41 0f 0f 1c 01 bf    	pavgusb (%r9,%rax,1),%mm3
    3bd1:	0f 6f 24 b7          	movq   (%rdi,%rsi,4),%mm4
    3bd5:	41 0f 0f 24 b1 bf    	pavgusb (%r9,%rsi,4),%mm4
    3bdb:	0f 6f 2c 17          	movq   (%rdi,%rdx,1),%mm5
    3bdf:	41 0f 0f 2c 11 bf    	pavgusb (%r9,%rdx,1),%mm5
    3be5:	0f 6f 34 47          	movq   (%rdi,%rax,2),%mm6
    3be9:	41 0f 0f 34 41 bf    	pavgusb (%r9,%rax,2),%mm6
    3bef:	0f 6f 3c 0f          	movq   (%rdi,%rcx,1),%mm7
    3bf3:	41 0f 0f 3c 09 bf    	pavgusb (%r9,%rcx,1),%mm7
    3bf9:	41 0f 7f 01          	movq   %mm0,(%r9)
    3bfd:	41 0f 7f 0c 31       	movq   %mm1,(%r9,%rsi,1)
    3c02:	41 0f 7f 14 71       	movq   %mm2,(%r9,%rsi,2)
    3c07:	41 0f 7f 1c 01       	movq   %mm3,(%r9,%rax,1)
    3c0c:	41 0f 7f 24 b1       	movq   %mm4,(%r9,%rsi,4)
    3c11:	41 0f 7f 2c 11       	movq   %mm5,(%r9,%rdx,1)
    3c16:	41 0f 7f 34 41       	movq   %mm6,(%r9,%rax,2)
    3c1b:	41 0f 7f 3c 09       	movq   %mm7,(%r9,%rcx,1)
    3c20:	0f 7f 07             	movq   %mm0,(%rdi)
    3c23:	0f 7f 0c 37          	movq   %mm1,(%rdi,%rsi,1)
    3c27:	0f 7f 14 77          	movq   %mm2,(%rdi,%rsi,2)
    3c2b:	0f 7f 1c 07          	movq   %mm3,(%rdi,%rax,1)
    3c2f:	0f 7f 24 b7          	movq   %mm4,(%rdi,%rsi,4)
    3c33:	0f 7f 2c 17          	movq   %mm5,(%rdi,%rdx,1)
    3c37:	0f 7f 34 47          	movq   %mm6,(%rdi,%rax,2)
    3c3b:	0f 7f 3c 0f          	movq   %mm7,(%rdi,%rcx,1)
    3c3f:	e9 d9 01 00 00       	jmpq   3e1d <tempNoiseReducer_3DNow+0x4a0>
    3c44:	3b 8a fc 01 00 00    	cmp    0x1fc(%rdx),%ecx
    3c4a:	0f 82 d9 00 00 00    	jb     3d29 <tempNoiseReducer_3DNow+0x3ac>
    3c50:	48 8d 14 70          	lea    (%rax,%rsi,2),%rdx
    3c54:	48 8d 0c 72          	lea    (%rdx,%rsi,2),%rcx
    3c58:	0f 6f 07             	movq   (%rdi),%mm0
    3c5b:	0f 6f 0c 37          	movq   (%rdi,%rsi,1),%mm1
    3c5f:	0f 6f 14 77          	movq   (%rdi,%rsi,2),%mm2
    3c63:	0f 6f 1c 07          	movq   (%rdi,%rax,1),%mm3
    3c67:	41 0f 6f 21          	movq   (%r9),%mm4
    3c6b:	41 0f 6f 2c 31       	movq   (%r9,%rsi,1),%mm5
    3c70:	41 0f 6f 34 71       	movq   (%r9,%rsi,2),%mm6
    3c75:	41 0f 6f 3c 01       	movq   (%r9,%rax,1),%mm7
    3c7a:	0f 0f c4 bf          	pavgusb %mm4,%mm0
    3c7e:	0f 0f cd bf          	pavgusb %mm5,%mm1
    3c82:	0f 0f d6 bf          	pavgusb %mm6,%mm2
    3c86:	0f 0f df bf          	pavgusb %mm7,%mm3
    3c8a:	0f 0f c4 bf          	pavgusb %mm4,%mm0
    3c8e:	0f 0f cd bf          	pavgusb %mm5,%mm1
    3c92:	0f 0f d6 bf          	pavgusb %mm6,%mm2
    3c96:	0f 0f df bf          	pavgusb %mm7,%mm3
    3c9a:	41 0f 7f 01          	movq   %mm0,(%r9)
    3c9e:	41 0f 7f 0c 31       	movq   %mm1,(%r9,%rsi,1)
    3ca3:	41 0f 7f 14 71       	movq   %mm2,(%r9,%rsi,2)
    3ca8:	41 0f 7f 1c 01       	movq   %mm3,(%r9,%rax,1)
    3cad:	0f 7f 07             	movq   %mm0,(%rdi)
    3cb0:	0f 7f 0c 37          	movq   %mm1,(%rdi,%rsi,1)
    3cb4:	0f 7f 14 77          	movq   %mm2,(%rdi,%rsi,2)
    3cb8:	0f 7f 1c 07          	movq   %mm3,(%rdi,%rax,1)
    3cbc:	0f 6f 04 b7          	movq   (%rdi,%rsi,4),%mm0
    3cc0:	0f 6f 0c 17          	movq   (%rdi,%rdx,1),%mm1
    3cc4:	0f 6f 14 47          	movq   (%rdi,%rax,2),%mm2
    3cc8:	0f 6f 1c 0f          	movq   (%rdi,%rcx,1),%mm3
    3ccc:	41 0f 6f 24 b1       	movq   (%r9,%rsi,4),%mm4
    3cd1:	41 0f 6f 2c 11       	movq   (%r9,%rdx,1),%mm5
    3cd6:	41 0f 6f 34 41       	movq   (%r9,%rax,2),%mm6
    3cdb:	41 0f 6f 3c 09       	movq   (%r9,%rcx,1),%mm7
    3ce0:	0f 0f c4 bf          	pavgusb %mm4,%mm0
    3ce4:	0f 0f cd bf          	pavgusb %mm5,%mm1
    3ce8:	0f 0f d6 bf          	pavgusb %mm6,%mm2
    3cec:	0f 0f df bf          	pavgusb %mm7,%mm3
    3cf0:	0f 0f c4 bf          	pavgusb %mm4,%mm0
    3cf4:	0f 0f cd bf          	pavgusb %mm5,%mm1
    3cf8:	0f 0f d6 bf          	pavgusb %mm6,%mm2
    3cfc:	0f 0f df bf          	pavgusb %mm7,%mm3
    3d00:	41 0f 7f 04 b1       	movq   %mm0,(%r9,%rsi,4)
    3d05:	41 0f 7f 0c 11       	movq   %mm1,(%r9,%rdx,1)
    3d0a:	41 0f 7f 14 41       	movq   %mm2,(%r9,%rax,2)
    3d0f:	41 0f 7f 1c 09       	movq   %mm3,(%r9,%rcx,1)
    3d14:	0f 7f 04 b7          	movq   %mm0,(%rdi,%rsi,4)
    3d18:	0f 7f 0c 17          	movq   %mm1,(%rdi,%rdx,1)
    3d1c:	0f 7f 14 47          	movq   %mm2,(%rdi,%rax,2)
    3d20:	0f 7f 1c 0f          	movq   %mm3,(%rdi,%rcx,1)
    3d24:	e9 f4 00 00 00       	jmpq   3e1d <tempNoiseReducer_3DNow+0x4a0>
    3d29:	48 8d 14 70          	lea    (%rax,%rsi,2),%rdx
    3d2d:	48 8d 0c 72          	lea    (%rdx,%rsi,2),%rcx
    3d31:	0f 6f 07             	movq   (%rdi),%mm0
    3d34:	0f 6f 0c 37          	movq   (%rdi,%rsi,1),%mm1
    3d38:	0f 6f 14 77          	movq   (%rdi,%rsi,2),%mm2
    3d3c:	0f 6f 1c 07          	movq   (%rdi,%rax,1),%mm3
    3d40:	41 0f 6f 21          	movq   (%r9),%mm4
    3d44:	41 0f 6f 2c 31       	movq   (%r9,%rsi,1),%mm5
    3d49:	41 0f 6f 34 71       	movq   (%r9,%rsi,2),%mm6
    3d4e:	41 0f 6f 3c 01       	movq   (%r9,%rax,1),%mm7
    3d53:	0f 0f c4 bf          	pavgusb %mm4,%mm0
    3d57:	0f 0f cd bf          	pavgusb %mm5,%mm1
    3d5b:	0f 0f d6 bf          	pavgusb %mm6,%mm2
    3d5f:	0f 0f df bf          	pavgusb %mm7,%mm3
    3d63:	0f 0f c4 bf          	pavgusb %mm4,%mm0
    3d67:	0f 0f cd bf          	pavgusb %mm5,%mm1
    3d6b:	0f 0f d6 bf          	pavgusb %mm6,%mm2
    3d6f:	0f 0f df bf          	pavgusb %mm7,%mm3
    3d73:	0f 0f c4 bf          	pavgusb %mm4,%mm0
    3d77:	0f 0f cd bf          	pavgusb %mm5,%mm1
    3d7b:	0f 0f d6 bf          	pavgusb %mm6,%mm2
    3d7f:	0f 0f df bf          	pavgusb %mm7,%mm3
    3d83:	41 0f 7f 01          	movq   %mm0,(%r9)
    3d87:	41 0f 7f 0c 31       	movq   %mm1,(%r9,%rsi,1)
    3d8c:	41 0f 7f 14 71       	movq   %mm2,(%r9,%rsi,2)
    3d91:	41 0f 7f 1c 01       	movq   %mm3,(%r9,%rax,1)
    3d96:	0f 7f 07             	movq   %mm0,(%rdi)
    3d99:	0f 7f 0c 37          	movq   %mm1,(%rdi,%rsi,1)
    3d9d:	0f 7f 14 77          	movq   %mm2,(%rdi,%rsi,2)
    3da1:	0f 7f 1c 07          	movq   %mm3,(%rdi,%rax,1)
    3da5:	0f 6f 04 b7          	movq   (%rdi,%rsi,4),%mm0
    3da9:	0f 6f 0c 17          	movq   (%rdi,%rdx,1),%mm1
    3dad:	0f 6f 14 47          	movq   (%rdi,%rax,2),%mm2
    3db1:	0f 6f 1c 0f          	movq   (%rdi,%rcx,1),%mm3
    3db5:	41 0f 6f 24 b1       	movq   (%r9,%rsi,4),%mm4
    3dba:	41 0f 6f 2c 11       	movq   (%r9,%rdx,1),%mm5
    3dbf:	41 0f 6f 34 41       	movq   (%r9,%rax,2),%mm6
    3dc4:	41 0f 6f 3c 09       	movq   (%r9,%rcx,1),%mm7
    3dc9:	0f 0f c4 bf          	pavgusb %mm4,%mm0
    3dcd:	0f 0f cd bf          	pavgusb %mm5,%mm1
    3dd1:	0f 0f d6 bf          	pavgusb %mm6,%mm2
    3dd5:	0f 0f df bf          	pavgusb %mm7,%mm3
    3dd9:	0f 0f c4 bf          	pavgusb %mm4,%mm0
    3ddd:	0f 0f cd bf          	pavgusb %mm5,%mm1
    3de1:	0f 0f d6 bf          	pavgusb %mm6,%mm2
    3de5:	0f 0f df bf          	pavgusb %mm7,%mm3
    3de9:	0f 0f c4 bf          	pavgusb %mm4,%mm0
    3ded:	0f 0f cd bf          	pavgusb %mm5,%mm1
    3df1:	0f 0f d6 bf          	pavgusb %mm6,%mm2
    3df5:	0f 0f df bf          	pavgusb %mm7,%mm3
    3df9:	41 0f 7f 04 b1       	movq   %mm0,(%r9,%rsi,4)
    3dfe:	41 0f 7f 0c 11       	movq   %mm1,(%r9,%rdx,1)
    3e03:	41 0f 7f 14 41       	movq   %mm2,(%r9,%rax,2)
    3e08:	41 0f 7f 1c 09       	movq   %mm3,(%r9,%rcx,1)
    3e0d:	0f 7f 04 b7          	movq   %mm0,(%rdi,%rsi,4)
    3e11:	0f 7f 0c 17          	movq   %mm1,(%rdi,%rdx,1)
    3e15:	0f 7f 14 47          	movq   %mm2,(%rdi,%rax,2)
    3e19:	0f 7f 1c 0f          	movq   %mm3,(%rdi,%rcx,1)
    3e1d:	c3                   	retq   

0000000000003e1e <doVertLowPass_SSE2>:
    3e1e:	8d 04 76             	lea    (%rsi,%rsi,2),%eax
    3e21:	48 98                	cltq   
    3e23:	48 01 c7             	add    %rax,%rdi
    3e26:	48 63 f6             	movslq %esi,%rsi
    3e29:	0f 6f 42 70          	movq   0x70(%rdx),%mm0
    3e2d:	0f ef e4             	pxor   %mm4,%mm4
    3e30:	0f 6f 37             	movq   (%rdi),%mm6
    3e33:	0f 6f 2c 37          	movq   (%rdi,%rsi,1),%mm5
    3e37:	0f 6f cd             	movq   %mm5,%mm1
    3e3a:	0f 6f d6             	movq   %mm6,%mm2
    3e3d:	0f d8 ee             	psubusb %mm6,%mm5
    3e40:	0f d8 d1             	psubusb %mm1,%mm2
    3e43:	0f eb d5             	por    %mm5,%mm2
    3e46:	0f d8 d0             	psubusb %mm0,%mm2
    3e49:	0f 74 d4             	pcmpeqb %mm4,%mm2
    3e4c:	0f db f2             	pand   %mm2,%mm6
    3e4f:	0f df d1             	pandn  %mm1,%mm2
    3e52:	0f eb f2             	por    %mm2,%mm6
    3e55:	0f 6f 2c f7          	movq   (%rdi,%rsi,8),%mm5
    3e59:	48 8d 04 b7          	lea    (%rdi,%rsi,4),%rax
    3e5d:	48 8d 0c f7          	lea    (%rdi,%rsi,8),%rcx
    3e61:	48 29 f1             	sub    %rsi,%rcx
    3e64:	48 01 f7             	add    %rsi,%rdi
    3e67:	0f 6f 3c f7          	movq   (%rdi,%rsi,8),%mm7
    3e6b:	0f 6f cd             	movq   %mm5,%mm1
    3e6e:	0f 6f d7             	movq   %mm7,%mm2
    3e71:	0f d8 ef             	psubusb %mm7,%mm5
    3e74:	0f d8 d1             	psubusb %mm1,%mm2
    3e77:	0f eb d5             	por    %mm5,%mm2
    3e7a:	0f d8 d0             	psubusb %mm0,%mm2
    3e7d:	0f 74 d4             	pcmpeqb %mm4,%mm2
    3e80:	0f db fa             	pand   %mm2,%mm7
    3e83:	0f df d1             	pandn  %mm1,%mm2
    3e86:	0f eb fa             	por    %mm2,%mm7
    3e89:	0f 6f 04 37          	movq   (%rdi,%rsi,1),%mm0
    3e8d:	0f 6f c8             	movq   %mm0,%mm1
    3e90:	0f e0 c6             	pavgb  %mm6,%mm0
    3e93:	0f e0 c6             	pavgb  %mm6,%mm0
    3e96:	0f 6f 14 b7          	movq   (%rdi,%rsi,4),%mm2
    3e9a:	0f 6f ea             	movq   %mm2,%mm5
    3e9d:	0f e0 10             	pavgb  (%rax),%mm2
    3ea0:	0f e0 14 77          	pavgb  (%rdi,%rsi,2),%mm2
    3ea4:	0f 6f da             	movq   %mm2,%mm3
    3ea7:	0f 6f 27             	movq   (%rdi),%mm4
    3eaa:	0f e0 dc             	pavgb  %mm4,%mm3
    3ead:	0f e0 d8             	pavgb  %mm0,%mm3
    3eb0:	0f 7f 1f             	movq   %mm3,(%rdi)
    3eb3:	0f 6f c1             	movq   %mm1,%mm0
    3eb6:	0f e0 c6             	pavgb  %mm6,%mm0
    3eb9:	0f 6f dc             	movq   %mm4,%mm3
    3ebc:	0f e0 1c 77          	pavgb  (%rdi,%rsi,2),%mm3
    3ec0:	0f e0 2c 70          	pavgb  (%rax,%rsi,2),%mm5
    3ec4:	0f e0 28             	pavgb  (%rax),%mm5
    3ec7:	0f e0 dd             	pavgb  %mm5,%mm3
    3eca:	0f e0 d8             	pavgb  %mm0,%mm3
    3ecd:	0f 7f 1c 37          	movq   %mm3,(%rdi,%rsi,1)
    3ed1:	0f e0 f4             	pavgb  %mm4,%mm6
    3ed4:	0f 6f 01             	movq   (%rcx),%mm0
    3ed7:	0f e0 04 70          	pavgb  (%rax,%rsi,2),%mm0
    3edb:	0f 6f d8             	movq   %mm0,%mm3
    3ede:	0f e0 c1             	pavgb  %mm1,%mm0
    3ee1:	0f e0 c6             	pavgb  %mm6,%mm0
    3ee4:	0f e0 c2             	pavgb  %mm2,%mm0
    3ee7:	0f 6f 14 77          	movq   (%rdi,%rsi,2),%mm2
    3eeb:	0f 7f 04 77          	movq   %mm0,(%rdi,%rsi,2)
    3eef:	0f 6f 04 b0          	movq   (%rax,%rsi,4),%mm0
    3ef3:	0f e0 01             	pavgb  (%rcx),%mm0
    3ef6:	0f e0 f0             	pavgb  %mm0,%mm6
    3ef9:	0f e0 e1             	pavgb  %mm1,%mm4
    3efc:	0f e0 ca             	pavgb  %mm2,%mm1
    3eff:	0f e0 f1             	pavgb  %mm1,%mm6
    3f02:	0f e0 f5             	pavgb  %mm5,%mm6
    3f05:	0f 6f 28             	movq   (%rax),%mm5
    3f08:	0f 7f 30             	movq   %mm6,(%rax)
    3f0b:	0f 6f 34 b0          	movq   (%rax,%rsi,4),%mm6
    3f0f:	0f e0 f7             	pavgb  %mm7,%mm6
    3f12:	0f e0 f4             	pavgb  %mm4,%mm6
    3f15:	0f e0 f3             	pavgb  %mm3,%mm6
    3f18:	0f e0 d5             	pavgb  %mm5,%mm2
    3f1b:	0f 6f 24 b7          	movq   (%rdi,%rsi,4),%mm4
    3f1f:	0f e0 d4             	pavgb  %mm4,%mm2
    3f22:	0f e0 f2             	pavgb  %mm2,%mm6
    3f25:	0f 7f 34 b7          	movq   %mm6,(%rdi,%rsi,4)
    3f29:	0f e0 cf             	pavgb  %mm7,%mm1
    3f2c:	0f e0 ec             	pavgb  %mm4,%mm5
    3f2f:	0f e0 c5             	pavgb  %mm5,%mm0
    3f32:	0f 6f 34 70          	movq   (%rax,%rsi,2),%mm6
    3f36:	0f e0 ce             	pavgb  %mm6,%mm1
    3f39:	0f e0 c8             	pavgb  %mm0,%mm1
    3f3c:	0f 7f 0c 70          	movq   %mm1,(%rax,%rsi,2)
    3f40:	0f e0 11             	pavgb  (%rcx),%mm2
    3f43:	0f 6f 04 b0          	movq   (%rax,%rsi,4),%mm0
    3f47:	0f e0 f0             	pavgb  %mm0,%mm6
    3f4a:	0f e0 f7             	pavgb  %mm7,%mm6
    3f4d:	0f e0 f2             	pavgb  %mm2,%mm6
    3f50:	0f 7f 31             	movq   %mm6,(%rcx)
    3f53:	0f e0 ef             	pavgb  %mm7,%mm5
    3f56:	0f e0 ef             	pavgb  %mm7,%mm5
    3f59:	0f e0 c3             	pavgb  %mm3,%mm0
    3f5c:	0f e0 e8             	pavgb  %mm0,%mm5
    3f5f:	0f 7f 2c b0          	movq   %mm5,(%rax,%rsi,4)
    3f63:	48 29 f7             	sub    %rsi,%rdi
    3f66:	c3                   	retq   

0000000000003f67 <dering_SSE2>:
    3f67:	48 89 d1             	mov    %rdx,%rcx
    3f6a:	48 63 f6             	movslq %esi,%rsi
    3f6d:	4c 8d 44 24 e0       	lea    -0x20(%rsp),%r8
    3f72:	0f ef f6             	pxor   %mm6,%mm6
    3f75:	0f 74 ff             	pcmpeqb %mm7,%mm7
    3f78:	0f 6f 41 70          	movq   0x70(%rcx),%mm0
    3f7c:	0f 60 c6             	punpcklbw %mm6,%mm0
    3f7f:	0f 71 d0 01          	psrlw  $0x1,%mm0
    3f83:	0f f9 c7             	psubw  %mm7,%mm0
    3f86:	0f 67 c0             	packuswb %mm0,%mm0
    3f89:	0f 7f 41 78          	movq   %mm0,0x78(%rcx)
    3f8d:	48 8d 04 37          	lea    (%rdi,%rsi,1),%rax
    3f91:	48 8d 14 b0          	lea    (%rax,%rsi,4),%rdx
    3f95:	0f 6f 00             	movq   (%rax),%mm0
    3f98:	0f da f8             	pminub %mm0,%mm7
    3f9b:	0f de f0             	pmaxub %mm0,%mm6
    3f9e:	0f 6f 04 30          	movq   (%rax,%rsi,1),%mm0
    3fa2:	0f da f8             	pminub %mm0,%mm7
    3fa5:	0f de f0             	pmaxub %mm0,%mm6
    3fa8:	0f 6f 04 70          	movq   (%rax,%rsi,2),%mm0
    3fac:	0f da f8             	pminub %mm0,%mm7
    3faf:	0f de f0             	pmaxub %mm0,%mm6
    3fb2:	0f 6f 04 b7          	movq   (%rdi,%rsi,4),%mm0
    3fb6:	0f da f8             	pminub %mm0,%mm7
    3fb9:	0f de f0             	pmaxub %mm0,%mm6
    3fbc:	0f 6f 02             	movq   (%rdx),%mm0
    3fbf:	0f da f8             	pminub %mm0,%mm7
    3fc2:	0f de f0             	pmaxub %mm0,%mm6
    3fc5:	0f 6f 04 32          	movq   (%rdx,%rsi,1),%mm0
    3fc9:	0f da f8             	pminub %mm0,%mm7
    3fcc:	0f de f0             	pmaxub %mm0,%mm6
    3fcf:	0f 6f 04 72          	movq   (%rdx,%rsi,2),%mm0
    3fd3:	0f da f8             	pminub %mm0,%mm7
    3fd6:	0f de f0             	pmaxub %mm0,%mm6
    3fd9:	0f 6f 04 f7          	movq   (%rdi,%rsi,8),%mm0
    3fdd:	0f da f8             	pminub %mm0,%mm7
    3fe0:	0f de f0             	pmaxub %mm0,%mm6
    3fe3:	0f 6f e7             	movq   %mm7,%mm4
    3fe6:	0f 73 d7 08          	psrlq  $0x8,%mm7
    3fea:	0f da fc             	pminub %mm4,%mm7
    3fed:	0f 70 e7 f9          	pshufw $0xf9,%mm7,%mm4
    3ff1:	0f da fc             	pminub %mm4,%mm7
    3ff4:	0f 70 e7 fe          	pshufw $0xfe,%mm7,%mm4
    3ff8:	0f da fc             	pminub %mm4,%mm7
    3ffb:	0f 6f e6             	movq   %mm6,%mm4
    3ffe:	0f 73 d6 08          	psrlq  $0x8,%mm6
    4002:	0f de f4             	pmaxub %mm4,%mm6
    4005:	0f 70 e6 f9          	pshufw $0xf9,%mm6,%mm4
    4009:	0f de f4             	pmaxub %mm4,%mm6
    400c:	0f 70 e6 fe          	pshufw $0xfe,%mm6,%mm4
    4010:	0f de f4             	pmaxub %mm4,%mm6
    4013:	0f 6f c6             	movq   %mm6,%mm0
    4016:	0f f8 f7             	psubb  %mm7,%mm6
    4019:	41 50                	push   %r8
    401b:	41 0f 7e f0          	movd   %mm6,%r8d
    401f:	44 3a 04 25 00 00 00 	cmp    0x0,%r8b
    4026:	00 
    4027:	41 58                	pop    %r8
    4029:	72 0c                	jb     4037 <dering_SSE2+0xd0>
    402b:	0f e0 f8             	pavgb  %mm0,%mm7
    402e:	0f 60 ff             	punpcklbw %mm7,%mm7
    4031:	0f 60 ff             	punpcklbw %mm7,%mm7
    4034:	0f 60 ff             	punpcklbw %mm7,%mm7
    4037:	41 0f 7f 38          	movq   %mm7,(%r8)
    403b:	0f 6f 07             	movq   (%rdi),%mm0
    403e:	0f 6f c8             	movq   %mm0,%mm1
    4041:	0f 6f d0             	movq   %mm0,%mm2
    4044:	0f 73 f1 08          	psllq  $0x8,%mm1
    4048:	0f 73 d2 08          	psrlq  $0x8,%mm2
    404c:	0f 6e 5f fc          	movd   -0x4(%rdi),%mm3
    4050:	0f 6e 67 08          	movd   0x8(%rdi),%mm4
    4054:	0f 73 d3 18          	psrlq  $0x18,%mm3
    4058:	0f 73 f4 38          	psllq  $0x38,%mm4
    405c:	0f eb cb             	por    %mm3,%mm1
    405f:	0f eb d4             	por    %mm4,%mm2
    4062:	0f 6f d9             	movq   %mm1,%mm3
    4065:	0f e0 ca             	pavgb  %mm2,%mm1
    4068:	0f e0 c8             	pavgb  %mm0,%mm1
    406b:	0f d8 c7             	psubusb %mm7,%mm0
    406e:	0f d8 d7             	psubusb %mm7,%mm2
    4071:	0f d8 df             	psubusb %mm7,%mm3
    4074:	0f 74 04 25 00 00 00 	pcmpeqb 0x0,%mm0
    407b:	00 
    407c:	0f 74 14 25 00 00 00 	pcmpeqb 0x0,%mm2
    4083:	00 
    4084:	0f 74 1c 25 00 00 00 	pcmpeqb 0x0,%mm3
    408b:	00 
    408c:	0f fc c2             	paddb  %mm2,%mm0
    408f:	0f fc c3             	paddb  %mm3,%mm0
    4092:	0f 6f 10             	movq   (%rax),%mm2
    4095:	0f 6f da             	movq   %mm2,%mm3
    4098:	0f 6f e2             	movq   %mm2,%mm4
    409b:	0f 73 f3 08          	psllq  $0x8,%mm3
    409f:	0f 73 d4 08          	psrlq  $0x8,%mm4
    40a3:	0f 6e 68 fc          	movd   -0x4(%rax),%mm5
    40a7:	0f 6e 70 08          	movd   0x8(%rax),%mm6
    40ab:	0f 73 d5 18          	psrlq  $0x18,%mm5
    40af:	0f 73 f6 38          	psllq  $0x38,%mm6
    40b3:	0f eb dd             	por    %mm5,%mm3
    40b6:	0f eb e6             	por    %mm6,%mm4
    40b9:	0f 6f eb             	movq   %mm3,%mm5
    40bc:	0f e0 dc             	pavgb  %mm4,%mm3
    40bf:	0f e0 da             	pavgb  %mm2,%mm3
    40c2:	0f d8 d7             	psubusb %mm7,%mm2
    40c5:	0f d8 e7             	psubusb %mm7,%mm4
    40c8:	0f d8 ef             	psubusb %mm7,%mm5
    40cb:	0f 74 14 25 00 00 00 	pcmpeqb 0x0,%mm2
    40d2:	00 
    40d3:	0f 74 24 25 00 00 00 	pcmpeqb 0x0,%mm4
    40da:	00 
    40db:	0f 74 2c 25 00 00 00 	pcmpeqb 0x0,%mm5
    40e2:	00 
    40e3:	0f fc d4             	paddb  %mm4,%mm2
    40e6:	0f fc d5             	paddb  %mm5,%mm2
    40e9:	0f 6f 24 30          	movq   (%rax,%rsi,1),%mm4
    40ed:	0f 6f ec             	movq   %mm4,%mm5
    40f0:	0f 6f f4             	movq   %mm4,%mm6
    40f3:	0f 73 f5 08          	psllq  $0x8,%mm5
    40f7:	0f 73 d6 08          	psrlq  $0x8,%mm6
    40fb:	0f 6e 7c 30 fc       	movd   -0x4(%rax,%rsi,1),%mm7
    4100:	0f 73 d7 18          	psrlq  $0x18,%mm7
    4104:	0f eb ef             	por    %mm7,%mm5
    4107:	0f 6e 7c 30 08       	movd   0x8(%rax,%rsi,1),%mm7
    410c:	0f 73 f7 38          	psllq  $0x38,%mm7
    4110:	0f eb f7             	por    %mm7,%mm6
    4113:	0f 6f fd             	movq   %mm5,%mm7
    4116:	0f e0 ee             	pavgb  %mm6,%mm5
    4119:	0f e0 ec             	pavgb  %mm4,%mm5
    411c:	0f e0 cd             	pavgb  %mm5,%mm1
    411f:	41 0f 7f 68 08       	movq   %mm5,0x8(%r8)
    4124:	41 0f 6f 28          	movq   (%r8),%mm5
    4128:	0f d8 fd             	psubusb %mm5,%mm7
    412b:	0f d8 f5             	psubusb %mm5,%mm6
    412e:	0f d8 e5             	psubusb %mm5,%mm4
    4131:	0f 6f 2c 25 00 00 00 	movq   0x0,%mm5
    4138:	00 
    4139:	0f 74 fd             	pcmpeqb %mm5,%mm7
    413c:	0f 74 f5             	pcmpeqb %mm5,%mm6
    413f:	0f 74 e5             	pcmpeqb %mm5,%mm4
    4142:	0f fc f7             	paddb  %mm7,%mm6
    4145:	0f fc e6             	paddb  %mm6,%mm4
    4148:	0f e0 cb             	pavgb  %mm3,%mm1
    414b:	0f 6f 30             	movq   (%rax),%mm6
    414e:	0f 6f fe             	movq   %mm6,%mm7
    4151:	0f d8 71 78          	psubusb 0x78(%rcx),%mm6
    4155:	0f dc 79 78          	paddusb 0x78(%rcx),%mm7
    4159:	0f de ce             	pmaxub %mm6,%mm1
    415c:	0f da cf             	pminub %mm7,%mm1
    415f:	0f fc c4             	paddb  %mm4,%mm0
    4162:	0f fc c2             	paddb  %mm2,%mm0
    4165:	0f db 04 25 00 00 00 	pand   0x0,%mm0
    416c:	00 
    416d:	0f 74 c5             	pcmpeqb %mm5,%mm0
    4170:	0f db c8             	pand   %mm0,%mm1
    4173:	0f df 00             	pandn  (%rax),%mm0
    4176:	0f eb c1             	por    %mm1,%mm0
    4179:	0f 7f 00             	movq   %mm0,(%rax)
    417c:	41 0f 6f 68 08       	movq   0x8(%r8),%mm5
    4181:	0f 6f 04 70          	movq   (%rax,%rsi,2),%mm0
